   1              		.file	"lab.c"
   9              	.Ltext0:
  10              		.global	mass
  11              		.data
  12              		.align	2
  15              	mass:
  16 0000 3D0A373F 		.word	1060571709
  17              		.global	kF
  18              		.align	2
  21              	kF:
  22 0004 E950FA36 		.word	922374377
  23              		.global	kM
  24              		.align	2
  27              	kM:
  28 0008 FC110434 		.word	872681980
  29              		.global	l
  30              		.align	2
  33              	l:
  34 000c 7B142E3E 		.word	1043207291
  35              		.global	MAXPHI2
  36              		.align	2
  39              	MAXPHI2:
  40 0010 7B5E1449 		.word	1226071675
  41              		.global	MINPHI2
  42              		.align	2
  45              	MINPHI2:
  46 0014 757A4646 		.word	1179023989
  47              		.global	K_d
  48              		.align	2
  51              	K_d:
  52 0018 0000803F 		.word	1065353216
  53              		.global	K_p
  54              		.align	2
  57              	K_p:
  58 001c 3333B33F 		.word	1068708659
  59              		.global	K_i
  60              		.align	2
  63              	K_i:
  64 0020 840D0BC0 		.word	-1073017468
  65 0024 9487053D 		.word	1023772564
  66 0028 2D43FC3F 		.word	1073496877
  67 002c AD6972C0 		.word	-1066243667
  68 0030 B003673C 		.word	1013384112
  69 0034 B0030B40 		.word	1074463664
  70 0038 68B372C0 		.word	-1066224792
  71 003c C4B1F6BF 		.word	-1074351676
  72              		.global	v_desired
  73              		.bss
  74              		.align	2
  77              	v_desired:
  78 0000 00000000 		.space	12
  78      00000000 
  78      00000000 
  79              		.global	g
  80              		.data
  81              		.align	2
  84              	g:
  85 0040 0AE81C41 		.word	1092413450
  86              		.global	outter_count
  87              		.bss
  88              		.align	2
  91              	outter_count:
  92 000c 00000000 		.space	4
  93              		.global	epsilon_eq
  94              		.data
  95              		.align	2
  98              	epsilon_eq:
  99 0044 9983203D 		.word	1025541017
 100              		.global	nx_eq
 101              		.align	2
 104              	nx_eq:
 105 0048 34B9D8BD 		.word	-1109870284
 106              		.global	ny_eq
 107              		.bss
 108              		.align	2
 111              	ny_eq:
 112 0010 00000000 		.space	4
 113              		.global	nz_eq
 114              		.data
 115              		.align	2
 118              	nz_eq:
 119 004c 04907E3F 		.word	1065259012
 120              		.global	p_eq
 121              		.align	2
 124              	p_eq:
 125 0050 20D32CC0 		.word	-1070804192
 126              		.global	q_eq
 127              		.bss
 128              		.align	2
 131              	q_eq:
 132 0014 00000000 		.space	4
 133              		.global	r_eq
 134              		.data
 135              		.align	2
 138              	r_eq:
 139 0054 E8FFCA41 		.word	1103822824
 140              		.global	pd_eq
 141              		.bss
 142              		.align	2
 145              	pd_eq:
 146 0018 00000000 		.space	4
 147              		.global	qd_eq
 148              		.align	2
 151              	qd_eq:
 152 001c 00000000 		.space	4
 153              		.global	rd_eq
 154              		.align	2
 157              	rd_eq:
 158 0020 00000000 		.space	4
 159              		.global	w1_eq
 160              		.data
 161              		.align	2
 164              	w1_eq:
 165 0058 9CBF1944 		.word	1142538140
 166              		.global	w2_eq
 167              		.align	2
 170              	w2_eq:
 171 005c 9CBF1944 		.word	1142538140
 172              		.global	w3_eq
 173              		.align	2
 176              	w3_eq:
 177 0060 E56ED943 		.word	1138323173
 178              		.global	w4_eq
 179              		.bss
 180              		.align	2
 183              	w4_eq:
 184 0024 00000000 		.space	4
 185              		.global	se
 186              		.data
 187              		.align	2
 190              	se:
 191 0064 20D32CC0 		.word	-1070804192
 192 0068 00000000 		.word	0
 193 006c 34B9D8BD 		.word	-1109870284
 194 0070 00000000 		.word	0
 195              		.global	ue
 196              		.align	2
 199              	ue:
 200 0074 00000000 		.word	0
 201 0078 7F93B43F 		.word	1068798847
 202              		.text
 203              		.align	2
 204              		.global	lab
 206              	lab:
 207              	.LFB2:
 208              		.file 1 "lab.c"
   1:lab.c         **** /*
   2:lab.c         ****  * lab.c
   3:lab.c         ****  *
   4:lab.c         ****  *  Created on: Jan 26, 2015
   5:lab.c         ****  *      Author: hanley6
   6:lab.c         ****  */
   7:lab.c         **** 
   8:lab.c         **** /*----------------------------------------------------------------------*/
   9:lab.c         **** /*------------------------------ Preamble ------------------------------*/
  10:lab.c         **** /*----------------------------------------------------------------------*/
  11:lab.c         **** 
  12:lab.c         **** /*--------------- Includes ---------------*/
  13:lab.c         **** #include "lab.h"
  14:lab.c         **** #include "math.h"
  15:lab.c         **** /*------------- End Includes -------------*/
  16:lab.c         **** 
  17:lab.c         **** /*---------- Function Prototypes ---------*/
  18:lab.c         **** void lab3(void);
  19:lab.c         **** void convert_input_to_motor_commands(void);
  20:lab.c         **** void do_sensor_fusion(void);
  21:lab.c         **** /*-------- End Function Prototypes -------*/
  22:lab.c         **** 
  23:lab.c         **** /*--------------- Globals ----------------*/
  24:lab.c         **** struct imuSensor imusensor;
  25:lab.c         **** struct U u;
  26:lab.c         **** struct MOCAP mocap;
  27:lab.c         **** struct GoalPosYaw goalposyaw;
  28:lab.c         **** 
  29:lab.c         **** /////////// HUMMINGBIRD PARAMETERS /////////////
  30:lab.c         **** float mass = 0.715;
  31:lab.c         **** float kF = 7.46e-6;
  32:lab.c         **** float kM = 1.23e-7;
  33:lab.c         **** float l = 0.17;
  34:lab.c         **** float MAXPHI2 = 779.5638*779.5638;
  35:lab.c         **** float MINPHI2 = 112.705875*112.705875;
  36:lab.c         **** ////////////////////////////////////////////
  37:lab.c         **** 
  38:lab.c         **** /////////// CONTROLLER PARAMETERS /////////////
  39:lab.c         **** // The gain matrix has size 4x12 but is represented in C as an array
  40:lab.c         **** // with 48 elements. The first 12 elements are in the first row of the
  41:lab.c         **** // matrix, the second 12 in the second row, and so forth.
  42:lab.c         **** //float K[48] = {   0.000000000000014 ,  1.875007700503404 ,  0.000000000000054 ,  0.00000000000000
  43:lab.c         **** //				 -1.850925589056405 , -0.000000000000002 ,  0.000000000000061 ,  0.000000000000002 ,  2.03773
  44:lab.c         **** //				 -0.000000000000018 , -0.000000000000015 ,  0.000000000000027 ,  1.649473343767278 ,  0.00000
  45:lab.c         **** //				  0.000000000000044 , -0.000000000000062 , -6.492988611013611 , -0.000000000000000 , -0.00000
  46:lab.c         **** 
  47:lab.c         **** float K_d = 1;
  48:lab.c         **** float K_p = 1.4;
  49:lab.c         **** float K_i[8] = {-2.1727, 0.0326, 1.9708, -3.7877,
  50:lab.c         **** 				0.0141, 2.1721, -3.7922, -1.9273};
  51:lab.c         **** //-6.5 whatever
  52:lab.c         **** ////////////////////////////////////////////
  53:lab.c         **** 
  54:lab.c         **** 
  55:lab.c         **** // Other variables you'll need to work with
  56:lab.c         **** float cnt_u[4];
  57:lab.c         **** float o_desired[3];
  58:lab.c         **** float v_desired[3] = {0,0,0};
  59:lab.c         **** float yaw_desired;
  60:lab.c         **** float g = 9.80665;	// Standard Gravity m/s^2
  61:lab.c         **** float xd[12];   // discrete state (i.e., state error)
  62:lab.c         **** float xe[12];
  63:lab.c         **** 
  64:lab.c         **** float fsum_des;
  65:lab.c         **** float n_des[3];
  66:lab.c         **** // Other variables you can ignore for now
  67:lab.c         **** float Winv[4*4];
  68:lab.c         **** float omega_cmd2[4];
  69:lab.c         **** float omega_cmd[4];
  70:lab.c         **** float cmd[4];
  71:lab.c         **** int outter_count=0;
  72:lab.c         **** float epsilon_eq=0.039188;
  73:lab.c         **** float nx_eq=-0.105822;
  74:lab.c         **** float ny_eq=0.000000 ;
  75:lab.c         **** float nz_eq=0.994385 ;
  76:lab.c         **** float p_eq=-2.700386 ;
  77:lab.c         **** float q_eq=0.000000 ;
  78:lab.c         **** float r_eq=25.374955 ;
  79:lab.c         **** float  pd_eq=0.000000 ;
  80:lab.c         **** float qd_eq=0.000000 ;
  81:lab.c         **** float rd_eq=0.000000 ;
  82:lab.c         **** float w1_eq=614.993890 ;
  83:lab.c         **** float w2_eq=614.993890 ;
  84:lab.c         **** float w3_eq=434.866350 ;
  85:lab.c         **** float w4_eq=0.000000;
  86:lab.c         **** float se[4] = {-2.700386, 0, -0.105822, 0};
  87:lab.c         **** float ue[2] = {0, (7.46e-6)*(434.866350)*(434.866350)};
  88:lab.c         **** 
  89:lab.c         **** 
  90:lab.c         **** 
  91:lab.c         **** /*------------- End Globals --------------*/
  92:lab.c         **** 
  93:lab.c         **** /*----------------------------------------------------------------------*/
  94:lab.c         **** /*---------------------------- End Preamble ----------------------------*/
  95:lab.c         **** /*----------------------------------------------------------------------*/
  96:lab.c         **** 
  97:lab.c         **** 
  98:lab.c         **** /*----------------------------------------------------------------------*/
  99:lab.c         **** /*------------------ Main Loop (called at 1 kHz) -----------------------*/
 100:lab.c         **** /*----------------------------------------------------------------------*/
 101:lab.c         **** void lab(void)
 102:lab.c         **** {
 209              	2:
 210              		.loc 1 104 0
 211              		ldr	r3, .L3
 212              		ldr	r2, [r3, #0]	@ float
 213 0000 0DC0A0E1 		ldr	r3, .L3+4
 214              		str	r2, [r3, #0]	@ float
 215 0004 00D82DE9 		.loc 1 105 0
 216              		ldr	r3, .L3
 217 0008 04B04CE2 		ldr	r2, [r3, #4]	@ float
 218              		ldr	r3, .L3+4
 103:lab.c         **** 	// Desired Position
 104:lab.c         **** 	o_desired[0] = goalposyaw.x;	// x/North (m)
 219              	r3, #4]	@ float
 220 000c 50309FE5 		.loc 1 106 0
 221 0010 002093E5 		ldr	r3, .L3
 222 0014 4C309FE5 		ldr	r2, [r3, #8]	@ float
 223 0018 002083E5 		ldr	r3, .L3+4
 105:lab.c         **** 	o_desired[1] = goalposyaw.y;	// y/East (m)
 224              	r2, [r3, #8]	@ float
 225 001c 40309FE5 		.loc 1 107 0
 226 0020 042093E5 		ldr	r3, .L3
 227 0024 3C309FE5 		ldr	r2, [r3, #12]	@ float
 228 0028 042083E5 		ldr	r3, .L3+8
 106:lab.c         **** 	o_desired[2] = goalposyaw.z;	// z/Down (m)
 229              	r2, [r3, #0]	@ float
 230 002c 30309FE5 		.loc 1 112 0
 231 0030 082093E5 		bl	do_sensor_fusion
 232 0034 2C309FE5 		.loc 1 115 0
 233 0038 082083E5 		bl	lab3
 107:lab.c         **** 	yaw_desired = goalposyaw.yaw;	// yaw (rad)
 234              	 1 118 0
 235 003c 20309FE5 		bl	convert_input_to_motor_commands
 236 0040 0C2093E5 		.loc 1 119 0
 237 0044 20309FE5 		sub	sp, fp, #12
 238 0048 002083E5 		ldmfd	sp, {fp, sp, lr}
 108:lab.c         **** 	//float v_desired[0] = 0;
 109:lab.c         **** 	//float v_desired[1] = 0;
 110:lab.c         **** 	//float v_desired[2] = 0;
 111:lab.c         **** 	// Fuse mocap measurements with IMU measurements
 112:lab.c         **** 	do_sensor_fusion();
 239              	r
 240 004c FEFFFFEB 	.L4:
 113:lab.c         **** 
 114:lab.c         **** 	// Run controller to choose inputs (modify struct u)
 115:lab.c         **** 	lab3();
 241              	align	2
 242 0050 FEFFFFEB 	.L3:
 116:lab.c         **** 
 117:lab.c         **** 	// Convert inputs to motor commands
 118:lab.c         **** 	convert_input_to_motor_commands();
 243              	word	goalposyaw
 244 0054 FEFFFFEB 		.word	o_desired
 119:lab.c         **** }
 245              	word	yaw_desired
 246 0058 0CD04BE2 	.LFE2:
 248 0060 1EFF2FE1 		.global	LED1toggle
 249              		.bss
 250              		.align	2
 253 0068 00000000 	LED1toggle:
 254 006c 00000000 		.space	4
 255              		.global	LED1count
 256              		.align	2
 259              	LED1count:
 260              		.space	4
 261              		.global	numCMDs
 262              		.align	2
 265              	numCMDs:
 266              		.space	4
 267              		.global	__nesf2
 268              		.global	__floatsidf
 269 002c 00000000 		.global	__adddf3
 270              		.global	__fixdfsi
 271              		.global	__subsf3
 272              		.global	__extendsfdf2
 273              		.global	__divdf3
 274              		.global	__truncdfsf2
 275 0030 00000000 		.text
 276              		.align	2
 277              		.global	do_sensor_fusion
 279              	do_sensor_fusion:
 280              	.LFB3:
 281              		.loc 1 132 0
 282              		@ Function supports interworking.
 283              		@ args = 0, pretend = 0, frame = 4
 284              		@ frame_needed = 1, uses_anonymous_args = 0
 285              		mov	ip, sp
 286              	.LCFI3:
 287              		stmfd	sp!, {r4, fp, ip, lr, pc}
 288              	.LCFI4:
 289              		sub	fp, ip, #4
 120:lab.c         **** /*----------------------------------------------------------------------*/
 121:lab.c         **** /*---------------- End Main Loop (called at 1 kHz) ---------------------*/
 122:lab.c         **** /*----------------------------------------------------------------------*/
 123:lab.c         **** 
 124:lab.c         **** /*----------------------------------------------------------------------*/
 125:lab.c         **** /*------------------------------ Helpers -------------------------------*/
 126:lab.c         **** /*----------------------------------------------------------------------*/
 127:lab.c         **** /*---------- Velocity Estimator ----------*/
 128:lab.c         **** int LED1toggle = 0;
 129:lab.c         **** int LED1count = 0;
 130:lab.c         **** int numCMDs = 0.0;
 131:lab.c         **** 
 132:lab.c         **** void do_sensor_fusion() {
 290              	
 291              		ldr	r3, .L18+8
 292              		ldr	r2, [r3, #8]	@ float
 293              		ldr	r3, .L18+12
 294 0070 0DC0A0E1 		ldr	r3, [r3, #0]	@ float
 295              		mov	r0, r2
 296 0074 10D82DE9 		mov	r1, r3
 297              		bl	__nesf2
 298 0078 04B04CE2 		mov	r3, r0
 299              		cmp	r3, #0
 300 007c 04D04DE2 		bne	.L6
 301              		ldr	r3, .L18+8
 133:lab.c         **** 
 134:lab.c         ****     // Only proceed if the mocap measurements have changed
 135:lab.c         **** 	if ( (previousXMeas != mocap.dX) || (previousYMeas != mocap.dY) || (previousZMeas != mocap.dZ) ) {
 302              	3, #12]	@ float
 303 0080 78339FE5 		ldr	r3, .L18+16
 304 0084 082093E5 		ldr	r3, [r3, #0]	@ float
 305 0088 74339FE5 		mov	r0, r2
 306 008c 003093E5 		mov	r1, r3
 307 0090 0200A0E1 		bl	__nesf2
 308 0094 0310A0E1 		mov	r3, r0
 309 0098 FEFFFFEB 		cmp	r3, #0
 310 009c 0030A0E1 		bne	.L6
 311 00a0 000053E3 		ldr	r3, .L18+8
 312 00a4 1400001A 		ldr	r2, [r3, #16]	@ float
 313 00a8 50339FE5 		ldr	r3, .L18+20
 314 00ac 0C2093E5 		ldr	r3, [r3, #0]	@ float
 315 00b0 50339FE5 		mov	r0, r2
 316 00b4 003093E5 		mov	r1, r3
 317 00b8 0200A0E1 		bl	__nesf2
 318 00bc 0310A0E1 		mov	r3, r0
 319 00c0 FEFFFFEB 		cmp	r3, #0
 320 00c4 0030A0E1 		bne	.L6
 321 00c8 000053E3 		b	.L9
 322 00cc 0A00001A 	.L6:
 323 00d0 28339FE5 		.loc 1 136 0
 324 00d4 102093E5 		ldr	r3, .L18+24
 325 00d8 2C339FE5 		ldr	r3, [r3, #0]
 326 00dc 003093E5 		mov	r0, r3
 327 00e0 0200A0E1 		bl	__floatsidf
 328 00e4 0310A0E1 		mov	r3, r0
 329 00e8 FEFFFFEB 		mov	r4, r1
 330 00ec 0030A0E1 		mov	r0, r3
 331 00f0 000053E3 		mov	r1, r4
 332 00f4 0000001A 		mov	r2, #1069547520
 333 00f8 AF0000EA 		add	r2, r2, #3145728
 334              		mov	r3, #0
 136:lab.c         **** 		numCMDs = numCMDs + 1.0;
 335              	 r1
 336 00fc 0C339FE5 		mov	r0, r3
 337 0100 003093E5 		mov	r1, r4
 338 0104 0300A0E1 		bl	__fixdfsi
 339 0108 FEFFFFEB 		mov	r2, r0
 340 010c 0030A0E1 		ldr	r3, .L18+24
 341 0110 0140A0E1 		str	r2, [r3, #0]
 342 0114 0300A0E1 		.loc 1 137 0
 343 0118 0410A0E1 		ldr	r3, .L18+28
 344 011c FF25A0E3 		ldr	r3, [r3, #0]
 345 0120 032682E2 		add	r2, r3, #1
 346 0124 0030A0E3 		ldr	r3, .L18+28
 347 0128 FEFFFFEB 		str	r2, [r3, #0]
 348 012c 0030A0E1 		.loc 1 138 0
 349 0130 0140A0E1 		ldr	r3, .L18+28
 350 0134 0300A0E1 		ldr	r1, [r3, #0]
 351 0138 0410A0E1 		ldr	r3, .L18+32
 352 013c FEFFFFEB 		smull	r2, r3, r1, r3
 353 0140 0020A0E1 		mov	r2, r3, asr #2
 354 0144 C4329FE5 		mov	r3, r1, asr #31
 355 0148 002083E5 		rsb	r2, r3, r2
 137:lab.c         **** 		LED1count++;
 356              	ldr	r3, [fp, #-20]
 357 014c C0329FE5 		mov	r3, r3, asl #2
 358 0150 003093E5 		ldr	r2, [fp, #-20]
 359 0154 012083E2 		add	r3, r3, r2
 360 0158 B4329FE5 		mov	r3, r3, asl #1
 361 015c 002083E5 		rsb	r1, r3, r1
 138:lab.c         **** 		if (0==(LED1count%10)) {
 362              	1, [fp, #-20]
 363 0160 AC329FE5 		ldr	r3, [fp, #-20]
 364 0164 001093E5 		cmp	r3, #0
 365 0168 A8329FE5 		bne	.L11
 366 016c 9123C3E0 		.loc 1 139 0
 367 0170 4321A0E1 		ldr	r3, .L18+36
 368 0174 C13FA0E1 		ldr	r3, [r3, #0]
 369 0178 022063E0 		cmp	r3, #0
 370 017c 14200BE5 		bne	.L13
 371 0180 14301BE5 		.loc 1 140 0
 372 0184 0331A0E1 		mov	r0, #1
 373 0188 14201BE5 		mov	r1, #0
 374 018c 023083E0 		bl	LED
 375 0190 8330A0E1 		.loc 1 141 0
 376 0194 011063E0 		ldr	r2, .L18+36
 377 0198 14100BE5 		mov	r3, #1
 378 019c 14301BE5 		str	r3, [r2, #0]
 379 01a0 000053E3 		b	.L11
 380 01a4 1000001A 	.L13:
 139:lab.c         **** 			if (LED1toggle == 0) {
 381              	r0, #1
 382 01a8 6C329FE5 		mov	r1, #1
 383 01ac 003093E5 		bl	LED
 384 01b0 000053E3 		.loc 1 144 0
 385 01b4 0600001A 		ldr	r2, .L18+36
 140:lab.c         **** 				LED(1,OFF);
 386              	r3, #0
 387 01b8 0100A0E3 		str	r3, [r2, #0]
 388 01bc 0010A0E3 	.L11:
 389 01c0 FEFFFFEB 		.loc 1 148 0
 141:lab.c         **** 				LED1toggle = 1;
 390              		r3, .L18+40
 391 01c4 50229FE5 		ldr	r3, [r3, #0]
 392 01c8 0130A0E3 		cmp	r3, #0
 393 01cc 003082E5 		bne	.L15
 394 01d0 050000EA 		.loc 1 151 0
 395              		ldr	r3, .L18+8
 142:lab.c         **** 			} else {
 143:lab.c         **** 				LED(1,ON);
 396              	2, [r3, #8]	@ float
 397 01d4 0100A0E3 		ldr	r3, .L18+8
 398 01d8 0110A0E3 		str	r2, [r3, #8]	@ float
 399 01dc FEFFFFEB 		.loc 1 152 0
 144:lab.c         **** 				LED1toggle = 0;
 400              		r3, .L18+8
 401 01e0 34229FE5 		ldr	r2, [r3, #12]	@ float
 402 01e4 0030A0E3 		ldr	r3, .L18+8
 403 01e8 003082E5 		str	r2, [r3, #12]	@ float
 404              		.loc 1 153 0
 145:lab.c         **** 			}
 146:lab.c         **** 		}
 147:lab.c         ****  		// Velocity Estimation
 148:lab.c         **** 		if (initialize == 0)
 405              	r3, .L18+8
 406 01ec 2C329FE5 		ldr	r2, [r3, #16]	@ float
 407 01f0 003093E5 		ldr	r3, .L18+8
 408 01f4 000053E3 		str	r2, [r3, #16]	@ float
 409 01f8 1800001A 		.loc 1 154 0
 149:lab.c         **** 		{
 150:lab.c         **** 			// Initialization
 151:lab.c         **** 			mocap.dX = mocap.dX;
 410              	r2, .L18+8
 411 01fc FC319FE5 		ldr	r3, .L18+44	@ float
 412 0200 082093E5 		str	r3, [r2, #32]	@ float
 413 0204 F4319FE5 		.loc 1 155 0
 414 0208 082083E5 		ldr	r2, .L18+8
 152:lab.c         **** 			mocap.dY = mocap.dY;
 415              	r3, .L18+44	@ float
 416 020c EC319FE5 		str	r3, [r2, #36]	@ float
 417 0210 0C2093E5 		.loc 1 156 0
 418 0214 E4319FE5 		ldr	r2, .L18+8
 419 0218 0C2083E5 		ldr	r3, .L18+44	@ float
 153:lab.c         **** 			mocap.dZ = mocap.dZ;
 420              	r3, [r2, #40]	@ float
 421 021c DC319FE5 		.loc 1 158 0
 422 0220 102093E5 		ldr	r2, .L18+40
 423 0224 D4319FE5 		mov	r3, #1
 424 0228 102083E5 		str	r3, [r2, #0]
 154:lab.c         **** 			mocap.dVx = 0.0;
 425              	9
 426 022c CC219FE5 	.L15:
 427 0230 EC319FE5 		.loc 1 163 0
 428 0234 203082E5 		ldr	r3, .L18+8
 155:lab.c         **** 			mocap.dVy = 0.0;
 429              		r2, [r3, #8]	@ float
 430 0238 C0219FE5 		ldr	r3, .L18+12
 431 023c E0319FE5 		ldr	r3, [r3, #0]	@ float
 432 0240 243082E5 		mov	r0, r2
 156:lab.c         **** 			mocap.dVz = 0.0;
 433              		r1, r3
 434 0244 B4219FE5 		bl	__subsf3
 435 0248 D4319FE5 		mov	r3, r0
 436 024c 283082E5 		mov	r0, r3
 157:lab.c         **** 
 158:lab.c         **** 			initialize = 1;
 437              	__extendsfdf2
 438 0250 C8219FE5 		mov	r3, r0
 439 0254 0130A0E3 		mov	r4, r1
 440 0258 003082E5 		mov	r0, r3
 441 025c 560000EA 		mov	r1, r4
 442              		adr	r2, .L18
 159:lab.c         **** 		}
 160:lab.c         **** 		else
 161:lab.c         **** 		{
 162:lab.c         **** 
 163:lab.c         **** 			mocap.dVx = (mocap.dX - previousXMeas)/0.02;
 443              		r2, {r2-r3}
 444 0260 98319FE5 		bl	__divdf3
 445 0264 082093E5 		mov	r3, r0
 446 0268 94319FE5 		mov	r4, r1
 447 026c 003093E5 		mov	r0, r3
 448 0270 0200A0E1 		mov	r1, r4
 449 0274 0310A0E1 		bl	__truncdfsf2
 450 0278 FEFFFFEB 		mov	r2, r0
 451 027c 0030A0E1 		ldr	r3, .L18+8
 452 0280 0300A0E1 		str	r2, [r3, #32]	@ float
 453 0284 FEFFFFEB 		.loc 1 164 0
 454 0288 0030A0E1 		ldr	r3, .L18+8
 455 028c 0140A0E1 		ldr	r2, [r3, #12]	@ float
 456 0290 0300A0E1 		ldr	r3, .L18+16
 457 0294 0410A0E1 		ldr	r3, [r3, #0]	@ float
 458 0298 562F8FE2 		mov	r0, r2
 459 029c 0C0092E8 		mov	r1, r3
 460 02a0 FEFFFFEB 		bl	__subsf3
 461 02a4 0030A0E1 		mov	r3, r0
 462 02a8 0140A0E1 		mov	r0, r3
 463 02ac 0300A0E1 		bl	__extendsfdf2
 464 02b0 0410A0E1 		mov	r3, r0
 465 02b4 FEFFFFEB 		mov	r4, r1
 466 02b8 0020A0E1 		mov	r0, r3
 467 02bc 3C319FE5 		mov	r1, r4
 468 02c0 202083E5 		adr	r2, .L18
 164:lab.c         **** 			mocap.dVy = (mocap.dY - previousYMeas)/0.02;
 469              	ivdf3
 470 02c4 34319FE5 		mov	r3, r0
 471 02c8 0C2093E5 		mov	r4, r1
 472 02cc 34319FE5 		mov	r0, r3
 473 02d0 003093E5 		mov	r1, r4
 474 02d4 0200A0E1 		bl	__truncdfsf2
 475 02d8 0310A0E1 		mov	r2, r0
 476 02dc FEFFFFEB 		ldr	r3, .L18+8
 477 02e0 0030A0E1 		str	r2, [r3, #36]	@ float
 478 02e4 0300A0E1 		.loc 1 165 0
 479 02e8 FEFFFFEB 		ldr	r3, .L18+8
 480 02ec 0030A0E1 		ldr	r2, [r3, #16]	@ float
 481 02f0 0140A0E1 		ldr	r3, .L18+20
 482 02f4 0300A0E1 		ldr	r3, [r3, #0]	@ float
 483 02f8 0410A0E1 		mov	r0, r2
 484 02fc F4208FE2 		mov	r1, r3
 485 0300 0C0092E8 		bl	__subsf3
 486 0304 FEFFFFEB 		mov	r3, r0
 487 0308 0030A0E1 		mov	r0, r3
 488 030c 0140A0E1 		bl	__extendsfdf2
 489 0310 0300A0E1 		mov	r3, r0
 490 0314 0410A0E1 		mov	r4, r1
 491 0318 FEFFFFEB 		mov	r0, r3
 492 031c 0020A0E1 		mov	r1, r4
 493 0320 D8309FE5 		adr	r2, .L18
 494 0324 242083E5 		ldmia	r2, {r2-r3}
 165:lab.c         **** 			mocap.dVz = (mocap.dZ - previousZMeas)/0.02;
 495              	mov	r4, r1
 496 0328 D0309FE5 		mov	r0, r3
 497 032c 102093E5 		mov	r1, r4
 498 0330 D4309FE5 		bl	__truncdfsf2
 499 0334 003093E5 		mov	r2, r0
 500 0338 0200A0E1 		ldr	r3, .L18+8
 501 033c 0310A0E1 		str	r2, [r3, #40]	@ float
 502 0340 FEFFFFEB 		.loc 1 168 0
 503 0344 0030A0E1 		ldr	r3, .L18+8
 504 0348 0300A0E1 		ldr	r2, [r3, #8]	@ float
 505 034c FEFFFFEB 		ldr	r3, .L18+8
 506 0350 0030A0E1 		str	r2, [r3, #8]	@ float
 507 0354 0140A0E1 		.loc 1 169 0
 508 0358 0300A0E1 		ldr	r3, .L18+8
 509 035c 0410A0E1 		ldr	r2, [r3, #12]	@ float
 510 0360 90208FE2 		ldr	r3, .L18+8
 511 0364 0C0092E8 		str	r2, [r3, #12]	@ float
 512 0368 FEFFFFEB 		.loc 1 170 0
 513 036c 0030A0E1 		ldr	r3, .L18+8
 514 0370 0140A0E1 		ldr	r2, [r3, #16]	@ float
 515 0374 0300A0E1 		ldr	r3, .L18+8
 516 0378 0410A0E1 		str	r2, [r3, #16]	@ float
 517 037c FEFFFFEB 	.L9:
 518 0380 0020A0E1 		.loc 1 176 0
 519 0384 74309FE5 		ldr	r3, .L18+8
 520 0388 282083E5 		ldr	r2, [r3, #8]	@ float
 166:lab.c         **** 
 167:lab.c         **** 			// Set Position
 168:lab.c         **** 			mocap.dX = mocap.dX;
 521              	[r3, #0]	@ float
 522 038c 6C309FE5 		.loc 1 177 0
 523 0390 082093E5 		ldr	r3, .L18+8
 524 0394 64309FE5 		ldr	r2, [r3, #12]	@ float
 525 0398 082083E5 		ldr	r3, .L18+16
 169:lab.c         **** 			mocap.dY = mocap.dY;
 526              	r2, [r3, #0]	@ float
 527 039c 5C309FE5 		.loc 1 178 0
 528 03a0 0C2093E5 		ldr	r3, .L18+8
 529 03a4 54309FE5 		ldr	r2, [r3, #16]	@ float
 530 03a8 0C2083E5 		ldr	r3, .L18+20
 170:lab.c         **** 			mocap.dZ = mocap.dZ;
 531              	r2, [r3, #0]	@ float
 532 03ac 4C309FE5 		.loc 1 180 0
 533 03b0 102093E5 		sub	sp, fp, #16
 534 03b4 44309FE5 		ldmfd	sp, {r4, fp, sp, lr}
 535 03b8 102083E5 		bx	lr
 536              	.L19:
 171:lab.c         **** 
 172:lab.c         **** 			/*--- End Low Pass Filtering ---*/
 173:lab.c         **** 		}
 174:lab.c         **** 	}
 175:lab.c         **** 	// Save Current MoCap Measurement as Previous Measurement
 176:lab.c         **** 	previousXMeas = mocap.dX;
 537              	n	2
 538 03bc 3C309FE5 	.L18:
 539 03c0 082093E5 		.word	1066695393
 540 03c4 38309FE5 		.word	1202590843
 541 03c8 002083E5 		.word	mocap
 177:lab.c         **** 	previousYMeas = mocap.dY;
 542              	d	previousXMeas
 543 03cc 2C309FE5 		.word	previousYMeas
 544 03d0 0C2093E5 		.word	previousZMeas
 545 03d4 2C309FE5 		.word	numCMDs
 546 03d8 002083E5 		.word	LED1count
 178:lab.c         **** 	previousZMeas = mocap.dZ;
 547              	d	1717986919
 548 03dc 1C309FE5 		.word	LED1toggle
 549 03e0 102093E5 		.word	initialize
 550 03e4 20309FE5 		.word	0
 551 03e8 002083E5 	.LFE3:
 179:lab.c         **** 
 180:lab.c         **** }
 552              	e	do_sensor_fusion, .-do_sensor_fusion
 553 03ec 10D04BE2 		.global	LED0timeCount
 554 03f0 10689DE8 		.bss
 555 03f4 1EFF2FE1 		.align	2
 558              	LED0timeCount:
 559 03f8 E17A943F 		.space	4
 560 03fc 7B14AE47 		.global	LED0toggle
 561 0400 00000000 		.align	2
 564 040c 00000000 	LED0toggle:
 565 0410 00000000 		.space	4
 566 0414 00000000 		.section	.rodata
 567 0418 67666666 		.align	2
 570 0424 00000000 	C.26.3315:
 571              		.space	12
 572              		.global	__mulsf3
 573              		.global	__muldf3
 574              		.global	__subdf3
 575              		.global	__divsf3
 576              		.global	__addsf3
 577              		.text
 578              		.align	2
 579 0034 00000000 		.global	lab3
 581              	lab3:
 582              	.LFB4:
 583              		.loc 1 190 0
 584              		@ Function supports interworking.
 585 0038 00000000 		@ args = 0, pretend = 0, frame = 156
 586              		@ frame_needed = 1, uses_anonymous_args = 0
 587              		mov	ip, sp
 588              	.LCFI7:
 589              		stmfd	sp!, {r4, r5, r6, r7, r8, r9, sl, fp, ip, lr, pc}
 590              	.LCFI8:
 591 0000 00000000 		sub	fp, ip, #4
 591      00000000 
 591      00000000 
 592              	.LCFI9:
 593              		sub	sp, sp, #164
 594              	.LCFI10:
 595              		.loc 1 196 0
 596              		ldr	r3, .L28+4
 597              		ldr	r3, [r3, #0]
 598              		cmp	r3, #250
 599              		bne	.L21
 600              		.loc 1 197 0
 601              		ldr	r2, .L28+4
 602              		mov	r3, #0
 181:lab.c         **** 
 182:lab.c         **** /*-------- End Velocity Estimator --------*/
 183:lab.c         **** 
 184:lab.c         **** 
 185:lab.c         **** 
 186:lab.c         **** /*-------------- Controller --------------*/
 187:lab.c         **** int LED0timeCount = 0;
 188:lab.c         **** int LED0toggle = 0;
 189:lab.c         **** 
 190:lab.c         **** void lab3() {
 603              	r3, [r3, #0]
 604              		cmp	r3, #0
 605              		bne	.L23
 606              		.loc 1 199 0
 607 0428 0DC0A0E1 		mov	r0, #0
 608              		mov	r1, #0
 609 042c F0DF2DE9 		bl	LED
 610              		.loc 1 200 0
 611 0430 04B04CE2 		ldr	r2, .L28
 612              		mov	r3, #1
 613 0434 A4D04DE2 		str	r3, [r2, #0]
 614              		b	.L21
 191:lab.c         **** 
 192:lab.c         ****     ////////////////////////
 193:lab.c         ****     // DO NOT MODIFY
 194:lab.c         ****     //
 195:lab.c         ****     // Turn LEDs on and off for diagnostics
 196:lab.c         **** 	if (LED0timeCount == 250) {
 615              	n	2
 616 0438 44309FE5 	.L28:
 617 043c 003093E5 		.word	LED0toggle
 618 0440 FA0053E3 		.word	LED0timeCount
 619 0444 2300001A 		.word	mocap
 197:lab.c         **** 		LED0timeCount = 0;
 620              	d	imusensor
 621 0448 34209FE5 		.word	goalposyaw
 622 044c 0030A0E3 		.word	0
 623 0450 003082E5 		.word	p_eq
 198:lab.c         **** 		if (LED0toggle == 0) {
 624              	rd	q_eq
 625 0454 24309FE5 		.word	r_eq
 626 0458 003093E5 		.word	outter_count
 627 045c 000053E3 		.word	1717986919
 628 0460 1600001A 		.word	K_d
 199:lab.c         **** 			LED(0,OFF);
 629              	d	xe
 630 0464 0000A0E3 		.word	K_p
 631 0468 0010A0E3 		.word	g
 632 046c FEFFFFEB 		.word	xd
 200:lab.c         **** 			LED0toggle = 1;
 633              	:
 634 0470 08209FE5 		.loc 1 202 0
 635 0474 0130A0E3 		mov	r0, #0
 636 0478 003082E5 		mov	r1, #1
 637 047c 150000EA 		bl	LED
 638              		.loc 1 203 0
 639              		ldr	r2, .L28
 640              		mov	r3, #0
 641 0480 00000000 		str	r3, [r2, #0]
 642 0484 00000000 	.L21:
 643 0488 00000000 		.loc 1 206 0
 644 048c 00000000 		ldr	r3, .L28+4
 645 0490 00000000 		ldr	r3, [r3, #0]
 646 0494 00000000 		add	r2, r3, #1
 647 0498 00000000 		ldr	r3, .L28+4
 648 049c 00000000 		str	r2, [r3, #0]
 649 04a0 00000000 		.loc 1 233 0
 650 04a4 00000000 		ldr	r3, .L28+8
 651 04a8 67666666 		ldr	r2, [r3, #8]	@ float
 652 04ac 00000000 		ldr	r3, .L28+60
 653 04b0 00000000 		str	r2, [r3, #0]	@ float
 654 04b4 00000000 		.loc 1 234 0
 655 04b8 00000000 		ldr	r3, .L28+8
 656 04bc 00000000 		ldr	r2, [r3, #12]	@ float
 657              		ldr	r3, .L28+60
 201:lab.c         **** 		} else {
 202:lab.c         **** 			LED(0,ON);
 658              	
 659 04c0 0000A0E3 		.loc 1 235 0
 660 04c4 0110A0E3 		ldr	r3, .L28+8
 661 04c8 FEFFFFEB 		ldr	r2, [r3, #16]	@ float
 203:lab.c         **** 			LED0toggle = 0;
 662              	r	r3, .L28+60
 663 04cc 54201FE5 		str	r2, [r3, #8]	@ float
 664 04d0 0030A0E3 		.loc 1 236 0
 665 04d4 003082E5 		ldr	r3, .L28+8
 666              		ldr	r2, [r3, #28]	@ float
 204:lab.c         **** 		}
 205:lab.c         **** 	}
 206:lab.c         **** 	LED0timeCount++;
 667              	r3, .L28+60
 668 04d8 5C301FE5 		str	r2, [r3, #12]	@ float
 669 04dc 003093E5 		.loc 1 237 0
 670 04e0 012083E2 		ldr	r3, .L28+12
 671 04e4 68301FE5 		ldr	r2, [r3, #8]	@ float
 672 04e8 002083E5 		ldr	r3, .L28+60
 207:lab.c         ****     //
 208:lab.c         ****     ////////////////////////
 209:lab.c         **** 
 210:lab.c         ****     // Compute: xd = x - xe
 211:lab.c         ****     //
 212:lab.c         ****     //  xd, a 12x1 matrix, is represented in C code as a float array of length 12
 213:lab.c         ****     //  If you order states as o, theta, v, w, then:
 214:lab.c         ****     //      xd[0] is o1 - o1e
 215:lab.c         ****     //      xd[1] is o2 - o2e
 216:lab.c         ****     //      ...
 217:lab.c         ****     //      xd[11] is w3 - w3e
 218:lab.c         ****     //
 219:lab.c         ****     //  measurement of o:
 220:lab.c         ****     //      mocap.dX, mocap.dY, mocap.dZ
 221:lab.c         ****     //  measurement of theta:
 222:lab.c         ****     //      mocap.dThetaz, imusensor.dThetay, imusensor.dThetax
 223:lab.c         ****     //  measurement of v:
 224:lab.c         ****     //      mocap.dVx, mocap.dVy, mocap.dVz
 225:lab.c         ****     //  measurement of w:
 226:lab.c         ****     //      imusensor.dOmegax, imusensor.dOmegay, imusensor.dOmegaz
 227:lab.c         ****     //
 228:lab.c         ****     // CHANGE!!!
 229:lab.c         **** 
 230:lab.c         **** 
 231:lab.c         **** 
 232:lab.c         **** 
 233:lab.c         ****     xd[0] = mocap.dX;
 673              	2, [r3, #16]	@ float
 674 04ec 6C301FE5 		.loc 1 238 0
 675 04f0 082093E5 		ldr	r3, .L28+12
 676 04f4 40301FE5 		ldr	r2, [r3, #4]	@ float
 677 04f8 002083E5 		ldr	r3, .L28+60
 234:lab.c         ****     xd[1] = mocap.dY;
 678              	r2, [r3, #20]	@ float
 679 04fc 7C301FE5 		.loc 1 239 0
 680 0500 0C2093E5 		ldr	r3, .L28+8
 681 0504 50301FE5 		ldr	r2, [r3, #32]	@ float
 682 0508 042083E5 		ldr	r3, .L28+60
 235:lab.c         ****     xd[2] = mocap.dZ;
 683              	r2, [r3, #24]	@ float
 684 050c 8C301FE5 		.loc 1 240 0
 685 0510 102093E5 		ldr	r3, .L28+8
 686 0514 60301FE5 		ldr	r2, [r3, #36]	@ float
 687 0518 082083E5 		ldr	r3, .L28+60
 236:lab.c         ****     xd[3] =  mocap.dThetaz;
 688              	r2, [r3, #28]	@ float
 689 051c 9C301FE5 		.loc 1 241 0
 690 0520 1C2093E5 		ldr	r3, .L28+8
 691 0524 70301FE5 		ldr	r2, [r3, #40]	@ float
 692 0528 0C2083E5 		ldr	r3, .L28+60
 237:lab.c         ****     xd[4] =  imusensor.dThetay;
 693              	r2, [r3, #32]	@ float
 694 052c A8301FE5 		.loc 1 242 0
 695 0530 082093E5 		ldr	r3, .L28+12
 696 0534 80301FE5 		ldr	r2, [r3, #28]	@ float
 697 0538 102083E5 		ldr	r3, .L28+60
 238:lab.c         ****     xd[5] =  imusensor.dThetax;
 698              	r2, [r3, #36]	@ float
 699 053c B8301FE5 		.loc 1 243 0
 700 0540 042093E5 		ldr	r3, .L28+12
 701 0544 90301FE5 		ldr	r2, [r3, #32]	@ float
 702 0548 142083E5 		ldr	r3, .L28+60
 239:lab.c         ****     xd[6] = mocap.dVx;
 703              	r2, [r3, #40]	@ float
 704 054c CC301FE5 		.loc 1 244 0
 705 0550 202093E5 		ldr	r3, .L28+12
 706 0554 A0301FE5 		ldr	r2, [r3, #36]	@ float
 707 0558 182083E5 		ldr	r3, .L28+60
 240:lab.c         ****     xd[7] = mocap.dVy;
 708              	r2, [r3, #44]	@ float
 709 055c DC301FE5 		.loc 1 246 0
 710 0560 242093E5 		ldr	r3, .L28+16
 711 0564 B0301FE5 		ldr	r2, [r3, #0]	@ float
 712 0568 1C2083E5 		ldr	r3, .L28+48
 241:lab.c         ****     xd[8] = mocap.dVz;
 713              	r2, [r3, #0]	@ float
 714 056c EC301FE5 		.loc 1 247 0
 715 0570 282093E5 		ldr	r3, .L28+16
 716 0574 C0301FE5 		ldr	r2, [r3, #4]	@ float
 717 0578 202083E5 		ldr	r3, .L28+48
 242:lab.c         ****     xd[9] = imusensor.dOmegax;
 718              	r2, [r3, #4]	@ float
 719 057c F8301FE5 		.loc 1 248 0
 720 0580 1C2093E5 		ldr	r3, .L28+16
 721 0584 D0301FE5 		ldr	r2, [r3, #8]	@ float
 722 0588 242083E5 		ldr	r3, .L28+48
 243:lab.c         ****     xd[10] = imusensor.dOmegay;
 723              	r2, [r3, #8]	@ float
 724 058c 08311FE5 		.loc 1 249 0
 725 0590 202093E5 		ldr	r2, .L28+48
 726 0594 E0301FE5 		ldr	r3, .L28+20	@ float
 727 0598 282083E5 		str	r3, [r2, #12]	@ float
 244:lab.c         ****     xd[11] = imusensor.dOmegaz;
 728              	 1 250 0
 729 059c 18311FE5 		ldr	r2, .L28+48
 730 05a0 242093E5 		ldr	r3, .L28+20	@ float
 731 05a4 F0301FE5 		str	r3, [r2, #16]	@ float
 732 05a8 2C2083E5 		.loc 1 251 0
 245:lab.c         **** 
 246:lab.c         ****     xe[0] = goalposyaw.x;
 733              	r2, .L28+48
 734 05ac 24311FE5 		ldr	r3, .L28+20	@ float
 735 05b0 002093E5 		str	r3, [r2, #20]	@ float
 736 05b4 0C311FE5 		.loc 1 252 0
 737 05b8 002083E5 		ldr	r2, .L28+48
 247:lab.c         **** 	xe[1] = goalposyaw.y;
 738              	r3, .L28+20	@ float
 739 05bc 34311FE5 		str	r3, [r2, #24]	@ float
 740 05c0 042093E5 		.loc 1 253 0
 741 05c4 1C311FE5 		ldr	r2, .L28+48
 742 05c8 042083E5 		ldr	r3, .L28+20	@ float
 248:lab.c         **** 	xe[2] = goalposyaw.z;
 743              	r3, [r2, #28]	@ float
 744 05cc 44311FE5 		.loc 1 254 0
 745 05d0 082093E5 		ldr	r2, .L28+48
 746 05d4 2C311FE5 		ldr	r3, .L28+20	@ float
 747 05d8 082083E5 		str	r3, [r2, #32]	@ float
 249:lab.c         **** 	xe[3] = 0.0;
 748              	 1 255 0
 749 05dc 34211FE5 		ldr	r3, .L28+24
 750 05e0 54311FE5 		ldr	r2, [r3, #0]	@ float
 751 05e4 0C3082E5 		ldr	r3, .L28+48
 250:lab.c         **** 	xe[4] = 0.0;
 752              		r2, [r3, #36]	@ float
 753 05e8 40211FE5 		.loc 1 256 0
 754 05ec 60311FE5 		ldr	r3, .L28+28
 755 05f0 103082E5 		ldr	r2, [r3, #0]	@ float
 251:lab.c         **** 	xe[5] = 0.0;
 756              		r3, .L28+48
 757 05f4 4C211FE5 		str	r2, [r3, #40]	@ float
 758 05f8 6C311FE5 		.loc 1 257 0
 759 05fc 143082E5 		ldr	r3, .L28+32
 252:lab.c         **** 	xe[6] = 0.0;
 760              		r2, [r3, #0]	@ float
 761 0600 58211FE5 		ldr	r3, .L28+48
 762 0604 78311FE5 		str	r2, [r3, #44]	@ float
 763 0608 183082E5 		.loc 1 275 0
 253:lab.c         **** 	xe[7] = 0.0;
 764              		r3, .L28+36
 765 060c 64211FE5 		ldr	r3, [r3, #0]
 766 0610 84311FE5 		add	r2, r3, #1
 767 0614 1C3082E5 		ldr	r3, .L28+36
 254:lab.c         **** 	xe[8] = 0.0;
 768              		r2, [r3, #0]
 769 0618 70211FE5 		.loc 1 276 0
 770 061c 90311FE5 		ldr	r3, .L28+36
 771 0620 203082E5 		ldr	r1, [r3, #0]
 255:lab.c         **** 	xe[9] = p_eq;
 772              		r3, .L28+40
 773 0624 94311FE5 		smull	r2, r3, r1, r3
 774 0628 002093E5 		mov	r2, r3, asr #3
 775 062c 84311FE5 		mov	r3, r1, asr #31
 776 0630 242083E5 		rsb	r2, r3, r2
 256:lab.c         **** 	xe[10] = q_eq;
 777              	r2, [fp, #-196]
 778 0634 A0311FE5 		ldr	r3, [fp, #-196]
 779 0638 002093E5 		mov	r3, r3, asl #2
 780 063c 94311FE5 		ldr	r2, [fp, #-196]
 781 0640 282083E5 		add	r3, r3, r2
 257:lab.c         **** 	xe[11] = r_eq;
 782              	r3, r3, asl #2
 783 0644 AC311FE5 		rsb	r1, r3, r1
 784 0648 002093E5 		str	r1, [fp, #-196]
 785 064c A4311FE5 		ldr	r3, [fp, #-196]
 786 0650 2C2083E5 		cmp	r3, #0
 258:lab.c         **** 
 259:lab.c         **** 
 260:lab.c         **** 
 261:lab.c         ****     //////////////////////////////////////////////////////
 262:lab.c         ****     // Start the outer loop this defines 2 parameters from
 263:lab.c         ****     // state variables that the inner loop seeks to match.
 264:lab.c         ****     //
 265:lab.c         ****     // Target orientation vector defined in
 266:lab.c         ****     // room frame and rotated to body frame:
 267:lab.c         ****     // n_des = [nx ny nz];
 268:lab.c         ****     //
 269:lab.c         ****     // Target total force:
 270:lab.c         ****     // fsum_des
 271:lab.c         ****     //
 272:lab.c         ****     // Pass to inner loop to control the quadcopter
 273:lab.c         ****     //
 274:lab.c         ****     //////////////////////////////////////////////////////
 275:lab.c         ****     outter_count++;
 787              	.L25
 788 0654 B8311FE5 	.LBB2:
 789 0658 003093E5 		.loc 1 278 0
 790 065c 012083E2 		ldr	r3, .L28+44
 791 0660 C4311FE5 		ldr	r3, [r3, #0]	@ float
 792 0664 002083E5 		eor	r4, r3, #-2147483648
 276:lab.c         **** if (outter_count%20==0) {
 793              	3, .L28+60
 794 0668 CC311FE5 		ldr	r2, [r3, #24]	@ float
 795 066c 001093E5 		ldr	r3, .L28+48
 796 0670 D0311FE5 		ldr	r3, [r3, #24]	@ float
 797 0674 9123C3E0 		mov	r0, r2
 798 0678 C321A0E1 		mov	r1, r3
 799 067c C13FA0E1 		bl	__subsf3
 800 0680 022063E0 		mov	r3, r0
 801 0684 C4200BE5 		mov	r0, r4
 802 0688 C4301BE5 		mov	r1, r3
 803 068c 0331A0E1 		bl	__mulsf3
 804 0690 C4201BE5 		mov	r3, r0
 805 0694 023083E0 		mov	r4, r3
 806 0698 0331A0E1 		ldr	r3, .L28+60
 807 069c 011063E0 		ldr	r2, [r3, #0]	@ float
 808 06a0 C4100BE5 		ldr	r3, .L28+48
 809 06a4 C4301BE5 		ldr	r3, [r3, #0]	@ float
 810 06a8 000053E3 		mov	r0, r2
 811 06ac 7316001A 		mov	r1, r3
 812              		bl	__subsf3
 277:lab.c         ****     float a_desired[3];
 278:lab.c         ****     a_desired[0] = -K_d*(xd[6]-xe[6]) -K_p*(xd[0]-xe[0]);
 813              	 r3
 814 06b0 0C321FE5 		ldr	r3, .L28+52
 815 06b4 003093E5 		ldr	r3, [r3, #0]	@ float
 816 06b8 024123E2 		mov	r0, r2
 817 06bc 08321FE5 		mov	r1, r3
 818 06c0 182093E5 		bl	__mulsf3
 819 06c4 1C321FE5 		mov	r3, r0
 820 06c8 183093E5 		mov	r0, r4
 821 06cc 0200A0E1 		mov	r1, r3
 822 06d0 0310A0E1 		bl	__subsf3
 823 06d4 FEFFFFEB 		mov	r3, r0
 824 06d8 0030A0E1 		str	r3, [fp, #-144]	@ float
 825 06dc 0400A0E1 		.loc 1 279 0
 826 06e0 0310A0E1 		ldr	r3, .L28+44
 827 06e4 FEFFFFEB 		ldr	r3, [r3, #0]	@ float
 828 06e8 0030A0E1 		eor	r4, r3, #-2147483648
 829 06ec 0340A0E1 		ldr	r3, .L28+60
 830 06f0 3C321FE5 		ldr	r2, [r3, #28]	@ float
 831 06f4 002093E5 		ldr	r3, .L28+48
 832 06f8 50321FE5 		ldr	r3, [r3, #28]	@ float
 833 06fc 003093E5 		mov	r0, r2
 834 0700 0200A0E1 		mov	r1, r3
 835 0704 0310A0E1 		bl	__subsf3
 836 0708 FEFFFFEB 		mov	r3, r0
 837 070c 0030A0E1 		mov	r0, r4
 838 0710 0320A0E1 		mov	r1, r3
 839 0714 68321FE5 		bl	__mulsf3
 840 0718 003093E5 		mov	r3, r0
 841 071c 0200A0E1 		mov	r4, r3
 842 0720 0310A0E1 		ldr	r3, .L28+60
 843 0724 FEFFFFEB 		ldr	r2, [r3, #4]	@ float
 844 0728 0030A0E1 		ldr	r3, .L28+48
 845 072c 0400A0E1 		ldr	r3, [r3, #4]	@ float
 846 0730 0310A0E1 		mov	r0, r2
 847 0734 FEFFFFEB 		mov	r1, r3
 848 0738 0030A0E1 		bl	__subsf3
 849 073c 90300BE5 		mov	r3, r0
 279:lab.c         **** 	a_desired[1] = -K_d*(xd[7]-xe[7]) -K_p*(xd[1]-xe[1]);
 850              	 [r3, #0]	@ float
 851 0740 9C321FE5 		mov	r0, r2
 852 0744 003093E5 		mov	r1, r3
 853 0748 024123E2 		bl	__mulsf3
 854 074c 98321FE5 		mov	r3, r0
 855 0750 1C2093E5 		mov	r0, r4
 856 0754 AC321FE5 		mov	r1, r3
 857 0758 1C3093E5 		bl	__subsf3
 858 075c 0200A0E1 		mov	r3, r0
 859 0760 0310A0E1 		str	r3, [fp, #-140]	@ float
 860 0764 FEFFFFEB 		.loc 1 280 0
 861 0768 0030A0E1 		ldr	r3, .L28+44
 862 076c 0400A0E1 		ldr	r3, [r3, #0]	@ float
 863 0770 0310A0E1 		eor	r4, r3, #-2147483648
 864 0774 FEFFFFEB 		ldr	r3, .L28+60
 865 0778 0030A0E1 		ldr	r2, [r3, #32]	@ float
 866 077c 0340A0E1 		ldr	r3, .L28+48
 867 0780 CC321FE5 		ldr	r3, [r3, #32]	@ float
 868 0784 042093E5 		mov	r0, r2
 869 0788 E0321FE5 		mov	r1, r3
 870 078c 043093E5 		bl	__subsf3
 871 0790 0200A0E1 		mov	r3, r0
 872 0794 0310A0E1 		mov	r0, r4
 873 0798 FEFFFFEB 		mov	r1, r3
 874 079c 0030A0E1 		bl	__mulsf3
 875 07a0 0320A0E1 		mov	r3, r0
 876 07a4 F8321FE5 		mov	r4, r3
 877 07a8 003093E5 		ldr	r3, .L28+60
 878 07ac 0200A0E1 		ldr	r2, [r3, #8]	@ float
 879 07b0 0310A0E1 		ldr	r3, .L28+48
 880 07b4 FEFFFFEB 		ldr	r3, [r3, #8]	@ float
 881 07b8 0030A0E1 		mov	r0, r2
 882 07bc 0400A0E1 		mov	r1, r3
 883 07c0 0310A0E1 		bl	__subsf3
 884 07c4 FEFFFFEB 		mov	r3, r0
 885 07c8 0030A0E1 		mov	r2, r3
 886 07cc 8C300BE5 		ldr	r3, .L28+52
 280:lab.c         **** 	a_desired[2] = -K_d*(xd[8]-xe[8]) -K_p*(xd[2]-xe[2])-g;
 887              	
 888 07d0 2C331FE5 		mov	r1, r3
 889 07d4 003093E5 		bl	__mulsf3
 890 07d8 024123E2 		mov	r3, r0
 891 07dc 28331FE5 		mov	r0, r4
 892 07e0 202093E5 		mov	r1, r3
 893 07e4 3C331FE5 		bl	__subsf3
 894 07e8 203093E5 		mov	r3, r0
 895 07ec 0200A0E1 		mov	r2, r3
 896 07f0 0310A0E1 		ldr	r3, .L28+56
 897 07f4 FEFFFFEB 		ldr	r3, [r3, #0]	@ float
 898 07f8 0030A0E1 		mov	r0, r2
 899 07fc 0400A0E1 		mov	r1, r3
 900 0800 0310A0E1 		bl	__subsf3
 901 0804 FEFFFFEB 		mov	r3, r0
 902 0808 0030A0E1 		str	r3, [fp, #-136]	@ float
 903 080c 0340A0E1 		.loc 1 283 0
 904 0810 5C331FE5 		ldr	r3, .L28+60
 905 0814 082093E5 		ldr	r3, [r3, #12]	@ float
 906 0818 70331FE5 		str	r3, [fp, #-52]	@ float
 907 081c 083093E5 		.loc 1 284 0
 908 0820 0200A0E1 		ldr	r3, .L28+60
 909 0824 0310A0E1 		ldr	r3, [r3, #16]	@ float
 910 0828 FEFFFFEB 		str	r3, [fp, #-48]	@ float
 911 082c 0030A0E1 		.loc 1 285 0
 912 0830 0320A0E1 		ldr	r3, .L28+60
 913 0834 88331FE5 		ldr	r3, [r3, #20]	@ float
 914 0838 003093E5 		str	r3, [fp, #-44]	@ float
 915 083c 0200A0E1 		.loc 1 300 0
 916 0840 0310A0E1 		ldr	r0, [fp, #-52]	@ float
 917 0844 FEFFFFEB 		bl	__extendsfdf2
 918 0848 0030A0E1 		mov	r3, r0
 919 084c 0400A0E1 		mov	r4, r1
 920 0850 0310A0E1 		mov	r0, r3
 921 0854 FEFFFFEB 		mov	r1, r4
 922 0858 0030A0E1 		bl	cos
 923 085c 0320A0E1 		mov	r5, r0
 924 0860 B0331FE5 		mov	r6, r1
 925 0864 003093E5 		ldr	r0, [fp, #-48]	@ float
 926 0868 0200A0E1 		bl	__extendsfdf2
 927 086c 0310A0E1 		mov	r3, r0
 928 0870 FEFFFFEB 		mov	r4, r1
 929 0874 0030A0E1 		mov	r0, r3
 930 0878 88300BE5 		mov	r1, r4
 281:lab.c         **** 
 282:lab.c         **** 
 283:lab.c         **** 	float th1 = xd[3];
 931              	
 932 087c C8331FE5 		mov	r1, r6
 933 0880 0C3093E5 		mov	r2, r3
 934 0884 34300BE5 		mov	r3, r4
 284:lab.c         **** 	float th2 = xd[4];
 935              		__muldf3
 936 0888 D4331FE5 		mov	r3, r0
 937 088c 103093E5 		mov	r4, r1
 938 0890 30300BE5 		mov	r7, r3
 285:lab.c         **** 	float th3 = xd[5];
 939              		r8, r4
 940 0894 E0331FE5 		ldr	r0, [fp, #-52]	@ float
 941 0898 143093E5 		bl	__extendsfdf2
 942 089c 2C300BE5 		mov	r3, r0
 286:lab.c         **** 
 287:lab.c         **** 	float Rinv[9];
 288:lab.c         **** 	/*
 289:lab.c         **** 	Rinv[0] = (cos(xd[3])*cos(xd[4]))/(cos(xd[3])*cos(xd[3])*cos(xd[4])*cos(xd[4]) + cos(xd[3])*cos(xd
 290:lab.c         **** 	Rinv[1] = (cos(xd[4])*sin(xd[3]))/(cos(xd[3])*cos(xd[3])*cos(xd[4])*cos(xd[4]) + cos(xd[3])*cos(xd
 291:lab.c         **** 	Rinv[2] = -sin(xd[4])/(cos(xd[4])*cos(xd[4]) + sin(xd[4])*sin(xd[4]));
 292:lab.c         **** 	Rinv[3] = -(cos(xd[4])*cos(xd[4])*cos(xd[5])*sin(xd[3]) - cos(xd[3])*sin(xd[4])*sin(xd[5]) + cos(x
 293:lab.c         **** 	Rinv[4] = (cos(xd[3])*cos(xd[5])*cos(xd[4])*cos(xd[4]) + cos(xd[3])*cos(xd[5])*sin(xd[4])*sin(xd[4
 294:lab.c         **** 	Rinv[5] = (cos(xd[4])*sin(xd[5]))/(cos(xd[4])*cos(xd[4])*cos(xd[5])*cos(xd[5]) + cos(xd[4])*cos(xd
 295:lab.c         **** 	Rinv[6] = (sin(xd[3])*sin(xd[5])*cos(xd[4])*cos(xd[4]) + sin(xd[3])*sin(xd[5])*sin(xd[4])*sin(xd[4
 296:lab.c         **** 	Rinv[7] = -(cos(xd[3])*cos(xd[4])*cos(xd[4])*sin(xd[5]) - cos(xd[5])*sin(xd[3])*sin(xd[4]) + cos(x
 297:lab.c         **** 	Rinv[8] = -(cos(xd[3])*cos(xd[4])*cos(xd[4])*sin(xd[5]) - cos(xd[5])*sin(xd[3])*sin(xd[4]) + cos(x
 298:lab.c         **** 	*/
 299:lab.c         **** 
 300:lab.c         **** 	Rinv[0] = (cos(th1)*cos(th2))/(cos(th1)*cos(th1)*cos(th2)*cos(th2) + cos(th1)*cos(th1)*sin(th2)*si
 943              		r4, r1
 944 08a0 34001BE5 		mov	r0, r3
 945 08a4 FEFFFFEB 		mov	r1, r4
 946 08a8 0030A0E1 		bl	cos
 947 08ac 0140A0E1 		mov	r5, r0
 948 08b0 0300A0E1 		mov	r6, r1
 949 08b4 0410A0E1 		ldr	r0, [fp, #-52]	@ float
 950 08b8 FEFFFFEB 		bl	__extendsfdf2
 951 08bc 0050A0E1 		mov	r3, r0
 952 08c0 0160A0E1 		mov	r4, r1
 953 08c4 30001BE5 		mov	r0, r3
 954 08c8 FEFFFFEB 		mov	r1, r4
 955 08cc 0030A0E1 		bl	cos
 956 08d0 0140A0E1 		mov	r3, r0
 957 08d4 0300A0E1 		mov	r4, r1
 958 08d8 0410A0E1 		mov	r0, r5
 959 08dc FEFFFFEB 		mov	r1, r6
 960 08e0 0030A0E1 		mov	r2, r3
 961 08e4 0140A0E1 		mov	r3, r4
 962 08e8 0500A0E1 		bl	__muldf3
 963 08ec 0610A0E1 		mov	r3, r0
 964 08f0 0320A0E1 		mov	r4, r1
 965 08f4 0430A0E1 		mov	r5, r3
 966 08f8 FEFFFFEB 		mov	r6, r4
 967 08fc 0030A0E1 		ldr	r0, [fp, #-48]	@ float
 968 0900 0140A0E1 		bl	__extendsfdf2
 969 0904 0370A0E1 		mov	r3, r0
 970 0908 0480A0E1 		mov	r4, r1
 971 090c 34001BE5 		mov	r0, r3
 972 0910 FEFFFFEB 		mov	r1, r4
 973 0914 0030A0E1 		bl	cos
 974 0918 0140A0E1 		mov	r3, r0
 975 091c 0300A0E1 		mov	r4, r1
 976 0920 0410A0E1 		mov	r0, r5
 977 0924 FEFFFFEB 		mov	r1, r6
 978 0928 0050A0E1 		mov	r2, r3
 979 092c 0160A0E1 		mov	r3, r4
 980 0930 34001BE5 		bl	__muldf3
 981 0934 FEFFFFEB 		mov	r3, r0
 982 0938 0030A0E1 		mov	r4, r1
 983 093c 0140A0E1 		mov	r5, r3
 984 0940 0300A0E1 		mov	r6, r4
 985 0944 0410A0E1 		ldr	r0, [fp, #-48]	@ float
 986 0948 FEFFFFEB 		bl	__extendsfdf2
 987 094c 0030A0E1 		mov	r3, r0
 988 0950 0140A0E1 		mov	r4, r1
 989 0954 0500A0E1 		mov	r0, r3
 990 0958 0610A0E1 		mov	r1, r4
 991 095c 0320A0E1 		bl	cos
 992 0960 0430A0E1 		mov	r3, r0
 993 0964 FEFFFFEB 		mov	r4, r1
 994 0968 0030A0E1 		mov	r0, r5
 995 096c 0140A0E1 		mov	r1, r6
 996 0970 0350A0E1 		mov	r2, r3
 997 0974 0460A0E1 		mov	r3, r4
 998 0978 30001BE5 		bl	__muldf3
 999 097c FEFFFFEB 		mov	r3, r0
 1000 0980 0030A0E1 		mov	r4, r1
 1001 0984 0140A0E1 		mov	r9, r3
 1002 0988 0300A0E1 		mov	sl, r4
 1003 098c 0410A0E1 		ldr	r0, [fp, #-52]	@ float
 1004 0990 FEFFFFEB 		bl	__extendsfdf2
 1005 0994 0030A0E1 		mov	r3, r0
 1006 0998 0140A0E1 		mov	r4, r1
 1007 099c 0500A0E1 		mov	r0, r3
 1008 09a0 0610A0E1 		mov	r1, r4
 1009 09a4 0320A0E1 		bl	cos
 1010 09a8 0430A0E1 		mov	r5, r0
 1011 09ac FEFFFFEB 		mov	r6, r1
 1012 09b0 0030A0E1 		ldr	r0, [fp, #-52]	@ float
 1013 09b4 0140A0E1 		bl	__extendsfdf2
 1014 09b8 0350A0E1 		mov	r3, r0
 1015 09bc 0460A0E1 		mov	r4, r1
 1016 09c0 30001BE5 		mov	r0, r3
 1017 09c4 FEFFFFEB 		mov	r1, r4
 1018 09c8 0030A0E1 		bl	cos
 1019 09cc 0140A0E1 		mov	r3, r0
 1020 09d0 0300A0E1 		mov	r4, r1
 1021 09d4 0410A0E1 		mov	r0, r5
 1022 09d8 FEFFFFEB 		mov	r1, r6
 1023 09dc 0030A0E1 		mov	r2, r3
 1024 09e0 0140A0E1 		mov	r3, r4
 1025 09e4 0500A0E1 		bl	__muldf3
 1026 09e8 0610A0E1 		mov	r3, r0
 1027 09ec 0320A0E1 		mov	r4, r1
 1028 09f0 0430A0E1 		mov	r5, r3
 1029 09f4 FEFFFFEB 		mov	r6, r4
 1030 09f8 0030A0E1 		ldr	r0, [fp, #-48]	@ float
 1031 09fc 0140A0E1 		bl	__extendsfdf2
 1032 0a00 0390A0E1 		mov	r3, r0
 1033 0a04 04A0A0E1 		mov	r4, r1
 1034 0a08 34001BE5 		mov	r0, r3
 1035 0a0c FEFFFFEB 		mov	r1, r4
 1036 0a10 0030A0E1 		bl	sin
 1037 0a14 0140A0E1 		mov	r3, r0
 1038 0a18 0300A0E1 		mov	r4, r1
 1039 0a1c 0410A0E1 		mov	r0, r5
 1040 0a20 FEFFFFEB 		mov	r1, r6
 1041 0a24 0050A0E1 		mov	r2, r3
 1042 0a28 0160A0E1 		mov	r3, r4
 1043 0a2c 34001BE5 		bl	__muldf3
 1044 0a30 FEFFFFEB 		mov	r3, r0
 1045 0a34 0030A0E1 		mov	r4, r1
 1046 0a38 0140A0E1 		mov	r5, r3
 1047 0a3c 0300A0E1 		mov	r6, r4
 1048 0a40 0410A0E1 		ldr	r0, [fp, #-48]	@ float
 1049 0a44 FEFFFFEB 		bl	__extendsfdf2
 1050 0a48 0030A0E1 		mov	r3, r0
 1051 0a4c 0140A0E1 		mov	r4, r1
 1052 0a50 0500A0E1 		mov	r0, r3
 1053 0a54 0610A0E1 		mov	r1, r4
 1054 0a58 0320A0E1 		bl	sin
 1055 0a5c 0430A0E1 		mov	r3, r0
 1056 0a60 FEFFFFEB 		mov	r4, r1
 1057 0a64 0030A0E1 		mov	r0, r5
 1058 0a68 0140A0E1 		mov	r1, r6
 1059 0a6c 0350A0E1 		mov	r2, r3
 1060 0a70 0460A0E1 		mov	r3, r4
 1061 0a74 30001BE5 		bl	__muldf3
 1062 0a78 FEFFFFEB 		mov	r3, r0
 1063 0a7c 0030A0E1 		mov	r4, r1
 1064 0a80 0140A0E1 		mov	r0, r9
 1065 0a84 0300A0E1 		mov	r1, sl
 1066 0a88 0410A0E1 		mov	r2, r3
 1067 0a8c FEFFFFEB 		mov	r3, r4
 1068 0a90 0030A0E1 		bl	__adddf3
 1069 0a94 0140A0E1 		mov	r3, r0
 1070 0a98 0500A0E1 		mov	r4, r1
 1071 0a9c 0610A0E1 		mov	r9, r3
 1072 0aa0 0320A0E1 		mov	sl, r4
 1073 0aa4 0430A0E1 		ldr	r0, [fp, #-48]	@ float
 1074 0aa8 FEFFFFEB 		bl	__extendsfdf2
 1075 0aac 0030A0E1 		mov	r3, r0
 1076 0ab0 0140A0E1 		mov	r4, r1
 1077 0ab4 0350A0E1 		mov	r0, r3
 1078 0ab8 0460A0E1 		mov	r1, r4
 1079 0abc 30001BE5 		bl	cos
 1080 0ac0 FEFFFFEB 		mov	r5, r0
 1081 0ac4 0030A0E1 		mov	r6, r1
 1082 0ac8 0140A0E1 		ldr	r0, [fp, #-48]	@ float
 1083 0acc 0300A0E1 		bl	__extendsfdf2
 1084 0ad0 0410A0E1 		mov	r3, r0
 1085 0ad4 FEFFFFEB 		mov	r4, r1
 1086 0ad8 0030A0E1 		mov	r0, r3
 1087 0adc 0140A0E1 		mov	r1, r4
 1088 0ae0 0500A0E1 		bl	cos
 1089 0ae4 0610A0E1 		mov	r3, r0
 1090 0ae8 0320A0E1 		mov	r4, r1
 1091 0aec 0430A0E1 		mov	r0, r5
 1092 0af0 FEFFFFEB 		mov	r1, r6
 1093 0af4 0030A0E1 		mov	r2, r3
 1094 0af8 0140A0E1 		mov	r3, r4
 1095 0afc 0900A0E1 		bl	__muldf3
 1096 0b00 0A10A0E1 		mov	r3, r0
 1097 0b04 0320A0E1 		mov	r4, r1
 1098 0b08 0430A0E1 		mov	r5, r3
 1099 0b0c FEFFFFEB 		mov	r6, r4
 1100 0b10 0030A0E1 		ldr	r0, [fp, #-52]	@ float
 1101 0b14 0140A0E1 		bl	__extendsfdf2
 1102 0b18 0390A0E1 		mov	r3, r0
 1103 0b1c 04A0A0E1 		mov	r4, r1
 1104 0b20 30001BE5 		mov	r0, r3
 1105 0b24 FEFFFFEB 		mov	r1, r4
 1106 0b28 0030A0E1 		bl	sin
 1107 0b2c 0140A0E1 		mov	r3, r0
 1108 0b30 0300A0E1 		mov	r4, r1
 1109 0b34 0410A0E1 		mov	r0, r5
 1110 0b38 FEFFFFEB 		mov	r1, r6
 1111 0b3c 0050A0E1 		mov	r2, r3
 1112 0b40 0160A0E1 		mov	r3, r4
 1113 0b44 30001BE5 		bl	__muldf3
 1114 0b48 FEFFFFEB 		mov	r3, r0
 1115 0b4c 0030A0E1 		mov	r4, r1
 1116 0b50 0140A0E1 		mov	r5, r3
 1117 0b54 0300A0E1 		mov	r6, r4
 1118 0b58 0410A0E1 		ldr	r0, [fp, #-52]	@ float
 1119 0b5c FEFFFFEB 		bl	__extendsfdf2
 1120 0b60 0030A0E1 		mov	r3, r0
 1121 0b64 0140A0E1 		mov	r4, r1
 1122 0b68 0500A0E1 		mov	r0, r3
 1123 0b6c 0610A0E1 		mov	r1, r4
 1124 0b70 0320A0E1 		bl	sin
 1125 0b74 0430A0E1 		mov	r3, r0
 1126 0b78 FEFFFFEB 		mov	r4, r1
 1127 0b7c 0030A0E1 		mov	r0, r5
 1128 0b80 0140A0E1 		mov	r1, r6
 1129 0b84 0350A0E1 		mov	r2, r3
 1130 0b88 0460A0E1 		mov	r3, r4
 1131 0b8c 34001BE5 		bl	__muldf3
 1132 0b90 FEFFFFEB 		mov	r3, r0
 1133 0b94 0030A0E1 		mov	r4, r1
 1134 0b98 0140A0E1 		mov	r0, r9
 1135 0b9c 0300A0E1 		mov	r1, sl
 1136 0ba0 0410A0E1 		mov	r2, r3
 1137 0ba4 FEFFFFEB 		mov	r3, r4
 1138 0ba8 0030A0E1 		bl	__adddf3
 1139 0bac 0140A0E1 		mov	r3, r0
 1140 0bb0 0500A0E1 		mov	r4, r1
 1141 0bb4 0610A0E1 		mov	r9, r3
 1142 0bb8 0320A0E1 		mov	sl, r4
 1143 0bbc 0430A0E1 		ldr	r0, [fp, #-52]	@ float
 1144 0bc0 FEFFFFEB 		bl	__extendsfdf2
 1145 0bc4 0030A0E1 		mov	r3, r0
 1146 0bc8 0140A0E1 		mov	r4, r1
 1147 0bcc 0350A0E1 		mov	r0, r3
 1148 0bd0 0460A0E1 		mov	r1, r4
 1149 0bd4 34001BE5 		bl	sin
 1150 0bd8 FEFFFFEB 		mov	r5, r0
 1151 0bdc 0030A0E1 		mov	r6, r1
 1152 0be0 0140A0E1 		ldr	r0, [fp, #-52]	@ float
 1153 0be4 0300A0E1 		bl	__extendsfdf2
 1154 0be8 0410A0E1 		mov	r3, r0
 1155 0bec FEFFFFEB 		mov	r4, r1
 1156 0bf0 0030A0E1 		mov	r0, r3
 1157 0bf4 0140A0E1 		mov	r1, r4
 1158 0bf8 0500A0E1 		bl	sin
 1159 0bfc 0610A0E1 		mov	r3, r0
 1160 0c00 0320A0E1 		mov	r4, r1
 1161 0c04 0430A0E1 		mov	r0, r5
 1162 0c08 FEFFFFEB 		mov	r1, r6
 1163 0c0c 0030A0E1 		mov	r2, r3
 1164 0c10 0140A0E1 		mov	r3, r4
 1165 0c14 0900A0E1 		bl	__muldf3
 1166 0c18 0A10A0E1 		mov	r3, r0
 1167 0c1c 0320A0E1 		mov	r4, r1
 1168 0c20 0430A0E1 		mov	r5, r3
 1169 0c24 FEFFFFEB 		mov	r6, r4
 1170 0c28 0030A0E1 		ldr	r0, [fp, #-48]	@ float
 1171 0c2c 0140A0E1 		bl	__extendsfdf2
 1172 0c30 0390A0E1 		mov	r3, r0
 1173 0c34 04A0A0E1 		mov	r4, r1
 1174 0c38 34001BE5 		mov	r0, r3
 1175 0c3c FEFFFFEB 		mov	r1, r4
 1176 0c40 0030A0E1 		bl	sin
 1177 0c44 0140A0E1 		mov	r3, r0
 1178 0c48 0300A0E1 		mov	r4, r1
 1179 0c4c 0410A0E1 		mov	r0, r5
 1180 0c50 FEFFFFEB 		mov	r1, r6
 1181 0c54 0050A0E1 		mov	r2, r3
 1182 0c58 0160A0E1 		mov	r3, r4
 1183 0c5c 34001BE5 		bl	__muldf3
 1184 0c60 FEFFFFEB 		mov	r3, r0
 1185 0c64 0030A0E1 		mov	r4, r1
 1186 0c68 0140A0E1 		mov	r5, r3
 1187 0c6c 0300A0E1 		mov	r6, r4
 1188 0c70 0410A0E1 		ldr	r0, [fp, #-48]	@ float
 1189 0c74 FEFFFFEB 		bl	__extendsfdf2
 1190 0c78 0030A0E1 		mov	r3, r0
 1191 0c7c 0140A0E1 		mov	r4, r1
 1192 0c80 0500A0E1 		mov	r0, r3
 1193 0c84 0610A0E1 		mov	r1, r4
 1194 0c88 0320A0E1 		bl	sin
 1195 0c8c 0430A0E1 		mov	r3, r0
 1196 0c90 FEFFFFEB 		mov	r4, r1
 1197 0c94 0030A0E1 		mov	r0, r5
 1198 0c98 0140A0E1 		mov	r1, r6
 1199 0c9c 0350A0E1 		mov	r2, r3
 1200 0ca0 0460A0E1 		mov	r3, r4
 1201 0ca4 30001BE5 		bl	__muldf3
 1202 0ca8 FEFFFFEB 		mov	r3, r0
 1203 0cac 0030A0E1 		mov	r4, r1
 1204 0cb0 0140A0E1 		mov	r0, r9
 1205 0cb4 0300A0E1 		mov	r1, sl
 1206 0cb8 0410A0E1 		mov	r2, r3
 1207 0cbc FEFFFFEB 		mov	r3, r4
 1208 0cc0 0030A0E1 		bl	__adddf3
 1209 0cc4 0140A0E1 		mov	r3, r0
 1210 0cc8 0500A0E1 		mov	r4, r1
 1211 0ccc 0610A0E1 		mov	r0, r7
 1212 0cd0 0320A0E1 		mov	r1, r8
 1213 0cd4 0430A0E1 		mov	r2, r3
 1214 0cd8 FEFFFFEB 		mov	r3, r4
 1215 0cdc 0030A0E1 		bl	__divdf3
 1216 0ce0 0140A0E1 		mov	r3, r0
 1217 0ce4 0350A0E1 		mov	r4, r1
 1218 0ce8 0460A0E1 		mov	r0, r3
 1219 0cec 30001BE5 		mov	r1, r4
 1220 0cf0 FEFFFFEB 		bl	__truncdfsf2
 1221 0cf4 0030A0E1 		mov	r3, r0
 1222 0cf8 0140A0E1 		str	r3, [fp, #-192]	@ float
 1223 0cfc 0300A0E1 		.loc 1 301 0
 1224 0d00 0410A0E1 		ldr	r0, [fp, #-48]	@ float
 1225 0d04 FEFFFFEB 		bl	__extendsfdf2
 1226 0d08 0030A0E1 		mov	r3, r0
 1227 0d0c 0140A0E1 		mov	r4, r1
 1228 0d10 0500A0E1 		mov	r0, r3
 1229 0d14 0610A0E1 		mov	r1, r4
 1230 0d18 0320A0E1 		bl	cos
 1231 0d1c 0430A0E1 		mov	r5, r0
 1232 0d20 FEFFFFEB 		mov	r6, r1
 1233 0d24 0030A0E1 		ldr	r0, [fp, #-52]	@ float
 1234 0d28 0140A0E1 		bl	__extendsfdf2
 1235 0d2c 0900A0E1 		mov	r3, r0
 1236 0d30 0A10A0E1 		mov	r4, r1
 1237 0d34 0320A0E1 		mov	r0, r3
 1238 0d38 0430A0E1 		mov	r1, r4
 1239 0d3c FEFFFFEB 		bl	sin
 1240 0d40 0030A0E1 		mov	r3, r0
 1241 0d44 0140A0E1 		mov	r4, r1
 1242 0d48 0700A0E1 		mov	r0, r5
 1243 0d4c 0810A0E1 		mov	r1, r6
 1244 0d50 0320A0E1 		mov	r2, r3
 1245 0d54 0430A0E1 		mov	r3, r4
 1246 0d58 FEFFFFEB 		bl	__muldf3
 1247 0d5c 0030A0E1 		mov	r3, r0
 1248 0d60 0140A0E1 		mov	r4, r1
 1249 0d64 0300A0E1 		mov	r7, r3
 1250 0d68 0410A0E1 		mov	r8, r4
 1251 0d6c FEFFFFEB 		ldr	r0, [fp, #-52]	@ float
 1252 0d70 0030A0E1 		bl	__extendsfdf2
 1253 0d74 C0300BE5 		mov	r3, r0
 301:lab.c         **** 	Rinv[1] = (cos(th2)*sin(th1))/(cos(th1)*cos(th1)*cos(th2)*cos(th2) + cos(th1)*cos(th1)*sin(th2)*si
 1254              	 [fp, #-48]	@ float
 1255 0d78 30001BE5 		bl	__extendsfdf2
 1256 0d7c FEFFFFEB 		mov	r3, r0
 1257 0d80 0030A0E1 		mov	r4, r1
 1258 0d84 0140A0E1 		mov	r0, r3
 1259 0d88 0300A0E1 		mov	r1, r4
 1260 0d8c 0410A0E1 		bl	cos
 1261 0d90 FEFFFFEB 		mov	r3, r0
 1262 0d94 0050A0E1 		mov	r4, r1
 1263 0d98 0160A0E1 		mov	r0, r5
 1264 0d9c 34001BE5 		mov	r1, r6
 1265 0da0 FEFFFFEB 		mov	r2, r3
 1266 0da4 0030A0E1 		mov	r3, r4
 1267 0da8 0140A0E1 		bl	__muldf3
 1268 0dac 0300A0E1 		mov	r3, r0
 1269 0db0 0410A0E1 		mov	r4, r1
 1270 0db4 FEFFFFEB 		mov	r5, r3
 1271 0db8 0030A0E1 		mov	r6, r4
 1272 0dbc 0140A0E1 		ldr	r0, [fp, #-48]	@ float
 1273 0dc0 0500A0E1 		bl	__extendsfdf2
 1274 0dc4 0610A0E1 		mov	r3, r0
 1275 0dc8 0320A0E1 		mov	r4, r1
 1276 0dcc 0430A0E1 		mov	r0, r3
 1277 0dd0 FEFFFFEB 		mov	r1, r4
 1278 0dd4 0030A0E1 		bl	cos
 1279 0dd8 0140A0E1 		mov	r3, r0
 1280 0ddc 0370A0E1 		mov	r4, r1
 1281 0de0 0480A0E1 		mov	r0, r5
 1282 0de4 34001BE5 		mov	r1, r6
 1283 0de8 FEFFFFEB 		mov	r2, r3
 1284 0dec 0030A0E1 		mov	r3, r4
 1285 0df0 0140A0E1 		bl	__muldf3
 1286 0df4 0300A0E1 		mov	r3, r0
 1287 0df8 0410A0E1 		mov	r4, r1
 1288 0dfc FEFFFFEB 		mov	r9, r3
 1289 0e00 0050A0E1 		mov	sl, r4
 1290 0e04 0160A0E1 		ldr	r0, [fp, #-52]	@ float
 1291 0e08 34001BE5 		bl	__extendsfdf2
 1292 0e0c FEFFFFEB 		mov	r3, r0
 1293 0e10 0030A0E1 		mov	r4, r1
 1294 0e14 0140A0E1 		mov	r0, r3
 1295 0e18 0300A0E1 		mov	r1, r4
 1296 0e1c 0410A0E1 		bl	cos
 1297 0e20 FEFFFFEB 		mov	r5, r0
 1298 0e24 0030A0E1 		mov	r6, r1
 1299 0e28 0140A0E1 		ldr	r0, [fp, #-52]	@ float
 1300 0e2c 0500A0E1 		bl	__extendsfdf2
 1301 0e30 0610A0E1 		mov	r3, r0
 1302 0e34 0320A0E1 		mov	r4, r1
 1303 0e38 0430A0E1 		mov	r0, r3
 1304 0e3c FEFFFFEB 		mov	r1, r4
 1305 0e40 0030A0E1 		bl	cos
 1306 0e44 0140A0E1 		mov	r3, r0
 1307 0e48 0350A0E1 		mov	r4, r1
 1308 0e4c 0460A0E1 		mov	r0, r5
 1309 0e50 30001BE5 		mov	r1, r6
 1310 0e54 FEFFFFEB 		mov	r2, r3
 1311 0e58 0030A0E1 		mov	r3, r4
 1312 0e5c 0140A0E1 		bl	__muldf3
 1313 0e60 0300A0E1 		mov	r3, r0
 1314 0e64 0410A0E1 		mov	r4, r1
 1315 0e68 FEFFFFEB 		mov	r5, r3
 1316 0e6c 0030A0E1 		mov	r6, r4
 1317 0e70 0140A0E1 		ldr	r0, [fp, #-48]	@ float
 1318 0e74 0500A0E1 		bl	__extendsfdf2
 1319 0e78 0610A0E1 		mov	r3, r0
 1320 0e7c 0320A0E1 		mov	r4, r1
 1321 0e80 0430A0E1 		mov	r0, r3
 1322 0e84 FEFFFFEB 		mov	r1, r4
 1323 0e88 0030A0E1 		bl	sin
 1324 0e8c 0140A0E1 		mov	r3, r0
 1325 0e90 0350A0E1 		mov	r4, r1
 1326 0e94 0460A0E1 		mov	r0, r5
 1327 0e98 30001BE5 		mov	r1, r6
 1328 0e9c FEFFFFEB 		mov	r2, r3
 1329 0ea0 0030A0E1 		mov	r3, r4
 1330 0ea4 0140A0E1 		bl	__muldf3
 1331 0ea8 0300A0E1 		mov	r3, r0
 1332 0eac 0410A0E1 		mov	r4, r1
 1333 0eb0 FEFFFFEB 		mov	r5, r3
 1334 0eb4 0030A0E1 		mov	r6, r4
 1335 0eb8 0140A0E1 		ldr	r0, [fp, #-48]	@ float
 1336 0ebc 0500A0E1 		bl	__extendsfdf2
 1337 0ec0 0610A0E1 		mov	r3, r0
 1338 0ec4 0320A0E1 		mov	r4, r1
 1339 0ec8 0430A0E1 		mov	r0, r3
 1340 0ecc FEFFFFEB 		mov	r1, r4
 1341 0ed0 0030A0E1 		bl	sin
 1342 0ed4 0140A0E1 		mov	r3, r0
 1343 0ed8 0390A0E1 		mov	r4, r1
 1344 0edc 04A0A0E1 		mov	r0, r5
 1345 0ee0 34001BE5 		mov	r1, r6
 1346 0ee4 FEFFFFEB 		mov	r2, r3
 1347 0ee8 0030A0E1 		mov	r3, r4
 1348 0eec 0140A0E1 		bl	__muldf3
 1349 0ef0 0300A0E1 		mov	r3, r0
 1350 0ef4 0410A0E1 		mov	r4, r1
 1351 0ef8 FEFFFFEB 		mov	r0, r9
 1352 0efc 0050A0E1 		mov	r1, sl
 1353 0f00 0160A0E1 		mov	r2, r3
 1354 0f04 34001BE5 		mov	r3, r4
 1355 0f08 FEFFFFEB 		bl	__adddf3
 1356 0f0c 0030A0E1 		mov	r3, r0
 1357 0f10 0140A0E1 		mov	r4, r1
 1358 0f14 0300A0E1 		mov	r9, r3
 1359 0f18 0410A0E1 		mov	sl, r4
 1360 0f1c FEFFFFEB 		ldr	r0, [fp, #-48]	@ float
 1361 0f20 0030A0E1 		bl	__extendsfdf2
 1362 0f24 0140A0E1 		mov	r3, r0
 1363 0f28 0500A0E1 		mov	r4, r1
 1364 0f2c 0610A0E1 		mov	r0, r3
 1365 0f30 0320A0E1 		mov	r1, r4
 1366 0f34 0430A0E1 		bl	cos
 1367 0f38 FEFFFFEB 		mov	r5, r0
 1368 0f3c 0030A0E1 		mov	r6, r1
 1369 0f40 0140A0E1 		ldr	r0, [fp, #-48]	@ float
 1370 0f44 0350A0E1 		bl	__extendsfdf2
 1371 0f48 0460A0E1 		mov	r3, r0
 1372 0f4c 30001BE5 		mov	r4, r1
 1373 0f50 FEFFFFEB 		mov	r0, r3
 1374 0f54 0030A0E1 		mov	r1, r4
 1375 0f58 0140A0E1 		bl	cos
 1376 0f5c 0300A0E1 		mov	r3, r0
 1377 0f60 0410A0E1 		mov	r4, r1
 1378 0f64 FEFFFFEB 		mov	r0, r5
 1379 0f68 0030A0E1 		mov	r1, r6
 1380 0f6c 0140A0E1 		mov	r2, r3
 1381 0f70 0500A0E1 		mov	r3, r4
 1382 0f74 0610A0E1 		bl	__muldf3
 1383 0f78 0320A0E1 		mov	r3, r0
 1384 0f7c 0430A0E1 		mov	r4, r1
 1385 0f80 FEFFFFEB 		mov	r5, r3
 1386 0f84 0030A0E1 		mov	r6, r4
 1387 0f88 0140A0E1 		ldr	r0, [fp, #-52]	@ float
 1388 0f8c 0350A0E1 		bl	__extendsfdf2
 1389 0f90 0460A0E1 		mov	r3, r0
 1390 0f94 30001BE5 		mov	r4, r1
 1391 0f98 FEFFFFEB 		mov	r0, r3
 1392 0f9c 0030A0E1 		mov	r1, r4
 1393 0fa0 0140A0E1 		bl	sin
 1394 0fa4 0300A0E1 		mov	r3, r0
 1395 0fa8 0410A0E1 		mov	r4, r1
 1396 0fac FEFFFFEB 		mov	r0, r5
 1397 0fb0 0030A0E1 		mov	r1, r6
 1398 0fb4 0140A0E1 		mov	r2, r3
 1399 0fb8 0500A0E1 		mov	r3, r4
 1400 0fbc 0610A0E1 		bl	__muldf3
 1401 0fc0 0320A0E1 		mov	r3, r0
 1402 0fc4 0430A0E1 		mov	r4, r1
 1403 0fc8 FEFFFFEB 		mov	r5, r3
 1404 0fcc 0030A0E1 		mov	r6, r4
 1405 0fd0 0140A0E1 		ldr	r0, [fp, #-52]	@ float
 1406 0fd4 0900A0E1 		bl	__extendsfdf2
 1407 0fd8 0A10A0E1 		mov	r3, r0
 1408 0fdc 0320A0E1 		mov	r4, r1
 1409 0fe0 0430A0E1 		mov	r0, r3
 1410 0fe4 FEFFFFEB 		mov	r1, r4
 1411 0fe8 0030A0E1 		bl	sin
 1412 0fec 0140A0E1 		mov	r3, r0
 1413 0ff0 0390A0E1 		mov	r4, r1
 1414 0ff4 04A0A0E1 		mov	r0, r5
 1415 0ff8 30001BE5 		mov	r1, r6
 1416 0ffc FEFFFFEB 		mov	r2, r3
 1417 1000 0030A0E1 		mov	r3, r4
 1418 1004 0140A0E1 		bl	__muldf3
 1419 1008 0300A0E1 		mov	r3, r0
 1420 100c 0410A0E1 		mov	r4, r1
 1421 1010 FEFFFFEB 		mov	r0, r9
 1422 1014 0050A0E1 		mov	r1, sl
 1423 1018 0160A0E1 		mov	r2, r3
 1424 101c 30001BE5 		mov	r3, r4
 1425 1020 FEFFFFEB 		bl	__adddf3
 1426 1024 0030A0E1 		mov	r3, r0
 1427 1028 0140A0E1 		mov	r4, r1
 1428 102c 0300A0E1 		mov	r9, r3
 1429 1030 0410A0E1 		mov	sl, r4
 1430 1034 FEFFFFEB 		ldr	r0, [fp, #-52]	@ float
 1431 1038 0030A0E1 		bl	__extendsfdf2
 1432 103c 0140A0E1 		mov	r3, r0
 1433 1040 0500A0E1 		mov	r4, r1
 1434 1044 0610A0E1 		mov	r0, r3
 1435 1048 0320A0E1 		mov	r1, r4
 1436 104c 0430A0E1 		bl	sin
 1437 1050 FEFFFFEB 		mov	r5, r0
 1438 1054 0030A0E1 		mov	r6, r1
 1439 1058 0140A0E1 		ldr	r0, [fp, #-52]	@ float
 1440 105c 0350A0E1 		bl	__extendsfdf2
 1441 1060 0460A0E1 		mov	r3, r0
 1442 1064 34001BE5 		mov	r4, r1
 1443 1068 FEFFFFEB 		mov	r0, r3
 1444 106c 0030A0E1 		mov	r1, r4
 1445 1070 0140A0E1 		bl	sin
 1446 1074 0300A0E1 		mov	r3, r0
 1447 1078 0410A0E1 		mov	r4, r1
 1448 107c FEFFFFEB 		mov	r0, r5
 1449 1080 0030A0E1 		mov	r1, r6
 1450 1084 0140A0E1 		mov	r2, r3
 1451 1088 0500A0E1 		mov	r3, r4
 1452 108c 0610A0E1 		bl	__muldf3
 1453 1090 0320A0E1 		mov	r3, r0
 1454 1094 0430A0E1 		mov	r4, r1
 1455 1098 FEFFFFEB 		mov	r5, r3
 1456 109c 0030A0E1 		mov	r6, r4
 1457 10a0 0140A0E1 		ldr	r0, [fp, #-48]	@ float
 1458 10a4 0350A0E1 		bl	__extendsfdf2
 1459 10a8 0460A0E1 		mov	r3, r0
 1460 10ac 34001BE5 		mov	r4, r1
 1461 10b0 FEFFFFEB 		mov	r0, r3
 1462 10b4 0030A0E1 		mov	r1, r4
 1463 10b8 0140A0E1 		bl	sin
 1464 10bc 0300A0E1 		mov	r3, r0
 1465 10c0 0410A0E1 		mov	r4, r1
 1466 10c4 FEFFFFEB 		mov	r0, r5
 1467 10c8 0030A0E1 		mov	r1, r6
 1468 10cc 0140A0E1 		mov	r2, r3
 1469 10d0 0500A0E1 		mov	r3, r4
 1470 10d4 0610A0E1 		bl	__muldf3
 1471 10d8 0320A0E1 		mov	r3, r0
 1472 10dc 0430A0E1 		mov	r4, r1
 1473 10e0 FEFFFFEB 		mov	r5, r3
 1474 10e4 0030A0E1 		mov	r6, r4
 1475 10e8 0140A0E1 		ldr	r0, [fp, #-48]	@ float
 1476 10ec 0900A0E1 		bl	__extendsfdf2
 1477 10f0 0A10A0E1 		mov	r3, r0
 1478 10f4 0320A0E1 		mov	r4, r1
 1479 10f8 0430A0E1 		mov	r0, r3
 1480 10fc FEFFFFEB 		mov	r1, r4
 1481 1100 0030A0E1 		bl	sin
 1482 1104 0140A0E1 		mov	r3, r0
 1483 1108 0390A0E1 		mov	r4, r1
 1484 110c 04A0A0E1 		mov	r0, r5
 1485 1110 34001BE5 		mov	r1, r6
 1486 1114 FEFFFFEB 		mov	r2, r3
 1487 1118 0030A0E1 		mov	r3, r4
 1488 111c 0140A0E1 		bl	__muldf3
 1489 1120 0300A0E1 		mov	r3, r0
 1490 1124 0410A0E1 		mov	r4, r1
 1491 1128 FEFFFFEB 		mov	r0, r9
 1492 112c 0050A0E1 		mov	r1, sl
 1493 1130 0160A0E1 		mov	r2, r3
 1494 1134 34001BE5 		mov	r3, r4
 1495 1138 FEFFFFEB 		bl	__adddf3
 1496 113c 0030A0E1 		mov	r3, r0
 1497 1140 0140A0E1 		mov	r4, r1
 1498 1144 0300A0E1 		mov	r0, r7
 1499 1148 0410A0E1 		mov	r1, r8
 1500 114c FEFFFFEB 		mov	r2, r3
 1501 1150 0030A0E1 		mov	r3, r4
 1502 1154 0140A0E1 		bl	__divdf3
 1503 1158 0500A0E1 		mov	r3, r0
 1504 115c 0610A0E1 		mov	r4, r1
 1505 1160 0320A0E1 		mov	r0, r3
 1506 1164 0430A0E1 		mov	r1, r4
 1507 1168 FEFFFFEB 		bl	__truncdfsf2
 1508 116c 0030A0E1 		mov	r3, r0
 1509 1170 0140A0E1 		str	r3, [fp, #-188]	@ float
 1510 1174 0350A0E1 		.loc 1 302 0
 1511 1178 0460A0E1 		ldr	r0, [fp, #-48]	@ float
 1512 117c 30001BE5 		bl	__extendsfdf2
 1513 1180 FEFFFFEB 		mov	r3, r0
 1514 1184 0030A0E1 		mov	r4, r1
 1515 1188 0140A0E1 		mov	r0, r3
 1516 118c 0300A0E1 		mov	r1, r4
 1517 1190 0410A0E1 		bl	sin
 1518 1194 FEFFFFEB 		mov	r3, r0
 1519 1198 0030A0E1 		mov	r4, r1
 1520 119c 0140A0E1 		eor	r5, r3, #-2147483648
 1521 11a0 0500A0E1 		mov	r6, r4
 1522 11a4 0610A0E1 		ldr	r0, [fp, #-48]	@ float
 1523 11a8 0320A0E1 		bl	__extendsfdf2
 1524 11ac 0430A0E1 		mov	r3, r0
 1525 11b0 FEFFFFEB 		mov	r4, r1
 1526 11b4 0030A0E1 		mov	r0, r3
 1527 11b8 0140A0E1 		mov	r1, r4
 1528 11bc 0350A0E1 		bl	cos
 1529 11c0 0460A0E1 		mov	r7, r0
 1530 11c4 30001BE5 		mov	r8, r1
 1531 11c8 FEFFFFEB 		ldr	r0, [fp, #-48]	@ float
 1532 11cc 0030A0E1 		bl	__extendsfdf2
 1533 11d0 0140A0E1 		mov	r3, r0
 1534 11d4 0300A0E1 		mov	r4, r1
 1535 11d8 0410A0E1 		mov	r0, r3
 1536 11dc FEFFFFEB 		mov	r1, r4
 1537 11e0 0030A0E1 		bl	cos
 1538 11e4 0140A0E1 		mov	r3, r0
 1539 11e8 0500A0E1 		mov	r4, r1
 1540 11ec 0610A0E1 		mov	r0, r7
 1541 11f0 0320A0E1 		mov	r1, r8
 1542 11f4 0430A0E1 		mov	r2, r3
 1543 11f8 FEFFFFEB 		mov	r3, r4
 1544 11fc 0030A0E1 		bl	__muldf3
 1545 1200 0140A0E1 		mov	r3, r0
 1546 1204 0900A0E1 		mov	r4, r1
 1547 1208 0A10A0E1 		mov	r9, r3
 1548 120c 0320A0E1 		mov	sl, r4
 1549 1210 0430A0E1 		ldr	r0, [fp, #-48]	@ float
 1550 1214 FEFFFFEB 		bl	__extendsfdf2
 1551 1218 0030A0E1 		mov	r3, r0
 1552 121c 0140A0E1 		mov	r4, r1
 1553 1220 0700A0E1 		mov	r0, r3
 1554 1224 0810A0E1 		mov	r1, r4
 1555 1228 0320A0E1 		bl	sin
 1556 122c 0430A0E1 		mov	r7, r0
 1557 1230 FEFFFFEB 		mov	r8, r1
 1558 1234 0030A0E1 		ldr	r0, [fp, #-48]	@ float
 1559 1238 0140A0E1 		bl	__extendsfdf2
 1560 123c 0300A0E1 		mov	r3, r0
 1561 1240 0410A0E1 		mov	r4, r1
 1562 1244 FEFFFFEB 		mov	r0, r3
 1563 1248 0030A0E1 		mov	r1, r4
 1564 124c BC300BE5 		bl	sin
 302:lab.c         **** 	Rinv[2] = -sin(th2)/(cos(th2)*cos(th2) + sin(th2)*sin(th2));
 1565              	v	r3, r0
 1566 1250 30001BE5 		mov	r4, r1
 1567 1254 FEFFFFEB 		mov	r0, r7
 1568 1258 0030A0E1 		mov	r1, r8
 1569 125c 0140A0E1 		mov	r2, r3
 1570 1260 0300A0E1 		mov	r3, r4
 1571 1264 0410A0E1 		bl	__muldf3
 1572 1268 FEFFFFEB 		mov	r3, r0
 1573 126c 0030A0E1 		mov	r4, r1
 1574 1270 0140A0E1 		mov	r0, r9
 1575 1274 025123E2 		mov	r1, sl
 1576 1278 0460A0E1 		mov	r2, r3
 1577 127c 30001BE5 		mov	r3, r4
 1578 1280 FEFFFFEB 		bl	__adddf3
 1579 1284 0030A0E1 		mov	r3, r0
 1580 1288 0140A0E1 		mov	r4, r1
 1581 128c 0300A0E1 		mov	r0, r5
 1582 1290 0410A0E1 		mov	r1, r6
 1583 1294 FEFFFFEB 		mov	r2, r3
 1584 1298 0070A0E1 		mov	r3, r4
 1585 129c 0180A0E1 		bl	__divdf3
 1586 12a0 30001BE5 		mov	r3, r0
 1587 12a4 FEFFFFEB 		mov	r4, r1
 1588 12a8 0030A0E1 		mov	r0, r3
 1589 12ac 0140A0E1 		mov	r1, r4
 1590 12b0 0300A0E1 		bl	__truncdfsf2
 1591 12b4 0410A0E1 		mov	r3, r0
 1592 12b8 FEFFFFEB 		str	r3, [fp, #-184]	@ float
 1593 12bc 0030A0E1 		.loc 1 303 0
 1594 12c0 0140A0E1 		ldr	r0, [fp, #-48]	@ float
 1595 12c4 0700A0E1 		bl	__extendsfdf2
 1596 12c8 0810A0E1 		mov	r3, r0
 1597 12cc 0320A0E1 		mov	r4, r1
 1598 12d0 0430A0E1 		mov	r0, r3
 1599 12d4 FEFFFFEB 		mov	r1, r4
 1600 12d8 0030A0E1 		bl	cos
 1601 12dc 0140A0E1 		mov	r5, r0
 1602 12e0 0390A0E1 		mov	r6, r1
 1603 12e4 04A0A0E1 		ldr	r0, [fp, #-48]	@ float
 1604 12e8 30001BE5 		bl	__extendsfdf2
 1605 12ec FEFFFFEB 		mov	r3, r0
 1606 12f0 0030A0E1 		mov	r4, r1
 1607 12f4 0140A0E1 		mov	r0, r3
 1608 12f8 0300A0E1 		mov	r1, r4
 1609 12fc 0410A0E1 		bl	cos
 1610 1300 FEFFFFEB 		mov	r3, r0
 1611 1304 0070A0E1 		mov	r4, r1
 1612 1308 0180A0E1 		mov	r0, r5
 1613 130c 30001BE5 		mov	r1, r6
 1614 1310 FEFFFFEB 		mov	r2, r3
 1615 1314 0030A0E1 		mov	r3, r4
 1616 1318 0140A0E1 		bl	__muldf3
 1617 131c 0300A0E1 		mov	r3, r0
 1618 1320 0410A0E1 		mov	r4, r1
 1619 1324 FEFFFFEB 		mov	r5, r3
 1620 1328 0030A0E1 		mov	r6, r4
 1621 132c 0140A0E1 		ldr	r0, [fp, #-44]	@ float
 1622 1330 0700A0E1 		bl	__extendsfdf2
 1623 1334 0810A0E1 		mov	r3, r0
 1624 1338 0320A0E1 		mov	r4, r1
 1625 133c 0430A0E1 		mov	r0, r3
 1626 1340 FEFFFFEB 		mov	r1, r4
 1627 1344 0030A0E1 		bl	cos
 1628 1348 0140A0E1 		mov	r3, r0
 1629 134c 0900A0E1 		mov	r4, r1
 1630 1350 0A10A0E1 		mov	r0, r5
 1631 1354 0320A0E1 		mov	r1, r6
 1632 1358 0430A0E1 		mov	r2, r3
 1633 135c FEFFFFEB 		mov	r3, r4
 1634 1360 0030A0E1 		bl	__muldf3
 1635 1364 0140A0E1 		mov	r3, r0
 1636 1368 0500A0E1 		mov	r4, r1
 1637 136c 0610A0E1 		mov	r5, r3
 1638 1370 0320A0E1 		mov	r6, r4
 1639 1374 0430A0E1 		ldr	r0, [fp, #-52]	@ float
 1640 1378 FEFFFFEB 		bl	__extendsfdf2
 1641 137c 0030A0E1 		mov	r3, r0
 1642 1380 0140A0E1 		mov	r4, r1
 1643 1384 0300A0E1 		mov	r0, r3
 1644 1388 0410A0E1 		mov	r1, r4
 1645 138c FEFFFFEB 		bl	sin
 1646 1390 0030A0E1 		mov	r3, r0
 1647 1394 B8300BE5 		mov	r4, r1
 303:lab.c         **** 	Rinv[3] = -(cos(th2)*cos(th2)*cos(th3)*sin(th1) - cos(th1)*sin(th2)*sin(th3) + cos(th3)*sin(th1)*s
 1648              	1
 1649 1398 30001BE5 		mov	r7, r3
 1650 139c FEFFFFEB 		mov	r8, r4
 1651 13a0 0030A0E1 		ldr	r0, [fp, #-52]	@ float
 1652 13a4 0140A0E1 		bl	__extendsfdf2
 1653 13a8 0300A0E1 		mov	r3, r0
 1654 13ac 0410A0E1 		mov	r4, r1
 1655 13b0 FEFFFFEB 		mov	r0, r3
 1656 13b4 0050A0E1 		mov	r1, r4
 1657 13b8 0160A0E1 		bl	cos
 1658 13bc 30001BE5 		mov	r5, r0
 1659 13c0 FEFFFFEB 		mov	r6, r1
 1660 13c4 0030A0E1 		ldr	r0, [fp, #-48]	@ float
 1661 13c8 0140A0E1 		bl	__extendsfdf2
 1662 13cc 0300A0E1 		mov	r3, r0
 1663 13d0 0410A0E1 		mov	r4, r1
 1664 13d4 FEFFFFEB 		mov	r0, r3
 1665 13d8 0030A0E1 		mov	r1, r4
 1666 13dc 0140A0E1 		bl	sin
 1667 13e0 0500A0E1 		mov	r3, r0
 1668 13e4 0610A0E1 		mov	r4, r1
 1669 13e8 0320A0E1 		mov	r0, r5
 1670 13ec 0430A0E1 		mov	r1, r6
 1671 13f0 FEFFFFEB 		mov	r2, r3
 1672 13f4 0030A0E1 		mov	r3, r4
 1673 13f8 0140A0E1 		bl	__muldf3
 1674 13fc 0350A0E1 		mov	r3, r0
 1675 1400 0460A0E1 		mov	r4, r1
 1676 1404 2C001BE5 		mov	r5, r3
 1677 1408 FEFFFFEB 		mov	r6, r4
 1678 140c 0030A0E1 		ldr	r0, [fp, #-44]	@ float
 1679 1410 0140A0E1 		bl	__extendsfdf2
 1680 1414 0300A0E1 		mov	r3, r0
 1681 1418 0410A0E1 		mov	r4, r1
 1682 141c FEFFFFEB 		mov	r0, r3
 1683 1420 0030A0E1 		mov	r1, r4
 1684 1424 0140A0E1 		bl	sin
 1685 1428 0500A0E1 		mov	r3, r0
 1686 142c 0610A0E1 		mov	r4, r1
 1687 1430 0320A0E1 		mov	r0, r5
 1688 1434 0430A0E1 		mov	r1, r6
 1689 1438 FEFFFFEB 		mov	r2, r3
 1690 143c 0030A0E1 		mov	r3, r4
 1691 1440 0140A0E1 		bl	__muldf3
 1692 1444 0350A0E1 		mov	r3, r0
 1693 1448 0460A0E1 		mov	r4, r1
 1694 144c 34001BE5 		mov	r0, r7
 1695 1450 FEFFFFEB 		mov	r1, r8
 1696 1454 0030A0E1 		mov	r2, r3
 1697 1458 0140A0E1 		mov	r3, r4
 1698 145c 0300A0E1 		bl	__subdf3
 1699 1460 0410A0E1 		mov	r3, r0
 1700 1464 FEFFFFEB 		mov	r4, r1
 1701 1468 0030A0E1 		mov	r7, r3
 1702 146c 0140A0E1 		mov	r8, r4
 1703 1470 0500A0E1 		ldr	r0, [fp, #-44]	@ float
 1704 1474 0610A0E1 		bl	__extendsfdf2
 1705 1478 0320A0E1 		mov	r3, r0
 1706 147c 0430A0E1 		mov	r4, r1
 1707 1480 FEFFFFEB 		mov	r0, r3
 1708 1484 0030A0E1 		mov	r1, r4
 1709 1488 0140A0E1 		bl	cos
 1710 148c 0370A0E1 		mov	r5, r0
 1711 1490 0480A0E1 		mov	r6, r1
 1712 1494 34001BE5 		ldr	r0, [fp, #-52]	@ float
 1713 1498 FEFFFFEB 		bl	__extendsfdf2
 1714 149c 0030A0E1 		mov	r3, r0
 1715 14a0 0140A0E1 		mov	r4, r1
 1716 14a4 0300A0E1 		mov	r0, r3
 1717 14a8 0410A0E1 		mov	r1, r4
 1718 14ac FEFFFFEB 		bl	sin
 1719 14b0 0050A0E1 		mov	r3, r0
 1720 14b4 0160A0E1 		mov	r4, r1
 1721 14b8 30001BE5 		mov	r0, r5
 1722 14bc FEFFFFEB 		mov	r1, r6
 1723 14c0 0030A0E1 		mov	r2, r3
 1724 14c4 0140A0E1 		mov	r3, r4
 1725 14c8 0300A0E1 		bl	__muldf3
 1726 14cc 0410A0E1 		mov	r3, r0
 1727 14d0 FEFFFFEB 		mov	r4, r1
 1728 14d4 0030A0E1 		mov	r5, r3
 1729 14d8 0140A0E1 		mov	r6, r4
 1730 14dc 0500A0E1 		ldr	r0, [fp, #-48]	@ float
 1731 14e0 0610A0E1 		bl	__extendsfdf2
 1732 14e4 0320A0E1 		mov	r3, r0
 1733 14e8 0430A0E1 		mov	r4, r1
 1734 14ec FEFFFFEB 		mov	r0, r3
 1735 14f0 0030A0E1 		mov	r1, r4
 1736 14f4 0140A0E1 		bl	sin
 1737 14f8 0350A0E1 		mov	r3, r0
 1738 14fc 0460A0E1 		mov	r4, r1
 1739 1500 2C001BE5 		mov	r0, r5
 1740 1504 FEFFFFEB 		mov	r1, r6
 1741 1508 0030A0E1 		mov	r2, r3
 1742 150c 0140A0E1 		mov	r3, r4
 1743 1510 0300A0E1 		bl	__muldf3
 1744 1514 0410A0E1 		mov	r3, r0
 1745 1518 FEFFFFEB 		mov	r4, r1
 1746 151c 0030A0E1 		mov	r5, r3
 1747 1520 0140A0E1 		mov	r6, r4
 1748 1524 0500A0E1 		ldr	r0, [fp, #-48]	@ float
 1749 1528 0610A0E1 		bl	__extendsfdf2
 1750 152c 0320A0E1 		mov	r3, r0
 1751 1530 0430A0E1 		mov	r4, r1
 1752 1534 FEFFFFEB 		mov	r0, r3
 1753 1538 0030A0E1 		mov	r1, r4
 1754 153c 0140A0E1 		bl	sin
 1755 1540 0700A0E1 		mov	r3, r0
 1756 1544 0810A0E1 		mov	r4, r1
 1757 1548 0320A0E1 		mov	r0, r5
 1758 154c 0430A0E1 		mov	r1, r6
 1759 1550 FEFFFFEB 		mov	r2, r3
 1760 1554 0030A0E1 		mov	r3, r4
 1761 1558 0140A0E1 		bl	__muldf3
 1762 155c 0370A0E1 		mov	r3, r0
 1763 1560 0480A0E1 		mov	r4, r1
 1764 1564 2C001BE5 		mov	r0, r7
 1765 1568 FEFFFFEB 		mov	r1, r8
 1766 156c 0030A0E1 		mov	r2, r3
 1767 1570 0140A0E1 		mov	r3, r4
 1768 1574 0300A0E1 		bl	__adddf3
 1769 1578 0410A0E1 		mov	r3, r0
 1770 157c FEFFFFEB 		mov	r4, r1
 1771 1580 0050A0E1 		eor	r7, r3, #-2147483648
 1772 1584 0160A0E1 		mov	r8, r4
 1773 1588 34001BE5 		ldr	r0, [fp, #-52]	@ float
 1774 158c FEFFFFEB 		bl	__extendsfdf2
 1775 1590 0030A0E1 		mov	r3, r0
 1776 1594 0140A0E1 		mov	r4, r1
 1777 1598 0300A0E1 		mov	r0, r3
 1778 159c 0410A0E1 		mov	r1, r4
 1779 15a0 FEFFFFEB 		bl	cos
 1780 15a4 0030A0E1 		mov	r5, r0
 1781 15a8 0140A0E1 		mov	r6, r1
 1782 15ac 0500A0E1 		ldr	r0, [fp, #-52]	@ float
 1783 15b0 0610A0E1 		bl	__extendsfdf2
 1784 15b4 0320A0E1 		mov	r3, r0
 1785 15b8 0430A0E1 		mov	r4, r1
 1786 15bc FEFFFFEB 		mov	r0, r3
 1787 15c0 0030A0E1 		mov	r1, r4
 1788 15c4 0140A0E1 		bl	cos
 1789 15c8 0350A0E1 		mov	r3, r0
 1790 15cc 0460A0E1 		mov	r4, r1
 1791 15d0 30001BE5 		mov	r0, r5
 1792 15d4 FEFFFFEB 		mov	r1, r6
 1793 15d8 0030A0E1 		mov	r2, r3
 1794 15dc 0140A0E1 		mov	r3, r4
 1795 15e0 0300A0E1 		bl	__muldf3
 1796 15e4 0410A0E1 		mov	r3, r0
 1797 15e8 FEFFFFEB 		mov	r4, r1
 1798 15ec 0030A0E1 		mov	r5, r3
 1799 15f0 0140A0E1 		mov	r6, r4
 1800 15f4 0500A0E1 		ldr	r0, [fp, #-48]	@ float
 1801 15f8 0610A0E1 		bl	__extendsfdf2
 1802 15fc 0320A0E1 		mov	r3, r0
 1803 1600 0430A0E1 		mov	r4, r1
 1804 1604 FEFFFFEB 		mov	r0, r3
 1805 1608 0030A0E1 		mov	r1, r4
 1806 160c 0140A0E1 		bl	cos
 1807 1610 0350A0E1 		mov	r3, r0
 1808 1614 0460A0E1 		mov	r4, r1
 1809 1618 30001BE5 		mov	r0, r5
 1810 161c FEFFFFEB 		mov	r1, r6
 1811 1620 0030A0E1 		mov	r2, r3
 1812 1624 0140A0E1 		mov	r3, r4
 1813 1628 0300A0E1 		bl	__muldf3
 1814 162c 0410A0E1 		mov	r3, r0
 1815 1630 FEFFFFEB 		mov	r4, r1
 1816 1634 0030A0E1 		mov	r5, r3
 1817 1638 0140A0E1 		mov	r6, r4
 1818 163c 0500A0E1 		ldr	r0, [fp, #-48]	@ float
 1819 1640 0610A0E1 		bl	__extendsfdf2
 1820 1644 0320A0E1 		mov	r3, r0
 1821 1648 0430A0E1 		mov	r4, r1
 1822 164c FEFFFFEB 		mov	r0, r3
 1823 1650 0030A0E1 		mov	r1, r4
 1824 1654 0140A0E1 		bl	cos
 1825 1658 0700A0E1 		mov	r3, r0
 1826 165c 0810A0E1 		mov	r4, r1
 1827 1660 0320A0E1 		mov	r0, r5
 1828 1664 0430A0E1 		mov	r1, r6
 1829 1668 FEFFFFEB 		mov	r2, r3
 1830 166c 0030A0E1 		mov	r3, r4
 1831 1670 0140A0E1 		bl	__muldf3
 1832 1674 027123E2 		mov	r3, r0
 1833 1678 0480A0E1 		mov	r4, r1
 1834 167c 34001BE5 		mov	r5, r3
 1835 1680 FEFFFFEB 		mov	r6, r4
 1836 1684 0030A0E1 		ldr	r0, [fp, #-44]	@ float
 1837 1688 0140A0E1 		bl	__extendsfdf2
 1838 168c 0300A0E1 		mov	r3, r0
 1839 1690 0410A0E1 		mov	r4, r1
 1840 1694 FEFFFFEB 		mov	r0, r3
 1841 1698 0050A0E1 		mov	r1, r4
 1842 169c 0160A0E1 		bl	cos
 1843 16a0 34001BE5 		mov	r3, r0
 1844 16a4 FEFFFFEB 		mov	r4, r1
 1845 16a8 0030A0E1 		mov	r0, r5
 1846 16ac 0140A0E1 		mov	r1, r6
 1847 16b0 0300A0E1 		mov	r2, r3
 1848 16b4 0410A0E1 		mov	r3, r4
 1849 16b8 FEFFFFEB 		bl	__muldf3
 1850 16bc 0030A0E1 		mov	r3, r0
 1851 16c0 0140A0E1 		mov	r4, r1
 1852 16c4 0500A0E1 		mov	r5, r3
 1853 16c8 0610A0E1 		mov	r6, r4
 1854 16cc 0320A0E1 		ldr	r0, [fp, #-44]	@ float
 1855 16d0 0430A0E1 		bl	__extendsfdf2
 1856 16d4 FEFFFFEB 		mov	r3, r0
 1857 16d8 0030A0E1 		mov	r4, r1
 1858 16dc 0140A0E1 		mov	r0, r3
 1859 16e0 0350A0E1 		mov	r1, r4
 1860 16e4 0460A0E1 		bl	cos
 1861 16e8 30001BE5 		mov	r3, r0
 1862 16ec FEFFFFEB 		mov	r4, r1
 1863 16f0 0030A0E1 		mov	r0, r5
 1864 16f4 0140A0E1 		mov	r1, r6
 1865 16f8 0300A0E1 		mov	r2, r3
 1866 16fc 0410A0E1 		mov	r3, r4
 1867 1700 FEFFFFEB 		bl	__muldf3
 1868 1704 0030A0E1 		mov	r3, r0
 1869 1708 0140A0E1 		mov	r4, r1
 1870 170c 0500A0E1 		mov	r9, r3
 1871 1710 0610A0E1 		mov	sl, r4
 1872 1714 0320A0E1 		ldr	r0, [fp, #-52]	@ float
 1873 1718 0430A0E1 		bl	__extendsfdf2
 1874 171c FEFFFFEB 		mov	r3, r0
 1875 1720 0030A0E1 		mov	r4, r1
 1876 1724 0140A0E1 		mov	r0, r3
 1877 1728 0350A0E1 		mov	r1, r4
 1878 172c 0460A0E1 		bl	cos
 1879 1730 30001BE5 		mov	r5, r0
 1880 1734 FEFFFFEB 		mov	r6, r1
 1881 1738 0030A0E1 		ldr	r0, [fp, #-52]	@ float
 1882 173c 0140A0E1 		bl	__extendsfdf2
 1883 1740 0300A0E1 		mov	r3, r0
 1884 1744 0410A0E1 		mov	r4, r1
 1885 1748 FEFFFFEB 		mov	r0, r3
 1886 174c 0030A0E1 		mov	r1, r4
 1887 1750 0140A0E1 		bl	cos
 1888 1754 0500A0E1 		mov	r3, r0
 1889 1758 0610A0E1 		mov	r4, r1
 1890 175c 0320A0E1 		mov	r0, r5
 1891 1760 0430A0E1 		mov	r1, r6
 1892 1764 FEFFFFEB 		mov	r2, r3
 1893 1768 0030A0E1 		mov	r3, r4
 1894 176c 0140A0E1 		bl	__muldf3
 1895 1770 0350A0E1 		mov	r3, r0
 1896 1774 0460A0E1 		mov	r4, r1
 1897 1778 2C001BE5 		mov	r5, r3
 1898 177c FEFFFFEB 		mov	r6, r4
 1899 1780 0030A0E1 		ldr	r0, [fp, #-48]	@ float
 1900 1784 0140A0E1 		bl	__extendsfdf2
 1901 1788 0300A0E1 		mov	r3, r0
 1902 178c 0410A0E1 		mov	r4, r1
 1903 1790 FEFFFFEB 		mov	r0, r3
 1904 1794 0030A0E1 		mov	r1, r4
 1905 1798 0140A0E1 		bl	cos
 1906 179c 0500A0E1 		mov	r3, r0
 1907 17a0 0610A0E1 		mov	r4, r1
 1908 17a4 0320A0E1 		mov	r0, r5
 1909 17a8 0430A0E1 		mov	r1, r6
 1910 17ac FEFFFFEB 		mov	r2, r3
 1911 17b0 0030A0E1 		mov	r3, r4
 1912 17b4 0140A0E1 		bl	__muldf3
 1913 17b8 0350A0E1 		mov	r3, r0
 1914 17bc 0460A0E1 		mov	r4, r1
 1915 17c0 2C001BE5 		mov	r5, r3
 1916 17c4 FEFFFFEB 		mov	r6, r4
 1917 17c8 0030A0E1 		ldr	r0, [fp, #-48]	@ float
 1918 17cc 0140A0E1 		bl	__extendsfdf2
 1919 17d0 0300A0E1 		mov	r3, r0
 1920 17d4 0410A0E1 		mov	r4, r1
 1921 17d8 FEFFFFEB 		mov	r0, r3
 1922 17dc 0030A0E1 		mov	r1, r4
 1923 17e0 0140A0E1 		bl	cos
 1924 17e4 0500A0E1 		mov	r3, r0
 1925 17e8 0610A0E1 		mov	r4, r1
 1926 17ec 0320A0E1 		mov	r0, r5
 1927 17f0 0430A0E1 		mov	r1, r6
 1928 17f4 FEFFFFEB 		mov	r2, r3
 1929 17f8 0030A0E1 		mov	r3, r4
 1930 17fc 0140A0E1 		bl	__muldf3
 1931 1800 0390A0E1 		mov	r3, r0
 1932 1804 04A0A0E1 		mov	r4, r1
 1933 1808 34001BE5 		mov	r5, r3
 1934 180c FEFFFFEB 		mov	r6, r4
 1935 1810 0030A0E1 		ldr	r0, [fp, #-44]	@ float
 1936 1814 0140A0E1 		bl	__extendsfdf2
 1937 1818 0300A0E1 		mov	r3, r0
 1938 181c 0410A0E1 		mov	r4, r1
 1939 1820 FEFFFFEB 		mov	r0, r3
 1940 1824 0050A0E1 		mov	r1, r4
 1941 1828 0160A0E1 		bl	sin
 1942 182c 34001BE5 		mov	r3, r0
 1943 1830 FEFFFFEB 		mov	r4, r1
 1944 1834 0030A0E1 		mov	r0, r5
 1945 1838 0140A0E1 		mov	r1, r6
 1946 183c 0300A0E1 		mov	r2, r3
 1947 1840 0410A0E1 		mov	r3, r4
 1948 1844 FEFFFFEB 		bl	__muldf3
 1949 1848 0030A0E1 		mov	r3, r0
 1950 184c 0140A0E1 		mov	r4, r1
 1951 1850 0500A0E1 		mov	r5, r3
 1952 1854 0610A0E1 		mov	r6, r4
 1953 1858 0320A0E1 		ldr	r0, [fp, #-44]	@ float
 1954 185c 0430A0E1 		bl	__extendsfdf2
 1955 1860 FEFFFFEB 		mov	r3, r0
 1956 1864 0030A0E1 		mov	r4, r1
 1957 1868 0140A0E1 		mov	r0, r3
 1958 186c 0350A0E1 		mov	r1, r4
 1959 1870 0460A0E1 		bl	sin
 1960 1874 30001BE5 		mov	r3, r0
 1961 1878 FEFFFFEB 		mov	r4, r1
 1962 187c 0030A0E1 		mov	r0, r5
 1963 1880 0140A0E1 		mov	r1, r6
 1964 1884 0300A0E1 		mov	r2, r3
 1965 1888 0410A0E1 		mov	r3, r4
 1966 188c FEFFFFEB 		bl	__muldf3
 1967 1890 0030A0E1 		mov	r3, r0
 1968 1894 0140A0E1 		mov	r4, r1
 1969 1898 0500A0E1 		mov	r0, r9
 1970 189c 0610A0E1 		mov	r1, sl
 1971 18a0 0320A0E1 		mov	r2, r3
 1972 18a4 0430A0E1 		mov	r3, r4
 1973 18a8 FEFFFFEB 		bl	__adddf3
 1974 18ac 0030A0E1 		mov	r3, r0
 1975 18b0 0140A0E1 		mov	r4, r1
 1976 18b4 0350A0E1 		mov	r9, r3
 1977 18b8 0460A0E1 		mov	sl, r4
 1978 18bc 30001BE5 		ldr	r0, [fp, #-52]	@ float
 1979 18c0 FEFFFFEB 		bl	__extendsfdf2
 1980 18c4 0030A0E1 		mov	r3, r0
 1981 18c8 0140A0E1 		mov	r4, r1
 1982 18cc 0300A0E1 		mov	r0, r3
 1983 18d0 0410A0E1 		mov	r1, r4
 1984 18d4 FEFFFFEB 		bl	cos
 1985 18d8 0030A0E1 		mov	r5, r0
 1986 18dc 0140A0E1 		mov	r6, r1
 1987 18e0 0500A0E1 		ldr	r0, [fp, #-52]	@ float
 1988 18e4 0610A0E1 		bl	__extendsfdf2
 1989 18e8 0320A0E1 		mov	r3, r0
 1990 18ec 0430A0E1 		mov	r4, r1
 1991 18f0 FEFFFFEB 		mov	r0, r3
 1992 18f4 0030A0E1 		mov	r1, r4
 1993 18f8 0140A0E1 		bl	cos
 1994 18fc 0350A0E1 		mov	r3, r0
 1995 1900 0460A0E1 		mov	r4, r1
 1996 1904 2C001BE5 		mov	r0, r5
 1997 1908 FEFFFFEB 		mov	r1, r6
 1998 190c 0030A0E1 		mov	r2, r3
 1999 1910 0140A0E1 		mov	r3, r4
 2000 1914 0300A0E1 		bl	__muldf3
 2001 1918 0410A0E1 		mov	r3, r0
 2002 191c FEFFFFEB 		mov	r4, r1
 2003 1920 0030A0E1 		mov	r5, r3
 2004 1924 0140A0E1 		mov	r6, r4
 2005 1928 0500A0E1 		ldr	r0, [fp, #-44]	@ float
 2006 192c 0610A0E1 		bl	__extendsfdf2
 2007 1930 0320A0E1 		mov	r3, r0
 2008 1934 0430A0E1 		mov	r4, r1
 2009 1938 FEFFFFEB 		mov	r0, r3
 2010 193c 0030A0E1 		mov	r1, r4
 2011 1940 0140A0E1 		bl	cos
 2012 1944 0350A0E1 		mov	r3, r0
 2013 1948 0460A0E1 		mov	r4, r1
 2014 194c 2C001BE5 		mov	r0, r5
 2015 1950 FEFFFFEB 		mov	r1, r6
 2016 1954 0030A0E1 		mov	r2, r3
 2017 1958 0140A0E1 		mov	r3, r4
 2018 195c 0300A0E1 		bl	__muldf3
 2019 1960 0410A0E1 		mov	r3, r0
 2020 1964 FEFFFFEB 		mov	r4, r1
 2021 1968 0030A0E1 		mov	r5, r3
 2022 196c 0140A0E1 		mov	r6, r4
 2023 1970 0500A0E1 		ldr	r0, [fp, #-44]	@ float
 2024 1974 0610A0E1 		bl	__extendsfdf2
 2025 1978 0320A0E1 		mov	r3, r0
 2026 197c 0430A0E1 		mov	r4, r1
 2027 1980 FEFFFFEB 		mov	r0, r3
 2028 1984 0030A0E1 		mov	r1, r4
 2029 1988 0140A0E1 		bl	cos
 2030 198c 0900A0E1 		mov	r3, r0
 2031 1990 0A10A0E1 		mov	r4, r1
 2032 1994 0320A0E1 		mov	r0, r5
 2033 1998 0430A0E1 		mov	r1, r6
 2034 199c FEFFFFEB 		mov	r2, r3
 2035 19a0 0030A0E1 		mov	r3, r4
 2036 19a4 0140A0E1 		bl	__muldf3
 2037 19a8 0390A0E1 		mov	r3, r0
 2038 19ac 04A0A0E1 		mov	r4, r1
 2039 19b0 34001BE5 		mov	r5, r3
 2040 19b4 FEFFFFEB 		mov	r6, r4
 2041 19b8 0030A0E1 		ldr	r0, [fp, #-48]	@ float
 2042 19bc 0140A0E1 		bl	__extendsfdf2
 2043 19c0 0300A0E1 		mov	r3, r0
 2044 19c4 0410A0E1 		mov	r4, r1
 2045 19c8 FEFFFFEB 		mov	r0, r3
 2046 19cc 0050A0E1 		mov	r1, r4
 2047 19d0 0160A0E1 		bl	sin
 2048 19d4 34001BE5 		mov	r3, r0
 2049 19d8 FEFFFFEB 		mov	r4, r1
 2050 19dc 0030A0E1 		mov	r0, r5
 2051 19e0 0140A0E1 		mov	r1, r6
 2052 19e4 0300A0E1 		mov	r2, r3
 2053 19e8 0410A0E1 		mov	r3, r4
 2054 19ec FEFFFFEB 		bl	__muldf3
 2055 19f0 0030A0E1 		mov	r3, r0
 2056 19f4 0140A0E1 		mov	r4, r1
 2057 19f8 0500A0E1 		mov	r5, r3
 2058 19fc 0610A0E1 		mov	r6, r4
 2059 1a00 0320A0E1 		ldr	r0, [fp, #-48]	@ float
 2060 1a04 0430A0E1 		bl	__extendsfdf2
 2061 1a08 FEFFFFEB 		mov	r3, r0
 2062 1a0c 0030A0E1 		mov	r4, r1
 2063 1a10 0140A0E1 		mov	r0, r3
 2064 1a14 0350A0E1 		mov	r1, r4
 2065 1a18 0460A0E1 		bl	sin
 2066 1a1c 2C001BE5 		mov	r3, r0
 2067 1a20 FEFFFFEB 		mov	r4, r1
 2068 1a24 0030A0E1 		mov	r0, r5
 2069 1a28 0140A0E1 		mov	r1, r6
 2070 1a2c 0300A0E1 		mov	r2, r3
 2071 1a30 0410A0E1 		mov	r3, r4
 2072 1a34 FEFFFFEB 		bl	__muldf3
 2073 1a38 0030A0E1 		mov	r3, r0
 2074 1a3c 0140A0E1 		mov	r4, r1
 2075 1a40 0500A0E1 		mov	r0, r9
 2076 1a44 0610A0E1 		mov	r1, sl
 2077 1a48 0320A0E1 		mov	r2, r3
 2078 1a4c 0430A0E1 		mov	r3, r4
 2079 1a50 FEFFFFEB 		bl	__adddf3
 2080 1a54 0030A0E1 		mov	r3, r0
 2081 1a58 0140A0E1 		mov	r4, r1
 2082 1a5c 0350A0E1 		mov	r9, r3
 2083 1a60 0460A0E1 		mov	sl, r4
 2084 1a64 2C001BE5 		ldr	r0, [fp, #-52]	@ float
 2085 1a68 FEFFFFEB 		bl	__extendsfdf2
 2086 1a6c 0030A0E1 		mov	r3, r0
 2087 1a70 0140A0E1 		mov	r4, r1
 2088 1a74 0300A0E1 		mov	r0, r3
 2089 1a78 0410A0E1 		mov	r1, r4
 2090 1a7c FEFFFFEB 		bl	cos
 2091 1a80 0030A0E1 		mov	r5, r0
 2092 1a84 0140A0E1 		mov	r6, r1
 2093 1a88 0500A0E1 		ldr	r0, [fp, #-52]	@ float
 2094 1a8c 0610A0E1 		bl	__extendsfdf2
 2095 1a90 0320A0E1 		mov	r3, r0
 2096 1a94 0430A0E1 		mov	r4, r1
 2097 1a98 FEFFFFEB 		mov	r0, r3
 2098 1a9c 0030A0E1 		mov	r1, r4
 2099 1aa0 0140A0E1 		bl	cos
 2100 1aa4 0350A0E1 		mov	r3, r0
 2101 1aa8 0460A0E1 		mov	r4, r1
 2102 1aac 30001BE5 		mov	r0, r5
 2103 1ab0 FEFFFFEB 		mov	r1, r6
 2104 1ab4 0030A0E1 		mov	r2, r3
 2105 1ab8 0140A0E1 		mov	r3, r4
 2106 1abc 0300A0E1 		bl	__muldf3
 2107 1ac0 0410A0E1 		mov	r3, r0
 2108 1ac4 FEFFFFEB 		mov	r4, r1
 2109 1ac8 0030A0E1 		mov	r5, r3
 2110 1acc 0140A0E1 		mov	r6, r4
 2111 1ad0 0500A0E1 		ldr	r0, [fp, #-48]	@ float
 2112 1ad4 0610A0E1 		bl	__extendsfdf2
 2113 1ad8 0320A0E1 		mov	r3, r0
 2114 1adc 0430A0E1 		mov	r4, r1
 2115 1ae0 FEFFFFEB 		mov	r0, r3
 2116 1ae4 0030A0E1 		mov	r1, r4
 2117 1ae8 0140A0E1 		bl	sin
 2118 1aec 0350A0E1 		mov	r3, r0
 2119 1af0 0460A0E1 		mov	r4, r1
 2120 1af4 30001BE5 		mov	r0, r5
 2121 1af8 FEFFFFEB 		mov	r1, r6
 2122 1afc 0030A0E1 		mov	r2, r3
 2123 1b00 0140A0E1 		mov	r3, r4
 2124 1b04 0300A0E1 		bl	__muldf3
 2125 1b08 0410A0E1 		mov	r3, r0
 2126 1b0c FEFFFFEB 		mov	r4, r1
 2127 1b10 0030A0E1 		mov	r5, r3
 2128 1b14 0140A0E1 		mov	r6, r4
 2129 1b18 0500A0E1 		ldr	r0, [fp, #-48]	@ float
 2130 1b1c 0610A0E1 		bl	__extendsfdf2
 2131 1b20 0320A0E1 		mov	r3, r0
 2132 1b24 0430A0E1 		mov	r4, r1
 2133 1b28 FEFFFFEB 		mov	r0, r3
 2134 1b2c 0030A0E1 		mov	r1, r4
 2135 1b30 0140A0E1 		bl	sin
 2136 1b34 0900A0E1 		mov	r3, r0
 2137 1b38 0A10A0E1 		mov	r4, r1
 2138 1b3c 0320A0E1 		mov	r0, r5
 2139 1b40 0430A0E1 		mov	r1, r6
 2140 1b44 FEFFFFEB 		mov	r2, r3
 2141 1b48 0030A0E1 		mov	r3, r4
 2142 1b4c 0140A0E1 		bl	__muldf3
 2143 1b50 0390A0E1 		mov	r3, r0
 2144 1b54 04A0A0E1 		mov	r4, r1
 2145 1b58 34001BE5 		mov	r5, r3
 2146 1b5c FEFFFFEB 		mov	r6, r4
 2147 1b60 0030A0E1 		ldr	r0, [fp, #-44]	@ float
 2148 1b64 0140A0E1 		bl	__extendsfdf2
 2149 1b68 0300A0E1 		mov	r3, r0
 2150 1b6c 0410A0E1 		mov	r4, r1
 2151 1b70 FEFFFFEB 		mov	r0, r3
 2152 1b74 0050A0E1 		mov	r1, r4
 2153 1b78 0160A0E1 		bl	sin
 2154 1b7c 34001BE5 		mov	r3, r0
 2155 1b80 FEFFFFEB 		mov	r4, r1
 2156 1b84 0030A0E1 		mov	r0, r5
 2157 1b88 0140A0E1 		mov	r1, r6
 2158 1b8c 0300A0E1 		mov	r2, r3
 2159 1b90 0410A0E1 		mov	r3, r4
 2160 1b94 FEFFFFEB 		bl	__muldf3
 2161 1b98 0030A0E1 		mov	r3, r0
 2162 1b9c 0140A0E1 		mov	r4, r1
 2163 1ba0 0500A0E1 		mov	r5, r3
 2164 1ba4 0610A0E1 		mov	r6, r4
 2165 1ba8 0320A0E1 		ldr	r0, [fp, #-44]	@ float
 2166 1bac 0430A0E1 		bl	__extendsfdf2
 2167 1bb0 FEFFFFEB 		mov	r3, r0
 2168 1bb4 0030A0E1 		mov	r4, r1
 2169 1bb8 0140A0E1 		mov	r0, r3
 2170 1bbc 0350A0E1 		mov	r1, r4
 2171 1bc0 0460A0E1 		bl	sin
 2172 1bc4 30001BE5 		mov	r3, r0
 2173 1bc8 FEFFFFEB 		mov	r4, r1
 2174 1bcc 0030A0E1 		mov	r0, r5
 2175 1bd0 0140A0E1 		mov	r1, r6
 2176 1bd4 0300A0E1 		mov	r2, r3
 2177 1bd8 0410A0E1 		mov	r3, r4
 2178 1bdc FEFFFFEB 		bl	__muldf3
 2179 1be0 0030A0E1 		mov	r3, r0
 2180 1be4 0140A0E1 		mov	r4, r1
 2181 1be8 0500A0E1 		mov	r0, r9
 2182 1bec 0610A0E1 		mov	r1, sl
 2183 1bf0 0320A0E1 		mov	r2, r3
 2184 1bf4 0430A0E1 		mov	r3, r4
 2185 1bf8 FEFFFFEB 		bl	__adddf3
 2186 1bfc 0030A0E1 		mov	r3, r0
 2187 1c00 0140A0E1 		mov	r4, r1
 2188 1c04 0350A0E1 		mov	r9, r3
 2189 1c08 0460A0E1 		mov	sl, r4
 2190 1c0c 30001BE5 		ldr	r0, [fp, #-48]	@ float
 2191 1c10 FEFFFFEB 		bl	__extendsfdf2
 2192 1c14 0030A0E1 		mov	r3, r0
 2193 1c18 0140A0E1 		mov	r4, r1
 2194 1c1c 0300A0E1 		mov	r0, r3
 2195 1c20 0410A0E1 		mov	r1, r4
 2196 1c24 FEFFFFEB 		bl	cos
 2197 1c28 0030A0E1 		mov	r5, r0
 2198 1c2c 0140A0E1 		mov	r6, r1
 2199 1c30 0500A0E1 		ldr	r0, [fp, #-48]	@ float
 2200 1c34 0610A0E1 		bl	__extendsfdf2
 2201 1c38 0320A0E1 		mov	r3, r0
 2202 1c3c 0430A0E1 		mov	r4, r1
 2203 1c40 FEFFFFEB 		mov	r0, r3
 2204 1c44 0030A0E1 		mov	r1, r4
 2205 1c48 0140A0E1 		bl	cos
 2206 1c4c 0350A0E1 		mov	r3, r0
 2207 1c50 0460A0E1 		mov	r4, r1
 2208 1c54 2C001BE5 		mov	r0, r5
 2209 1c58 FEFFFFEB 		mov	r1, r6
 2210 1c5c 0030A0E1 		mov	r2, r3
 2211 1c60 0140A0E1 		mov	r3, r4
 2212 1c64 0300A0E1 		bl	__muldf3
 2213 1c68 0410A0E1 		mov	r3, r0
 2214 1c6c FEFFFFEB 		mov	r4, r1
 2215 1c70 0030A0E1 		mov	r5, r3
 2216 1c74 0140A0E1 		mov	r6, r4
 2217 1c78 0500A0E1 		ldr	r0, [fp, #-44]	@ float
 2218 1c7c 0610A0E1 		bl	__extendsfdf2
 2219 1c80 0320A0E1 		mov	r3, r0
 2220 1c84 0430A0E1 		mov	r4, r1
 2221 1c88 FEFFFFEB 		mov	r0, r3
 2222 1c8c 0030A0E1 		mov	r1, r4
 2223 1c90 0140A0E1 		bl	cos
 2224 1c94 0350A0E1 		mov	r3, r0
 2225 1c98 0460A0E1 		mov	r4, r1
 2226 1c9c 2C001BE5 		mov	r0, r5
 2227 1ca0 FEFFFFEB 		mov	r1, r6
 2228 1ca4 0030A0E1 		mov	r2, r3
 2229 1ca8 0140A0E1 		mov	r3, r4
 2230 1cac 0300A0E1 		bl	__muldf3
 2231 1cb0 0410A0E1 		mov	r3, r0
 2232 1cb4 FEFFFFEB 		mov	r4, r1
 2233 1cb8 0030A0E1 		mov	r5, r3
 2234 1cbc 0140A0E1 		mov	r6, r4
 2235 1cc0 0500A0E1 		ldr	r0, [fp, #-44]	@ float
 2236 1cc4 0610A0E1 		bl	__extendsfdf2
 2237 1cc8 0320A0E1 		mov	r3, r0
 2238 1ccc 0430A0E1 		mov	r4, r1
 2239 1cd0 FEFFFFEB 		mov	r0, r3
 2240 1cd4 0030A0E1 		mov	r1, r4
 2241 1cd8 0140A0E1 		bl	cos
 2242 1cdc 0900A0E1 		mov	r3, r0
 2243 1ce0 0A10A0E1 		mov	r4, r1
 2244 1ce4 0320A0E1 		mov	r0, r5
 2245 1ce8 0430A0E1 		mov	r1, r6
 2246 1cec FEFFFFEB 		mov	r2, r3
 2247 1cf0 0030A0E1 		mov	r3, r4
 2248 1cf4 0140A0E1 		bl	__muldf3
 2249 1cf8 0390A0E1 		mov	r3, r0
 2250 1cfc 04A0A0E1 		mov	r4, r1
 2251 1d00 30001BE5 		mov	r5, r3
 2252 1d04 FEFFFFEB 		mov	r6, r4
 2253 1d08 0030A0E1 		ldr	r0, [fp, #-52]	@ float
 2254 1d0c 0140A0E1 		bl	__extendsfdf2
 2255 1d10 0300A0E1 		mov	r3, r0
 2256 1d14 0410A0E1 		mov	r4, r1
 2257 1d18 FEFFFFEB 		mov	r0, r3
 2258 1d1c 0050A0E1 		mov	r1, r4
 2259 1d20 0160A0E1 		bl	sin
 2260 1d24 30001BE5 		mov	r3, r0
 2261 1d28 FEFFFFEB 		mov	r4, r1
 2262 1d2c 0030A0E1 		mov	r0, r5
 2263 1d30 0140A0E1 		mov	r1, r6
 2264 1d34 0300A0E1 		mov	r2, r3
 2265 1d38 0410A0E1 		mov	r3, r4
 2266 1d3c FEFFFFEB 		bl	__muldf3
 2267 1d40 0030A0E1 		mov	r3, r0
 2268 1d44 0140A0E1 		mov	r4, r1
 2269 1d48 0500A0E1 		mov	r5, r3
 2270 1d4c 0610A0E1 		mov	r6, r4
 2271 1d50 0320A0E1 		ldr	r0, [fp, #-52]	@ float
 2272 1d54 0430A0E1 		bl	__extendsfdf2
 2273 1d58 FEFFFFEB 		mov	r3, r0
 2274 1d5c 0030A0E1 		mov	r4, r1
 2275 1d60 0140A0E1 		mov	r0, r3
 2276 1d64 0350A0E1 		mov	r1, r4
 2277 1d68 0460A0E1 		bl	sin
 2278 1d6c 2C001BE5 		mov	r3, r0
 2279 1d70 FEFFFFEB 		mov	r4, r1
 2280 1d74 0030A0E1 		mov	r0, r5
 2281 1d78 0140A0E1 		mov	r1, r6
 2282 1d7c 0300A0E1 		mov	r2, r3
 2283 1d80 0410A0E1 		mov	r3, r4
 2284 1d84 FEFFFFEB 		bl	__muldf3
 2285 1d88 0030A0E1 		mov	r3, r0
 2286 1d8c 0140A0E1 		mov	r4, r1
 2287 1d90 0500A0E1 		mov	r0, r9
 2288 1d94 0610A0E1 		mov	r1, sl
 2289 1d98 0320A0E1 		mov	r2, r3
 2290 1d9c 0430A0E1 		mov	r3, r4
 2291 1da0 FEFFFFEB 		bl	__adddf3
 2292 1da4 0030A0E1 		mov	r3, r0
 2293 1da8 0140A0E1 		mov	r4, r1
 2294 1dac 0350A0E1 		mov	r9, r3
 2295 1db0 0460A0E1 		mov	sl, r4
 2296 1db4 2C001BE5 		ldr	r0, [fp, #-48]	@ float
 2297 1db8 FEFFFFEB 		bl	__extendsfdf2
 2298 1dbc 0030A0E1 		mov	r3, r0
 2299 1dc0 0140A0E1 		mov	r4, r1
 2300 1dc4 0300A0E1 		mov	r0, r3
 2301 1dc8 0410A0E1 		mov	r1, r4
 2302 1dcc FEFFFFEB 		bl	cos
 2303 1dd0 0030A0E1 		mov	r5, r0
 2304 1dd4 0140A0E1 		mov	r6, r1
 2305 1dd8 0500A0E1 		ldr	r0, [fp, #-48]	@ float
 2306 1ddc 0610A0E1 		bl	__extendsfdf2
 2307 1de0 0320A0E1 		mov	r3, r0
 2308 1de4 0430A0E1 		mov	r4, r1
 2309 1de8 FEFFFFEB 		mov	r0, r3
 2310 1dec 0030A0E1 		mov	r1, r4
 2311 1df0 0140A0E1 		bl	cos
 2312 1df4 0350A0E1 		mov	r3, r0
 2313 1df8 0460A0E1 		mov	r4, r1
 2314 1dfc 34001BE5 		mov	r0, r5
 2315 1e00 FEFFFFEB 		mov	r1, r6
 2316 1e04 0030A0E1 		mov	r2, r3
 2317 1e08 0140A0E1 		mov	r3, r4
 2318 1e0c 0300A0E1 		bl	__muldf3
 2319 1e10 0410A0E1 		mov	r3, r0
 2320 1e14 FEFFFFEB 		mov	r4, r1
 2321 1e18 0030A0E1 		mov	r5, r3
 2322 1e1c 0140A0E1 		mov	r6, r4
 2323 1e20 0500A0E1 		ldr	r0, [fp, #-52]	@ float
 2324 1e24 0610A0E1 		bl	__extendsfdf2
 2325 1e28 0320A0E1 		mov	r3, r0
 2326 1e2c 0430A0E1 		mov	r4, r1
 2327 1e30 FEFFFFEB 		mov	r0, r3
 2328 1e34 0030A0E1 		mov	r1, r4
 2329 1e38 0140A0E1 		bl	sin
 2330 1e3c 0350A0E1 		mov	r3, r0
 2331 1e40 0460A0E1 		mov	r4, r1
 2332 1e44 34001BE5 		mov	r0, r5
 2333 1e48 FEFFFFEB 		mov	r1, r6
 2334 1e4c 0030A0E1 		mov	r2, r3
 2335 1e50 0140A0E1 		mov	r3, r4
 2336 1e54 0300A0E1 		bl	__muldf3
 2337 1e58 0410A0E1 		mov	r3, r0
 2338 1e5c FEFFFFEB 		mov	r4, r1
 2339 1e60 0030A0E1 		mov	r5, r3
 2340 1e64 0140A0E1 		mov	r6, r4
 2341 1e68 0500A0E1 		ldr	r0, [fp, #-52]	@ float
 2342 1e6c 0610A0E1 		bl	__extendsfdf2
 2343 1e70 0320A0E1 		mov	r3, r0
 2344 1e74 0430A0E1 		mov	r4, r1
 2345 1e78 FEFFFFEB 		mov	r0, r3
 2346 1e7c 0030A0E1 		mov	r1, r4
 2347 1e80 0140A0E1 		bl	sin
 2348 1e84 0900A0E1 		mov	r3, r0
 2349 1e88 0A10A0E1 		mov	r4, r1
 2350 1e8c 0320A0E1 		mov	r0, r5
 2351 1e90 0430A0E1 		mov	r1, r6
 2352 1e94 FEFFFFEB 		mov	r2, r3
 2353 1e98 0030A0E1 		mov	r3, r4
 2354 1e9c 0140A0E1 		bl	__muldf3
 2355 1ea0 0390A0E1 		mov	r3, r0
 2356 1ea4 04A0A0E1 		mov	r4, r1
 2357 1ea8 30001BE5 		mov	r5, r3
 2358 1eac FEFFFFEB 		mov	r6, r4
 2359 1eb0 0030A0E1 		ldr	r0, [fp, #-44]	@ float
 2360 1eb4 0140A0E1 		bl	__extendsfdf2
 2361 1eb8 0300A0E1 		mov	r3, r0
 2362 1ebc 0410A0E1 		mov	r4, r1
 2363 1ec0 FEFFFFEB 		mov	r0, r3
 2364 1ec4 0050A0E1 		mov	r1, r4
 2365 1ec8 0160A0E1 		bl	sin
 2366 1ecc 30001BE5 		mov	r3, r0
 2367 1ed0 FEFFFFEB 		mov	r4, r1
 2368 1ed4 0030A0E1 		mov	r0, r5
 2369 1ed8 0140A0E1 		mov	r1, r6
 2370 1edc 0300A0E1 		mov	r2, r3
 2371 1ee0 0410A0E1 		mov	r3, r4
 2372 1ee4 FEFFFFEB 		bl	__muldf3
 2373 1ee8 0030A0E1 		mov	r3, r0
 2374 1eec 0140A0E1 		mov	r4, r1
 2375 1ef0 0500A0E1 		mov	r5, r3
 2376 1ef4 0610A0E1 		mov	r6, r4
 2377 1ef8 0320A0E1 		ldr	r0, [fp, #-44]	@ float
 2378 1efc 0430A0E1 		bl	__extendsfdf2
 2379 1f00 FEFFFFEB 		mov	r3, r0
 2380 1f04 0030A0E1 		mov	r4, r1
 2381 1f08 0140A0E1 		mov	r0, r3
 2382 1f0c 0350A0E1 		mov	r1, r4
 2383 1f10 0460A0E1 		bl	sin
 2384 1f14 34001BE5 		mov	r3, r0
 2385 1f18 FEFFFFEB 		mov	r4, r1
 2386 1f1c 0030A0E1 		mov	r0, r5
 2387 1f20 0140A0E1 		mov	r1, r6
 2388 1f24 0300A0E1 		mov	r2, r3
 2389 1f28 0410A0E1 		mov	r3, r4
 2390 1f2c FEFFFFEB 		bl	__muldf3
 2391 1f30 0030A0E1 		mov	r3, r0
 2392 1f34 0140A0E1 		mov	r4, r1
 2393 1f38 0500A0E1 		mov	r0, r9
 2394 1f3c 0610A0E1 		mov	r1, sl
 2395 1f40 0320A0E1 		mov	r2, r3
 2396 1f44 0430A0E1 		mov	r3, r4
 2397 1f48 FEFFFFEB 		bl	__adddf3
 2398 1f4c 0030A0E1 		mov	r3, r0
 2399 1f50 0140A0E1 		mov	r4, r1
 2400 1f54 0350A0E1 		mov	r9, r3
 2401 1f58 0460A0E1 		mov	sl, r4
 2402 1f5c 34001BE5 		ldr	r0, [fp, #-44]	@ float
 2403 1f60 FEFFFFEB 		bl	__extendsfdf2
 2404 1f64 0030A0E1 		mov	r3, r0
 2405 1f68 0140A0E1 		mov	r4, r1
 2406 1f6c 0300A0E1 		mov	r0, r3
 2407 1f70 0410A0E1 		mov	r1, r4
 2408 1f74 FEFFFFEB 		bl	cos
 2409 1f78 0030A0E1 		mov	r5, r0
 2410 1f7c 0140A0E1 		mov	r6, r1
 2411 1f80 0500A0E1 		ldr	r0, [fp, #-44]	@ float
 2412 1f84 0610A0E1 		bl	__extendsfdf2
 2413 1f88 0320A0E1 		mov	r3, r0
 2414 1f8c 0430A0E1 		mov	r4, r1
 2415 1f90 FEFFFFEB 		mov	r0, r3
 2416 1f94 0030A0E1 		mov	r1, r4
 2417 1f98 0140A0E1 		bl	cos
 2418 1f9c 0350A0E1 		mov	r3, r0
 2419 1fa0 0460A0E1 		mov	r4, r1
 2420 1fa4 2C001BE5 		mov	r0, r5
 2421 1fa8 FEFFFFEB 		mov	r1, r6
 2422 1fac 0030A0E1 		mov	r2, r3
 2423 1fb0 0140A0E1 		mov	r3, r4
 2424 1fb4 0300A0E1 		bl	__muldf3
 2425 1fb8 0410A0E1 		mov	r3, r0
 2426 1fbc FEFFFFEB 		mov	r4, r1
 2427 1fc0 0030A0E1 		mov	r5, r3
 2428 1fc4 0140A0E1 		mov	r6, r4
 2429 1fc8 0500A0E1 		ldr	r0, [fp, #-52]	@ float
 2430 1fcc 0610A0E1 		bl	__extendsfdf2
 2431 1fd0 0320A0E1 		mov	r3, r0
 2432 1fd4 0430A0E1 		mov	r4, r1
 2433 1fd8 FEFFFFEB 		mov	r0, r3
 2434 1fdc 0030A0E1 		mov	r1, r4
 2435 1fe0 0140A0E1 		bl	sin
 2436 1fe4 0350A0E1 		mov	r3, r0
 2437 1fe8 0460A0E1 		mov	r4, r1
 2438 1fec 2C001BE5 		mov	r0, r5
 2439 1ff0 FEFFFFEB 		mov	r1, r6
 2440 1ff4 0030A0E1 		mov	r2, r3
 2441 1ff8 0140A0E1 		mov	r3, r4
 2442 1ffc 0300A0E1 		bl	__muldf3
 2443 2000 0410A0E1 		mov	r3, r0
 2444 2004 FEFFFFEB 		mov	r4, r1
 2445 2008 0030A0E1 		mov	r5, r3
 2446 200c 0140A0E1 		mov	r6, r4
 2447 2010 0500A0E1 		ldr	r0, [fp, #-52]	@ float
 2448 2014 0610A0E1 		bl	__extendsfdf2
 2449 2018 0320A0E1 		mov	r3, r0
 2450 201c 0430A0E1 		mov	r4, r1
 2451 2020 FEFFFFEB 		mov	r0, r3
 2452 2024 0030A0E1 		mov	r1, r4
 2453 2028 0140A0E1 		bl	sin
 2454 202c 0900A0E1 		mov	r3, r0
 2455 2030 0A10A0E1 		mov	r4, r1
 2456 2034 0320A0E1 		mov	r0, r5
 2457 2038 0430A0E1 		mov	r1, r6
 2458 203c FEFFFFEB 		mov	r2, r3
 2459 2040 0030A0E1 		mov	r3, r4
 2460 2044 0140A0E1 		bl	__muldf3
 2461 2048 0390A0E1 		mov	r3, r0
 2462 204c 04A0A0E1 		mov	r4, r1
 2463 2050 2C001BE5 		mov	r5, r3
 2464 2054 FEFFFFEB 		mov	r6, r4
 2465 2058 0030A0E1 		ldr	r0, [fp, #-48]	@ float
 2466 205c 0140A0E1 		bl	__extendsfdf2
 2467 2060 0300A0E1 		mov	r3, r0
 2468 2064 0410A0E1 		mov	r4, r1
 2469 2068 FEFFFFEB 		mov	r0, r3
 2470 206c 0050A0E1 		mov	r1, r4
 2471 2070 0160A0E1 		bl	sin
 2472 2074 2C001BE5 		mov	r3, r0
 2473 2078 FEFFFFEB 		mov	r4, r1
 2474 207c 0030A0E1 		mov	r0, r5
 2475 2080 0140A0E1 		mov	r1, r6
 2476 2084 0300A0E1 		mov	r2, r3
 2477 2088 0410A0E1 		mov	r3, r4
 2478 208c FEFFFFEB 		bl	__muldf3
 2479 2090 0030A0E1 		mov	r3, r0
 2480 2094 0140A0E1 		mov	r4, r1
 2481 2098 0500A0E1 		mov	r5, r3
 2482 209c 0610A0E1 		mov	r6, r4
 2483 20a0 0320A0E1 		ldr	r0, [fp, #-48]	@ float
 2484 20a4 0430A0E1 		bl	__extendsfdf2
 2485 20a8 FEFFFFEB 		mov	r3, r0
 2486 20ac 0030A0E1 		mov	r4, r1
 2487 20b0 0140A0E1 		mov	r0, r3
 2488 20b4 0350A0E1 		mov	r1, r4
 2489 20b8 0460A0E1 		bl	sin
 2490 20bc 34001BE5 		mov	r3, r0
 2491 20c0 FEFFFFEB 		mov	r4, r1
 2492 20c4 0030A0E1 		mov	r0, r5
 2493 20c8 0140A0E1 		mov	r1, r6
 2494 20cc 0300A0E1 		mov	r2, r3
 2495 20d0 0410A0E1 		mov	r3, r4
 2496 20d4 FEFFFFEB 		bl	__muldf3
 2497 20d8 0030A0E1 		mov	r3, r0
 2498 20dc 0140A0E1 		mov	r4, r1
 2499 20e0 0500A0E1 		mov	r0, r9
 2500 20e4 0610A0E1 		mov	r1, sl
 2501 20e8 0320A0E1 		mov	r2, r3
 2502 20ec 0430A0E1 		mov	r3, r4
 2503 20f0 FEFFFFEB 		bl	__adddf3
 2504 20f4 0030A0E1 		mov	r3, r0
 2505 20f8 0140A0E1 		mov	r4, r1
 2506 20fc 0350A0E1 		mov	r9, r3
 2507 2100 0460A0E1 		mov	sl, r4
 2508 2104 34001BE5 		ldr	r0, [fp, #-52]	@ float
 2509 2108 FEFFFFEB 		bl	__extendsfdf2
 2510 210c 0030A0E1 		mov	r3, r0
 2511 2110 0140A0E1 		mov	r4, r1
 2512 2114 0300A0E1 		mov	r0, r3
 2513 2118 0410A0E1 		mov	r1, r4
 2514 211c FEFFFFEB 		bl	sin
 2515 2120 0030A0E1 		mov	r5, r0
 2516 2124 0140A0E1 		mov	r6, r1
 2517 2128 0500A0E1 		ldr	r0, [fp, #-52]	@ float
 2518 212c 0610A0E1 		bl	__extendsfdf2
 2519 2130 0320A0E1 		mov	r3, r0
 2520 2134 0430A0E1 		mov	r4, r1
 2521 2138 FEFFFFEB 		mov	r0, r3
 2522 213c 0030A0E1 		mov	r1, r4
 2523 2140 0140A0E1 		bl	sin
 2524 2144 0350A0E1 		mov	r3, r0
 2525 2148 0460A0E1 		mov	r4, r1
 2526 214c 30001BE5 		mov	r0, r5
 2527 2150 FEFFFFEB 		mov	r1, r6
 2528 2154 0030A0E1 		mov	r2, r3
 2529 2158 0140A0E1 		mov	r3, r4
 2530 215c 0300A0E1 		bl	__muldf3
 2531 2160 0410A0E1 		mov	r3, r0
 2532 2164 FEFFFFEB 		mov	r4, r1
 2533 2168 0030A0E1 		mov	r5, r3
 2534 216c 0140A0E1 		mov	r6, r4
 2535 2170 0500A0E1 		ldr	r0, [fp, #-48]	@ float
 2536 2174 0610A0E1 		bl	__extendsfdf2
 2537 2178 0320A0E1 		mov	r3, r0
 2538 217c 0430A0E1 		mov	r4, r1
 2539 2180 FEFFFFEB 		mov	r0, r3
 2540 2184 0030A0E1 		mov	r1, r4
 2541 2188 0140A0E1 		bl	sin
 2542 218c 0350A0E1 		mov	r3, r0
 2543 2190 0460A0E1 		mov	r4, r1
 2544 2194 30001BE5 		mov	r0, r5
 2545 2198 FEFFFFEB 		mov	r1, r6
 2546 219c 0030A0E1 		mov	r2, r3
 2547 21a0 0140A0E1 		mov	r3, r4
 2548 21a4 0300A0E1 		bl	__muldf3
 2549 21a8 0410A0E1 		mov	r3, r0
 2550 21ac FEFFFFEB 		mov	r4, r1
 2551 21b0 0030A0E1 		mov	r5, r3
 2552 21b4 0140A0E1 		mov	r6, r4
 2553 21b8 0500A0E1 		ldr	r0, [fp, #-48]	@ float
 2554 21bc 0610A0E1 		bl	__extendsfdf2
 2555 21c0 0320A0E1 		mov	r3, r0
 2556 21c4 0430A0E1 		mov	r4, r1
 2557 21c8 FEFFFFEB 		mov	r0, r3
 2558 21cc 0030A0E1 		mov	r1, r4
 2559 21d0 0140A0E1 		bl	sin
 2560 21d4 0900A0E1 		mov	r3, r0
 2561 21d8 0A10A0E1 		mov	r4, r1
 2562 21dc 0320A0E1 		mov	r0, r5
 2563 21e0 0430A0E1 		mov	r1, r6
 2564 21e4 FEFFFFEB 		mov	r2, r3
 2565 21e8 0030A0E1 		mov	r3, r4
 2566 21ec 0140A0E1 		bl	__muldf3
 2567 21f0 0390A0E1 		mov	r3, r0
 2568 21f4 04A0A0E1 		mov	r4, r1
 2569 21f8 34001BE5 		mov	r5, r3
 2570 21fc FEFFFFEB 		mov	r6, r4
 2571 2200 0030A0E1 		ldr	r0, [fp, #-44]	@ float
 2572 2204 0140A0E1 		bl	__extendsfdf2
 2573 2208 0300A0E1 		mov	r3, r0
 2574 220c 0410A0E1 		mov	r4, r1
 2575 2210 FEFFFFEB 		mov	r0, r3
 2576 2214 0050A0E1 		mov	r1, r4
 2577 2218 0160A0E1 		bl	sin
 2578 221c 34001BE5 		mov	r3, r0
 2579 2220 FEFFFFEB 		mov	r4, r1
 2580 2224 0030A0E1 		mov	r0, r5
 2581 2228 0140A0E1 		mov	r1, r6
 2582 222c 0300A0E1 		mov	r2, r3
 2583 2230 0410A0E1 		mov	r3, r4
 2584 2234 FEFFFFEB 		bl	__muldf3
 2585 2238 0030A0E1 		mov	r3, r0
 2586 223c 0140A0E1 		mov	r4, r1
 2587 2240 0500A0E1 		mov	r5, r3
 2588 2244 0610A0E1 		mov	r6, r4
 2589 2248 0320A0E1 		ldr	r0, [fp, #-44]	@ float
 2590 224c 0430A0E1 		bl	__extendsfdf2
 2591 2250 FEFFFFEB 		mov	r3, r0
 2592 2254 0030A0E1 		mov	r4, r1
 2593 2258 0140A0E1 		mov	r0, r3
 2594 225c 0350A0E1 		mov	r1, r4
 2595 2260 0460A0E1 		bl	sin
 2596 2264 30001BE5 		mov	r3, r0
 2597 2268 FEFFFFEB 		mov	r4, r1
 2598 226c 0030A0E1 		mov	r0, r5
 2599 2270 0140A0E1 		mov	r1, r6
 2600 2274 0300A0E1 		mov	r2, r3
 2601 2278 0410A0E1 		mov	r3, r4
 2602 227c FEFFFFEB 		bl	__muldf3
 2603 2280 0030A0E1 		mov	r3, r0
 2604 2284 0140A0E1 		mov	r4, r1
 2605 2288 0500A0E1 		mov	r0, r9
 2606 228c 0610A0E1 		mov	r1, sl
 2607 2290 0320A0E1 		mov	r2, r3
 2608 2294 0430A0E1 		mov	r3, r4
 2609 2298 FEFFFFEB 		bl	__adddf3
 2610 229c 0030A0E1 		mov	r3, r0
 2611 22a0 0140A0E1 		mov	r4, r1
 2612 22a4 0350A0E1 		mov	r0, r7
 2613 22a8 0460A0E1 		mov	r1, r8
 2614 22ac 30001BE5 		mov	r2, r3
 2615 22b0 FEFFFFEB 		mov	r3, r4
 2616 22b4 0030A0E1 		bl	__divdf3
 2617 22b8 0140A0E1 		mov	r3, r0
 2618 22bc 0300A0E1 		mov	r4, r1
 2619 22c0 0410A0E1 		mov	r0, r3
 2620 22c4 FEFFFFEB 		mov	r1, r4
 2621 22c8 0030A0E1 		bl	__truncdfsf2
 2622 22cc 0140A0E1 		mov	r3, r0
 2623 22d0 0500A0E1 		str	r3, [fp, #-180]	@ float
 2624 22d4 0610A0E1 		.loc 1 304 0
 2625 22d8 0320A0E1 		ldr	r0, [fp, #-52]	@ float
 2626 22dc 0430A0E1 		bl	__extendsfdf2
 2627 22e0 FEFFFFEB 		mov	r3, r0
 2628 22e4 0030A0E1 		mov	r4, r1
 2629 22e8 0140A0E1 		mov	r0, r3
 2630 22ec 0350A0E1 		mov	r1, r4
 2631 22f0 0460A0E1 		bl	cos
 2632 22f4 2C001BE5 		mov	r5, r0
 2633 22f8 FEFFFFEB 		mov	r6, r1
 2634 22fc 0030A0E1 		ldr	r0, [fp, #-44]	@ float
 2635 2300 0140A0E1 		bl	__extendsfdf2
 2636 2304 0300A0E1 		mov	r3, r0
 2637 2308 0410A0E1 		mov	r4, r1
 2638 230c FEFFFFEB 		mov	r0, r3
 2639 2310 0030A0E1 		mov	r1, r4
 2640 2314 0140A0E1 		bl	cos
 2641 2318 0500A0E1 		mov	r3, r0
 2642 231c 0610A0E1 		mov	r4, r1
 2643 2320 0320A0E1 		mov	r0, r5
 2644 2324 0430A0E1 		mov	r1, r6
 2645 2328 FEFFFFEB 		mov	r2, r3
 2646 232c 0030A0E1 		mov	r3, r4
 2647 2330 0140A0E1 		bl	__muldf3
 2648 2334 0350A0E1 		mov	r3, r0
 2649 2338 0460A0E1 		mov	r4, r1
 2650 233c 2C001BE5 		mov	r5, r3
 2651 2340 FEFFFFEB 		mov	r6, r4
 2652 2344 0030A0E1 		ldr	r0, [fp, #-48]	@ float
 2653 2348 0140A0E1 		bl	__extendsfdf2
 2654 234c 0300A0E1 		mov	r3, r0
 2655 2350 0410A0E1 		mov	r4, r1
 2656 2354 FEFFFFEB 		mov	r0, r3
 2657 2358 0030A0E1 		mov	r1, r4
 2658 235c 0140A0E1 		bl	cos
 2659 2360 0500A0E1 		mov	r3, r0
 2660 2364 0610A0E1 		mov	r4, r1
 2661 2368 0320A0E1 		mov	r0, r5
 2662 236c 0430A0E1 		mov	r1, r6
 2663 2370 FEFFFFEB 		mov	r2, r3
 2664 2374 0030A0E1 		mov	r3, r4
 2665 2378 0140A0E1 		bl	__muldf3
 2666 237c 0900A0E1 		mov	r3, r0
 2667 2380 0A10A0E1 		mov	r4, r1
 2668 2384 0320A0E1 		mov	r5, r3
 2669 2388 0430A0E1 		mov	r6, r4
 2670 238c FEFFFFEB 		ldr	r0, [fp, #-48]	@ float
 2671 2390 0030A0E1 		bl	__extendsfdf2
 2672 2394 0140A0E1 		mov	r3, r0
 2673 2398 0700A0E1 		mov	r4, r1
 2674 239c 0810A0E1 		mov	r0, r3
 2675 23a0 0320A0E1 		mov	r1, r4
 2676 23a4 0430A0E1 		bl	cos
 2677 23a8 FEFFFFEB 		mov	r3, r0
 2678 23ac 0030A0E1 		mov	r4, r1
 2679 23b0 0140A0E1 		mov	r0, r5
 2680 23b4 0300A0E1 		mov	r1, r6
 2681 23b8 0410A0E1 		mov	r2, r3
 2682 23bc FEFFFFEB 		mov	r3, r4
 2683 23c0 0030A0E1 		bl	__muldf3
 2684 23c4 B4300BE5 		mov	r3, r0
 304:lab.c         **** 	Rinv[4] = (cos(th1)*cos(th3)*cos(th2)*cos(th2) + cos(th1)*cos(th3)*sin(th2)*sin(th2) + sin(th1)*si
 2685              	r4, r1
 2686 23c8 34001BE5 		mov	r0, r3
 2687 23cc FEFFFFEB 		mov	r1, r4
 2688 23d0 0030A0E1 		bl	cos
 2689 23d4 0140A0E1 		mov	r5, r0
 2690 23d8 0300A0E1 		mov	r6, r1
 2691 23dc 0410A0E1 		ldr	r0, [fp, #-44]	@ float
 2692 23e0 FEFFFFEB 		bl	__extendsfdf2
 2693 23e4 0050A0E1 		mov	r3, r0
 2694 23e8 0160A0E1 		mov	r4, r1
 2695 23ec 2C001BE5 		mov	r0, r3
 2696 23f0 FEFFFFEB 		mov	r1, r4
 2697 23f4 0030A0E1 		bl	cos
 2698 23f8 0140A0E1 		mov	r3, r0
 2699 23fc 0300A0E1 		mov	r4, r1
 2700 2400 0410A0E1 		mov	r0, r5
 2701 2404 FEFFFFEB 		mov	r1, r6
 2702 2408 0030A0E1 		mov	r2, r3
 2703 240c 0140A0E1 		mov	r3, r4
 2704 2410 0500A0E1 		bl	__muldf3
 2705 2414 0610A0E1 		mov	r3, r0
 2706 2418 0320A0E1 		mov	r4, r1
 2707 241c 0430A0E1 		mov	r5, r3
 2708 2420 FEFFFFEB 		mov	r6, r4
 2709 2424 0030A0E1 		ldr	r0, [fp, #-48]	@ float
 2710 2428 0140A0E1 		bl	__extendsfdf2
 2711 242c 0350A0E1 		mov	r3, r0
 2712 2430 0460A0E1 		mov	r4, r1
 2713 2434 30001BE5 		mov	r0, r3
 2714 2438 FEFFFFEB 		mov	r1, r4
 2715 243c 0030A0E1 		bl	sin
 2716 2440 0140A0E1 		mov	r3, r0
 2717 2444 0300A0E1 		mov	r4, r1
 2718 2448 0410A0E1 		mov	r0, r5
 2719 244c FEFFFFEB 		mov	r1, r6
 2720 2450 0030A0E1 		mov	r2, r3
 2721 2454 0140A0E1 		mov	r3, r4
 2722 2458 0500A0E1 		bl	__muldf3
 2723 245c 0610A0E1 		mov	r3, r0
 2724 2460 0320A0E1 		mov	r4, r1
 2725 2464 0430A0E1 		mov	r5, r3
 2726 2468 FEFFFFEB 		mov	r6, r4
 2727 246c 0030A0E1 		ldr	r0, [fp, #-48]	@ float
 2728 2470 0140A0E1 		bl	__extendsfdf2
 2729 2474 0350A0E1 		mov	r3, r0
 2730 2478 0460A0E1 		mov	r4, r1
 2731 247c 30001BE5 		mov	r0, r3
 2732 2480 FEFFFFEB 		mov	r1, r4
 2733 2484 0030A0E1 		bl	sin
 2734 2488 0140A0E1 		mov	r3, r0
 2735 248c 0300A0E1 		mov	r4, r1
 2736 2490 0410A0E1 		mov	r0, r5
 2737 2494 FEFFFFEB 		mov	r1, r6
 2738 2498 0030A0E1 		mov	r2, r3
 2739 249c 0140A0E1 		mov	r3, r4
 2740 24a0 0500A0E1 		bl	__muldf3
 2741 24a4 0610A0E1 		mov	r3, r0
 2742 24a8 0320A0E1 		mov	r4, r1
 2743 24ac 0430A0E1 		mov	r0, r7
 2744 24b0 FEFFFFEB 		mov	r1, r8
 2745 24b4 0030A0E1 		mov	r2, r3
 2746 24b8 0140A0E1 		mov	r3, r4
 2747 24bc 0370A0E1 		bl	__adddf3
 2748 24c0 0480A0E1 		mov	r3, r0
 2749 24c4 34001BE5 		mov	r4, r1
 2750 24c8 FEFFFFEB 		mov	r7, r3
 2751 24cc 0030A0E1 		mov	r8, r4
 2752 24d0 0140A0E1 		ldr	r0, [fp, #-52]	@ float
 2753 24d4 0300A0E1 		bl	__extendsfdf2
 2754 24d8 0410A0E1 		mov	r3, r0
 2755 24dc FEFFFFEB 		mov	r4, r1
 2756 24e0 0050A0E1 		mov	r0, r3
 2757 24e4 0160A0E1 		mov	r1, r4
 2758 24e8 2C001BE5 		bl	sin
 2759 24ec FEFFFFEB 		mov	r5, r0
 2760 24f0 0030A0E1 		mov	r6, r1
 2761 24f4 0140A0E1 		ldr	r0, [fp, #-44]	@ float
 2762 24f8 0300A0E1 		bl	__extendsfdf2
 2763 24fc 0410A0E1 		mov	r3, r0
 2764 2500 FEFFFFEB 		mov	r4, r1
 2765 2504 0030A0E1 		mov	r0, r3
 2766 2508 0140A0E1 		mov	r1, r4
 2767 250c 0500A0E1 		bl	sin
 2768 2510 0610A0E1 		mov	r3, r0
 2769 2514 0320A0E1 		mov	r4, r1
 2770 2518 0430A0E1 		mov	r0, r5
 2771 251c FEFFFFEB 		mov	r1, r6
 2772 2520 0030A0E1 		mov	r2, r3
 2773 2524 0140A0E1 		mov	r3, r4
 2774 2528 0350A0E1 		bl	__muldf3
 2775 252c 0460A0E1 		mov	r3, r0
 2776 2530 30001BE5 		mov	r4, r1
 2777 2534 FEFFFFEB 		mov	r5, r3
 2778 2538 0030A0E1 		mov	r6, r4
 2779 253c 0140A0E1 		ldr	r0, [fp, #-48]	@ float
 2780 2540 0300A0E1 		bl	__extendsfdf2
 2781 2544 0410A0E1 		mov	r3, r0
 2782 2548 FEFFFFEB 		mov	r4, r1
 2783 254c 0030A0E1 		mov	r0, r3
 2784 2550 0140A0E1 		mov	r1, r4
 2785 2554 0500A0E1 		bl	sin
 2786 2558 0610A0E1 		mov	r3, r0
 2787 255c 0320A0E1 		mov	r4, r1
 2788 2560 0430A0E1 		mov	r0, r5
 2789 2564 FEFFFFEB 		mov	r1, r6
 2790 2568 0030A0E1 		mov	r2, r3
 2791 256c 0140A0E1 		mov	r3, r4
 2792 2570 0350A0E1 		bl	__muldf3
 2793 2574 0460A0E1 		mov	r3, r0
 2794 2578 30001BE5 		mov	r4, r1
 2795 257c FEFFFFEB 		mov	r0, r7
 2796 2580 0030A0E1 		mov	r1, r8
 2797 2584 0140A0E1 		mov	r2, r3
 2798 2588 0300A0E1 		mov	r3, r4
 2799 258c 0410A0E1 		bl	__adddf3
 2800 2590 FEFFFFEB 		mov	r3, r0
 2801 2594 0030A0E1 		mov	r4, r1
 2802 2598 0140A0E1 		mov	r7, r3
 2803 259c 0500A0E1 		mov	r8, r4
 2804 25a0 0610A0E1 		ldr	r0, [fp, #-52]	@ float
 2805 25a4 0320A0E1 		bl	__extendsfdf2
 2806 25a8 0430A0E1 		mov	r3, r0
 2807 25ac FEFFFFEB 		mov	r4, r1
 2808 25b0 0030A0E1 		mov	r0, r3
 2809 25b4 0140A0E1 		mov	r1, r4
 2810 25b8 0700A0E1 		bl	cos
 2811 25bc 0810A0E1 		mov	r5, r0
 2812 25c0 0320A0E1 		mov	r6, r1
 2813 25c4 0430A0E1 		ldr	r0, [fp, #-52]	@ float
 2814 25c8 FEFFFFEB 		bl	__extendsfdf2
 2815 25cc 0030A0E1 		mov	r3, r0
 2816 25d0 0140A0E1 		mov	r4, r1
 2817 25d4 0370A0E1 		mov	r0, r3
 2818 25d8 0480A0E1 		mov	r1, r4
 2819 25dc 34001BE5 		bl	cos
 2820 25e0 FEFFFFEB 		mov	r3, r0
 2821 25e4 0030A0E1 		mov	r4, r1
 2822 25e8 0140A0E1 		mov	r0, r5
 2823 25ec 0300A0E1 		mov	r1, r6
 2824 25f0 0410A0E1 		mov	r2, r3
 2825 25f4 FEFFFFEB 		mov	r3, r4
 2826 25f8 0050A0E1 		bl	__muldf3
 2827 25fc 0160A0E1 		mov	r3, r0
 2828 2600 2C001BE5 		mov	r4, r1
 2829 2604 FEFFFFEB 		mov	r5, r3
 2830 2608 0030A0E1 		mov	r6, r4
 2831 260c 0140A0E1 		ldr	r0, [fp, #-48]	@ float
 2832 2610 0300A0E1 		bl	__extendsfdf2
 2833 2614 0410A0E1 		mov	r3, r0
 2834 2618 FEFFFFEB 		mov	r4, r1
 2835 261c 0030A0E1 		mov	r0, r3
 2836 2620 0140A0E1 		mov	r1, r4
 2837 2624 0500A0E1 		bl	cos
 2838 2628 0610A0E1 		mov	r3, r0
 2839 262c 0320A0E1 		mov	r4, r1
 2840 2630 0430A0E1 		mov	r0, r5
 2841 2634 FEFFFFEB 		mov	r1, r6
 2842 2638 0030A0E1 		mov	r2, r3
 2843 263c 0140A0E1 		mov	r3, r4
 2844 2640 0350A0E1 		bl	__muldf3
 2845 2644 0460A0E1 		mov	r3, r0
 2846 2648 30001BE5 		mov	r4, r1
 2847 264c FEFFFFEB 		mov	r5, r3
 2848 2650 0030A0E1 		mov	r6, r4
 2849 2654 0140A0E1 		ldr	r0, [fp, #-48]	@ float
 2850 2658 0300A0E1 		bl	__extendsfdf2
 2851 265c 0410A0E1 		mov	r3, r0
 2852 2660 FEFFFFEB 		mov	r4, r1
 2853 2664 0030A0E1 		mov	r0, r3
 2854 2668 0140A0E1 		mov	r1, r4
 2855 266c 0500A0E1 		bl	cos
 2856 2670 0610A0E1 		mov	r3, r0
 2857 2674 0320A0E1 		mov	r4, r1
 2858 2678 0430A0E1 		mov	r0, r5
 2859 267c FEFFFFEB 		mov	r1, r6
 2860 2680 0030A0E1 		mov	r2, r3
 2861 2684 0140A0E1 		mov	r3, r4
 2862 2688 0700A0E1 		bl	__muldf3
 2863 268c 0810A0E1 		mov	r3, r0
 2864 2690 0320A0E1 		mov	r4, r1
 2865 2694 0430A0E1 		mov	r5, r3
 2866 2698 FEFFFFEB 		mov	r6, r4
 2867 269c 0030A0E1 		ldr	r0, [fp, #-44]	@ float
 2868 26a0 0140A0E1 		bl	__extendsfdf2
 2869 26a4 0370A0E1 		mov	r3, r0
 2870 26a8 0480A0E1 		mov	r4, r1
 2871 26ac 34001BE5 		mov	r0, r3
 2872 26b0 FEFFFFEB 		mov	r1, r4
 2873 26b4 0030A0E1 		bl	cos
 2874 26b8 0140A0E1 		mov	r3, r0
 2875 26bc 0300A0E1 		mov	r4, r1
 2876 26c0 0410A0E1 		mov	r0, r5
 2877 26c4 FEFFFFEB 		mov	r1, r6
 2878 26c8 0050A0E1 		mov	r2, r3
 2879 26cc 0160A0E1 		mov	r3, r4
 2880 26d0 34001BE5 		bl	__muldf3
 2881 26d4 FEFFFFEB 		mov	r3, r0
 2882 26d8 0030A0E1 		mov	r4, r1
 2883 26dc 0140A0E1 		mov	r5, r3
 2884 26e0 0300A0E1 		mov	r6, r4
 2885 26e4 0410A0E1 		ldr	r0, [fp, #-44]	@ float
 2886 26e8 FEFFFFEB 		bl	__extendsfdf2
 2887 26ec 0030A0E1 		mov	r3, r0
 2888 26f0 0140A0E1 		mov	r4, r1
 2889 26f4 0500A0E1 		mov	r0, r3
 2890 26f8 0610A0E1 		mov	r1, r4
 2891 26fc 0320A0E1 		bl	cos
 2892 2700 0430A0E1 		mov	r3, r0
 2893 2704 FEFFFFEB 		mov	r4, r1
 2894 2708 0030A0E1 		mov	r0, r5
 2895 270c 0140A0E1 		mov	r1, r6
 2896 2710 0350A0E1 		mov	r2, r3
 2897 2714 0460A0E1 		mov	r3, r4
 2898 2718 30001BE5 		bl	__muldf3
 2899 271c FEFFFFEB 		mov	r3, r0
 2900 2720 0030A0E1 		mov	r4, r1
 2901 2724 0140A0E1 		mov	r9, r3
 2902 2728 0300A0E1 		mov	sl, r4
 2903 272c 0410A0E1 		ldr	r0, [fp, #-52]	@ float
 2904 2730 FEFFFFEB 		bl	__extendsfdf2
 2905 2734 0030A0E1 		mov	r3, r0
 2906 2738 0140A0E1 		mov	r4, r1
 2907 273c 0500A0E1 		mov	r0, r3
 2908 2740 0610A0E1 		mov	r1, r4
 2909 2744 0320A0E1 		bl	cos
 2910 2748 0430A0E1 		mov	r5, r0
 2911 274c FEFFFFEB 		mov	r6, r1
 2912 2750 0030A0E1 		ldr	r0, [fp, #-52]	@ float
 2913 2754 0140A0E1 		bl	__extendsfdf2
 2914 2758 0350A0E1 		mov	r3, r0
 2915 275c 0460A0E1 		mov	r4, r1
 2916 2760 30001BE5 		mov	r0, r3
 2917 2764 FEFFFFEB 		mov	r1, r4
 2918 2768 0030A0E1 		bl	cos
 2919 276c 0140A0E1 		mov	r3, r0
 2920 2770 0300A0E1 		mov	r4, r1
 2921 2774 0410A0E1 		mov	r0, r5
 2922 2778 FEFFFFEB 		mov	r1, r6
 2923 277c 0030A0E1 		mov	r2, r3
 2924 2780 0140A0E1 		mov	r3, r4
 2925 2784 0500A0E1 		bl	__muldf3
 2926 2788 0610A0E1 		mov	r3, r0
 2927 278c 0320A0E1 		mov	r4, r1
 2928 2790 0430A0E1 		mov	r5, r3
 2929 2794 FEFFFFEB 		mov	r6, r4
 2930 2798 0030A0E1 		ldr	r0, [fp, #-48]	@ float
 2931 279c 0140A0E1 		bl	__extendsfdf2
 2932 27a0 0350A0E1 		mov	r3, r0
 2933 27a4 0460A0E1 		mov	r4, r1
 2934 27a8 2C001BE5 		mov	r0, r3
 2935 27ac FEFFFFEB 		mov	r1, r4
 2936 27b0 0030A0E1 		bl	cos
 2937 27b4 0140A0E1 		mov	r3, r0
 2938 27b8 0300A0E1 		mov	r4, r1
 2939 27bc 0410A0E1 		mov	r0, r5
 2940 27c0 FEFFFFEB 		mov	r1, r6
 2941 27c4 0030A0E1 		mov	r2, r3
 2942 27c8 0140A0E1 		mov	r3, r4
 2943 27cc 0500A0E1 		bl	__muldf3
 2944 27d0 0610A0E1 		mov	r3, r0
 2945 27d4 0320A0E1 		mov	r4, r1
 2946 27d8 0430A0E1 		mov	r5, r3
 2947 27dc FEFFFFEB 		mov	r6, r4
 2948 27e0 0030A0E1 		ldr	r0, [fp, #-48]	@ float
 2949 27e4 0140A0E1 		bl	__extendsfdf2
 2950 27e8 0350A0E1 		mov	r3, r0
 2951 27ec 0460A0E1 		mov	r4, r1
 2952 27f0 2C001BE5 		mov	r0, r3
 2953 27f4 FEFFFFEB 		mov	r1, r4
 2954 27f8 0030A0E1 		bl	cos
 2955 27fc 0140A0E1 		mov	r3, r0
 2956 2800 0300A0E1 		mov	r4, r1
 2957 2804 0410A0E1 		mov	r0, r5
 2958 2808 FEFFFFEB 		mov	r1, r6
 2959 280c 0030A0E1 		mov	r2, r3
 2960 2810 0140A0E1 		mov	r3, r4
 2961 2814 0500A0E1 		bl	__muldf3
 2962 2818 0610A0E1 		mov	r3, r0
 2963 281c 0320A0E1 		mov	r4, r1
 2964 2820 0430A0E1 		mov	r5, r3
 2965 2824 FEFFFFEB 		mov	r6, r4
 2966 2828 0030A0E1 		ldr	r0, [fp, #-44]	@ float
 2967 282c 0140A0E1 		bl	__extendsfdf2
 2968 2830 0390A0E1 		mov	r3, r0
 2969 2834 04A0A0E1 		mov	r4, r1
 2970 2838 34001BE5 		mov	r0, r3
 2971 283c FEFFFFEB 		mov	r1, r4
 2972 2840 0030A0E1 		bl	sin
 2973 2844 0140A0E1 		mov	r3, r0
 2974 2848 0300A0E1 		mov	r4, r1
 2975 284c 0410A0E1 		mov	r0, r5
 2976 2850 FEFFFFEB 		mov	r1, r6
 2977 2854 0050A0E1 		mov	r2, r3
 2978 2858 0160A0E1 		mov	r3, r4
 2979 285c 34001BE5 		bl	__muldf3
 2980 2860 FEFFFFEB 		mov	r3, r0
 2981 2864 0030A0E1 		mov	r4, r1
 2982 2868 0140A0E1 		mov	r5, r3
 2983 286c 0300A0E1 		mov	r6, r4
 2984 2870 0410A0E1 		ldr	r0, [fp, #-44]	@ float
 2985 2874 FEFFFFEB 		bl	__extendsfdf2
 2986 2878 0030A0E1 		mov	r3, r0
 2987 287c 0140A0E1 		mov	r4, r1
 2988 2880 0500A0E1 		mov	r0, r3
 2989 2884 0610A0E1 		mov	r1, r4
 2990 2888 0320A0E1 		bl	sin
 2991 288c 0430A0E1 		mov	r3, r0
 2992 2890 FEFFFFEB 		mov	r4, r1
 2993 2894 0030A0E1 		mov	r0, r5
 2994 2898 0140A0E1 		mov	r1, r6
 2995 289c 0350A0E1 		mov	r2, r3
 2996 28a0 0460A0E1 		mov	r3, r4
 2997 28a4 30001BE5 		bl	__muldf3
 2998 28a8 FEFFFFEB 		mov	r3, r0
 2999 28ac 0030A0E1 		mov	r4, r1
 3000 28b0 0140A0E1 		mov	r0, r9
 3001 28b4 0300A0E1 		mov	r1, sl
 3002 28b8 0410A0E1 		mov	r2, r3
 3003 28bc FEFFFFEB 		mov	r3, r4
 3004 28c0 0030A0E1 		bl	__adddf3
 3005 28c4 0140A0E1 		mov	r3, r0
 3006 28c8 0500A0E1 		mov	r4, r1
 3007 28cc 0610A0E1 		mov	r9, r3
 3008 28d0 0320A0E1 		mov	sl, r4
 3009 28d4 0430A0E1 		ldr	r0, [fp, #-52]	@ float
 3010 28d8 FEFFFFEB 		bl	__extendsfdf2
 3011 28dc 0030A0E1 		mov	r3, r0
 3012 28e0 0140A0E1 		mov	r4, r1
 3013 28e4 0350A0E1 		mov	r0, r3
 3014 28e8 0460A0E1 		mov	r1, r4
 3015 28ec 30001BE5 		bl	cos
 3016 28f0 FEFFFFEB 		mov	r5, r0
 3017 28f4 0030A0E1 		mov	r6, r1
 3018 28f8 0140A0E1 		ldr	r0, [fp, #-52]	@ float
 3019 28fc 0300A0E1 		bl	__extendsfdf2
 3020 2900 0410A0E1 		mov	r3, r0
 3021 2904 FEFFFFEB 		mov	r4, r1
 3022 2908 0030A0E1 		mov	r0, r3
 3023 290c 0140A0E1 		mov	r1, r4
 3024 2910 0500A0E1 		bl	cos
 3025 2914 0610A0E1 		mov	r3, r0
 3026 2918 0320A0E1 		mov	r4, r1
 3027 291c 0430A0E1 		mov	r0, r5
 3028 2920 FEFFFFEB 		mov	r1, r6
 3029 2924 0030A0E1 		mov	r2, r3
 3030 2928 0140A0E1 		mov	r3, r4
 3031 292c 0350A0E1 		bl	__muldf3
 3032 2930 0460A0E1 		mov	r3, r0
 3033 2934 2C001BE5 		mov	r4, r1
 3034 2938 FEFFFFEB 		mov	r5, r3
 3035 293c 0030A0E1 		mov	r6, r4
 3036 2940 0140A0E1 		ldr	r0, [fp, #-44]	@ float
 3037 2944 0300A0E1 		bl	__extendsfdf2
 3038 2948 0410A0E1 		mov	r3, r0
 3039 294c FEFFFFEB 		mov	r4, r1
 3040 2950 0030A0E1 		mov	r0, r3
 3041 2954 0140A0E1 		mov	r1, r4
 3042 2958 0500A0E1 		bl	cos
 3043 295c 0610A0E1 		mov	r3, r0
 3044 2960 0320A0E1 		mov	r4, r1
 3045 2964 0430A0E1 		mov	r0, r5
 3046 2968 FEFFFFEB 		mov	r1, r6
 3047 296c 0030A0E1 		mov	r2, r3
 3048 2970 0140A0E1 		mov	r3, r4
 3049 2974 0350A0E1 		bl	__muldf3
 3050 2978 0460A0E1 		mov	r3, r0
 3051 297c 2C001BE5 		mov	r4, r1
 3052 2980 FEFFFFEB 		mov	r5, r3
 3053 2984 0030A0E1 		mov	r6, r4
 3054 2988 0140A0E1 		ldr	r0, [fp, #-44]	@ float
 3055 298c 0300A0E1 		bl	__extendsfdf2
 3056 2990 0410A0E1 		mov	r3, r0
 3057 2994 FEFFFFEB 		mov	r4, r1
 3058 2998 0030A0E1 		mov	r0, r3
 3059 299c 0140A0E1 		mov	r1, r4
 3060 29a0 0500A0E1 		bl	cos
 3061 29a4 0610A0E1 		mov	r3, r0
 3062 29a8 0320A0E1 		mov	r4, r1
 3063 29ac 0430A0E1 		mov	r0, r5
 3064 29b0 FEFFFFEB 		mov	r1, r6
 3065 29b4 0030A0E1 		mov	r2, r3
 3066 29b8 0140A0E1 		mov	r3, r4
 3067 29bc 0900A0E1 		bl	__muldf3
 3068 29c0 0A10A0E1 		mov	r3, r0
 3069 29c4 0320A0E1 		mov	r4, r1
 3070 29c8 0430A0E1 		mov	r5, r3
 3071 29cc FEFFFFEB 		mov	r6, r4
 3072 29d0 0030A0E1 		ldr	r0, [fp, #-48]	@ float
 3073 29d4 0140A0E1 		bl	__extendsfdf2
 3074 29d8 0390A0E1 		mov	r3, r0
 3075 29dc 04A0A0E1 		mov	r4, r1
 3076 29e0 34001BE5 		mov	r0, r3
 3077 29e4 FEFFFFEB 		mov	r1, r4
 3078 29e8 0030A0E1 		bl	sin
 3079 29ec 0140A0E1 		mov	r3, r0
 3080 29f0 0300A0E1 		mov	r4, r1
 3081 29f4 0410A0E1 		mov	r0, r5
 3082 29f8 FEFFFFEB 		mov	r1, r6
 3083 29fc 0050A0E1 		mov	r2, r3
 3084 2a00 0160A0E1 		mov	r3, r4
 3085 2a04 34001BE5 		bl	__muldf3
 3086 2a08 FEFFFFEB 		mov	r3, r0
 3087 2a0c 0030A0E1 		mov	r4, r1
 3088 2a10 0140A0E1 		mov	r5, r3
 3089 2a14 0300A0E1 		mov	r6, r4
 3090 2a18 0410A0E1 		ldr	r0, [fp, #-48]	@ float
 3091 2a1c FEFFFFEB 		bl	__extendsfdf2
 3092 2a20 0030A0E1 		mov	r3, r0
 3093 2a24 0140A0E1 		mov	r4, r1
 3094 2a28 0500A0E1 		mov	r0, r3
 3095 2a2c 0610A0E1 		mov	r1, r4
 3096 2a30 0320A0E1 		bl	sin
 3097 2a34 0430A0E1 		mov	r3, r0
 3098 2a38 FEFFFFEB 		mov	r4, r1
 3099 2a3c 0030A0E1 		mov	r0, r5
 3100 2a40 0140A0E1 		mov	r1, r6
 3101 2a44 0350A0E1 		mov	r2, r3
 3102 2a48 0460A0E1 		mov	r3, r4
 3103 2a4c 2C001BE5 		bl	__muldf3
 3104 2a50 FEFFFFEB 		mov	r3, r0
 3105 2a54 0030A0E1 		mov	r4, r1
 3106 2a58 0140A0E1 		mov	r0, r9
 3107 2a5c 0300A0E1 		mov	r1, sl
 3108 2a60 0410A0E1 		mov	r2, r3
 3109 2a64 FEFFFFEB 		mov	r3, r4
 3110 2a68 0030A0E1 		bl	__adddf3
 3111 2a6c 0140A0E1 		mov	r3, r0
 3112 2a70 0500A0E1 		mov	r4, r1
 3113 2a74 0610A0E1 		mov	r9, r3
 3114 2a78 0320A0E1 		mov	sl, r4
 3115 2a7c 0430A0E1 		ldr	r0, [fp, #-52]	@ float
 3116 2a80 FEFFFFEB 		bl	__extendsfdf2
 3117 2a84 0030A0E1 		mov	r3, r0
 3118 2a88 0140A0E1 		mov	r4, r1
 3119 2a8c 0350A0E1 		mov	r0, r3
 3120 2a90 0460A0E1 		mov	r1, r4
 3121 2a94 2C001BE5 		bl	cos
 3122 2a98 FEFFFFEB 		mov	r5, r0
 3123 2a9c 0030A0E1 		mov	r6, r1
 3124 2aa0 0140A0E1 		ldr	r0, [fp, #-52]	@ float
 3125 2aa4 0300A0E1 		bl	__extendsfdf2
 3126 2aa8 0410A0E1 		mov	r3, r0
 3127 2aac FEFFFFEB 		mov	r4, r1
 3128 2ab0 0030A0E1 		mov	r0, r3
 3129 2ab4 0140A0E1 		mov	r1, r4
 3130 2ab8 0500A0E1 		bl	cos
 3131 2abc 0610A0E1 		mov	r3, r0
 3132 2ac0 0320A0E1 		mov	r4, r1
 3133 2ac4 0430A0E1 		mov	r0, r5
 3134 2ac8 FEFFFFEB 		mov	r1, r6
 3135 2acc 0030A0E1 		mov	r2, r3
 3136 2ad0 0140A0E1 		mov	r3, r4
 3137 2ad4 0350A0E1 		bl	__muldf3
 3138 2ad8 0460A0E1 		mov	r3, r0
 3139 2adc 30001BE5 		mov	r4, r1
 3140 2ae0 FEFFFFEB 		mov	r5, r3
 3141 2ae4 0030A0E1 		mov	r6, r4
 3142 2ae8 0140A0E1 		ldr	r0, [fp, #-48]	@ float
 3143 2aec 0300A0E1 		bl	__extendsfdf2
 3144 2af0 0410A0E1 		mov	r3, r0
 3145 2af4 FEFFFFEB 		mov	r4, r1
 3146 2af8 0030A0E1 		mov	r0, r3
 3147 2afc 0140A0E1 		mov	r1, r4
 3148 2b00 0500A0E1 		bl	sin
 3149 2b04 0610A0E1 		mov	r3, r0
 3150 2b08 0320A0E1 		mov	r4, r1
 3151 2b0c 0430A0E1 		mov	r0, r5
 3152 2b10 FEFFFFEB 		mov	r1, r6
 3153 2b14 0030A0E1 		mov	r2, r3
 3154 2b18 0140A0E1 		mov	r3, r4
 3155 2b1c 0350A0E1 		bl	__muldf3
 3156 2b20 0460A0E1 		mov	r3, r0
 3157 2b24 30001BE5 		mov	r4, r1
 3158 2b28 FEFFFFEB 		mov	r5, r3
 3159 2b2c 0030A0E1 		mov	r6, r4
 3160 2b30 0140A0E1 		ldr	r0, [fp, #-48]	@ float
 3161 2b34 0300A0E1 		bl	__extendsfdf2
 3162 2b38 0410A0E1 		mov	r3, r0
 3163 2b3c FEFFFFEB 		mov	r4, r1
 3164 2b40 0030A0E1 		mov	r0, r3
 3165 2b44 0140A0E1 		mov	r1, r4
 3166 2b48 0500A0E1 		bl	sin
 3167 2b4c 0610A0E1 		mov	r3, r0
 3168 2b50 0320A0E1 		mov	r4, r1
 3169 2b54 0430A0E1 		mov	r0, r5
 3170 2b58 FEFFFFEB 		mov	r1, r6
 3171 2b5c 0030A0E1 		mov	r2, r3
 3172 2b60 0140A0E1 		mov	r3, r4
 3173 2b64 0900A0E1 		bl	__muldf3
 3174 2b68 0A10A0E1 		mov	r3, r0
 3175 2b6c 0320A0E1 		mov	r4, r1
 3176 2b70 0430A0E1 		mov	r5, r3
 3177 2b74 FEFFFFEB 		mov	r6, r4
 3178 2b78 0030A0E1 		ldr	r0, [fp, #-44]	@ float
 3179 2b7c 0140A0E1 		bl	__extendsfdf2
 3180 2b80 0390A0E1 		mov	r3, r0
 3181 2b84 04A0A0E1 		mov	r4, r1
 3182 2b88 34001BE5 		mov	r0, r3
 3183 2b8c FEFFFFEB 		mov	r1, r4
 3184 2b90 0030A0E1 		bl	sin
 3185 2b94 0140A0E1 		mov	r3, r0
 3186 2b98 0300A0E1 		mov	r4, r1
 3187 2b9c 0410A0E1 		mov	r0, r5
 3188 2ba0 FEFFFFEB 		mov	r1, r6
 3189 2ba4 0050A0E1 		mov	r2, r3
 3190 2ba8 0160A0E1 		mov	r3, r4
 3191 2bac 34001BE5 		bl	__muldf3
 3192 2bb0 FEFFFFEB 		mov	r3, r0
 3193 2bb4 0030A0E1 		mov	r4, r1
 3194 2bb8 0140A0E1 		mov	r5, r3
 3195 2bbc 0300A0E1 		mov	r6, r4
 3196 2bc0 0410A0E1 		ldr	r0, [fp, #-44]	@ float
 3197 2bc4 FEFFFFEB 		bl	__extendsfdf2
 3198 2bc8 0030A0E1 		mov	r3, r0
 3199 2bcc 0140A0E1 		mov	r4, r1
 3200 2bd0 0500A0E1 		mov	r0, r3
 3201 2bd4 0610A0E1 		mov	r1, r4
 3202 2bd8 0320A0E1 		bl	sin
 3203 2bdc 0430A0E1 		mov	r3, r0
 3204 2be0 FEFFFFEB 		mov	r4, r1
 3205 2be4 0030A0E1 		mov	r0, r5
 3206 2be8 0140A0E1 		mov	r1, r6
 3207 2bec 0350A0E1 		mov	r2, r3
 3208 2bf0 0460A0E1 		mov	r3, r4
 3209 2bf4 30001BE5 		bl	__muldf3
 3210 2bf8 FEFFFFEB 		mov	r3, r0
 3211 2bfc 0030A0E1 		mov	r4, r1
 3212 2c00 0140A0E1 		mov	r0, r9
 3213 2c04 0300A0E1 		mov	r1, sl
 3214 2c08 0410A0E1 		mov	r2, r3
 3215 2c0c FEFFFFEB 		mov	r3, r4
 3216 2c10 0030A0E1 		bl	__adddf3
 3217 2c14 0140A0E1 		mov	r3, r0
 3218 2c18 0500A0E1 		mov	r4, r1
 3219 2c1c 0610A0E1 		mov	r9, r3
 3220 2c20 0320A0E1 		mov	sl, r4
 3221 2c24 0430A0E1 		ldr	r0, [fp, #-48]	@ float
 3222 2c28 FEFFFFEB 		bl	__extendsfdf2
 3223 2c2c 0030A0E1 		mov	r3, r0
 3224 2c30 0140A0E1 		mov	r4, r1
 3225 2c34 0350A0E1 		mov	r0, r3
 3226 2c38 0460A0E1 		mov	r1, r4
 3227 2c3c 30001BE5 		bl	cos
 3228 2c40 FEFFFFEB 		mov	r5, r0
 3229 2c44 0030A0E1 		mov	r6, r1
 3230 2c48 0140A0E1 		ldr	r0, [fp, #-48]	@ float
 3231 2c4c 0300A0E1 		bl	__extendsfdf2
 3232 2c50 0410A0E1 		mov	r3, r0
 3233 2c54 FEFFFFEB 		mov	r4, r1
 3234 2c58 0030A0E1 		mov	r0, r3
 3235 2c5c 0140A0E1 		mov	r1, r4
 3236 2c60 0500A0E1 		bl	cos
 3237 2c64 0610A0E1 		mov	r3, r0
 3238 2c68 0320A0E1 		mov	r4, r1
 3239 2c6c 0430A0E1 		mov	r0, r5
 3240 2c70 FEFFFFEB 		mov	r1, r6
 3241 2c74 0030A0E1 		mov	r2, r3
 3242 2c78 0140A0E1 		mov	r3, r4
 3243 2c7c 0350A0E1 		bl	__muldf3
 3244 2c80 0460A0E1 		mov	r3, r0
 3245 2c84 2C001BE5 		mov	r4, r1
 3246 2c88 FEFFFFEB 		mov	r5, r3
 3247 2c8c 0030A0E1 		mov	r6, r4
 3248 2c90 0140A0E1 		ldr	r0, [fp, #-44]	@ float
 3249 2c94 0300A0E1 		bl	__extendsfdf2
 3250 2c98 0410A0E1 		mov	r3, r0
 3251 2c9c FEFFFFEB 		mov	r4, r1
 3252 2ca0 0030A0E1 		mov	r0, r3
 3253 2ca4 0140A0E1 		mov	r1, r4
 3254 2ca8 0500A0E1 		bl	cos
 3255 2cac 0610A0E1 		mov	r3, r0
 3256 2cb0 0320A0E1 		mov	r4, r1
 3257 2cb4 0430A0E1 		mov	r0, r5
 3258 2cb8 FEFFFFEB 		mov	r1, r6
 3259 2cbc 0030A0E1 		mov	r2, r3
 3260 2cc0 0140A0E1 		mov	r3, r4
 3261 2cc4 0350A0E1 		bl	__muldf3
 3262 2cc8 0460A0E1 		mov	r3, r0
 3263 2ccc 2C001BE5 		mov	r4, r1
 3264 2cd0 FEFFFFEB 		mov	r5, r3
 3265 2cd4 0030A0E1 		mov	r6, r4
 3266 2cd8 0140A0E1 		ldr	r0, [fp, #-44]	@ float
 3267 2cdc 0300A0E1 		bl	__extendsfdf2
 3268 2ce0 0410A0E1 		mov	r3, r0
 3269 2ce4 FEFFFFEB 		mov	r4, r1
 3270 2ce8 0030A0E1 		mov	r0, r3
 3271 2cec 0140A0E1 		mov	r1, r4
 3272 2cf0 0500A0E1 		bl	cos
 3273 2cf4 0610A0E1 		mov	r3, r0
 3274 2cf8 0320A0E1 		mov	r4, r1
 3275 2cfc 0430A0E1 		mov	r0, r5
 3276 2d00 FEFFFFEB 		mov	r1, r6
 3277 2d04 0030A0E1 		mov	r2, r3
 3278 2d08 0140A0E1 		mov	r3, r4
 3279 2d0c 0900A0E1 		bl	__muldf3
 3280 2d10 0A10A0E1 		mov	r3, r0
 3281 2d14 0320A0E1 		mov	r4, r1
 3282 2d18 0430A0E1 		mov	r5, r3
 3283 2d1c FEFFFFEB 		mov	r6, r4
 3284 2d20 0030A0E1 		ldr	r0, [fp, #-52]	@ float
 3285 2d24 0140A0E1 		bl	__extendsfdf2
 3286 2d28 0390A0E1 		mov	r3, r0
 3287 2d2c 04A0A0E1 		mov	r4, r1
 3288 2d30 30001BE5 		mov	r0, r3
 3289 2d34 FEFFFFEB 		mov	r1, r4
 3290 2d38 0030A0E1 		bl	sin
 3291 2d3c 0140A0E1 		mov	r3, r0
 3292 2d40 0300A0E1 		mov	r4, r1
 3293 2d44 0410A0E1 		mov	r0, r5
 3294 2d48 FEFFFFEB 		mov	r1, r6
 3295 2d4c 0050A0E1 		mov	r2, r3
 3296 2d50 0160A0E1 		mov	r3, r4
 3297 2d54 30001BE5 		bl	__muldf3
 3298 2d58 FEFFFFEB 		mov	r3, r0
 3299 2d5c 0030A0E1 		mov	r4, r1
 3300 2d60 0140A0E1 		mov	r5, r3
 3301 2d64 0300A0E1 		mov	r6, r4
 3302 2d68 0410A0E1 		ldr	r0, [fp, #-52]	@ float
 3303 2d6c FEFFFFEB 		bl	__extendsfdf2
 3304 2d70 0030A0E1 		mov	r3, r0
 3305 2d74 0140A0E1 		mov	r4, r1
 3306 2d78 0500A0E1 		mov	r0, r3
 3307 2d7c 0610A0E1 		mov	r1, r4
 3308 2d80 0320A0E1 		bl	sin
 3309 2d84 0430A0E1 		mov	r3, r0
 3310 2d88 FEFFFFEB 		mov	r4, r1
 3311 2d8c 0030A0E1 		mov	r0, r5
 3312 2d90 0140A0E1 		mov	r1, r6
 3313 2d94 0350A0E1 		mov	r2, r3
 3314 2d98 0460A0E1 		mov	r3, r4
 3315 2d9c 2C001BE5 		bl	__muldf3
 3316 2da0 FEFFFFEB 		mov	r3, r0
 3317 2da4 0030A0E1 		mov	r4, r1
 3318 2da8 0140A0E1 		mov	r0, r9
 3319 2dac 0300A0E1 		mov	r1, sl
 3320 2db0 0410A0E1 		mov	r2, r3
 3321 2db4 FEFFFFEB 		mov	r3, r4
 3322 2db8 0030A0E1 		bl	__adddf3
 3323 2dbc 0140A0E1 		mov	r3, r0
 3324 2dc0 0500A0E1 		mov	r4, r1
 3325 2dc4 0610A0E1 		mov	r9, r3
 3326 2dc8 0320A0E1 		mov	sl, r4
 3327 2dcc 0430A0E1 		ldr	r0, [fp, #-48]	@ float
 3328 2dd0 FEFFFFEB 		bl	__extendsfdf2
 3329 2dd4 0030A0E1 		mov	r3, r0
 3330 2dd8 0140A0E1 		mov	r4, r1
 3331 2ddc 0350A0E1 		mov	r0, r3
 3332 2de0 0460A0E1 		mov	r1, r4
 3333 2de4 2C001BE5 		bl	cos
 3334 2de8 FEFFFFEB 		mov	r5, r0
 3335 2dec 0030A0E1 		mov	r6, r1
 3336 2df0 0140A0E1 		ldr	r0, [fp, #-48]	@ float
 3337 2df4 0300A0E1 		bl	__extendsfdf2
 3338 2df8 0410A0E1 		mov	r3, r0
 3339 2dfc FEFFFFEB 		mov	r4, r1
 3340 2e00 0030A0E1 		mov	r0, r3
 3341 2e04 0140A0E1 		mov	r1, r4
 3342 2e08 0500A0E1 		bl	cos
 3343 2e0c 0610A0E1 		mov	r3, r0
 3344 2e10 0320A0E1 		mov	r4, r1
 3345 2e14 0430A0E1 		mov	r0, r5
 3346 2e18 FEFFFFEB 		mov	r1, r6
 3347 2e1c 0030A0E1 		mov	r2, r3
 3348 2e20 0140A0E1 		mov	r3, r4
 3349 2e24 0350A0E1 		bl	__muldf3
 3350 2e28 0460A0E1 		mov	r3, r0
 3351 2e2c 34001BE5 		mov	r4, r1
 3352 2e30 FEFFFFEB 		mov	r5, r3
 3353 2e34 0030A0E1 		mov	r6, r4
 3354 2e38 0140A0E1 		ldr	r0, [fp, #-52]	@ float
 3355 2e3c 0300A0E1 		bl	__extendsfdf2
 3356 2e40 0410A0E1 		mov	r3, r0
 3357 2e44 FEFFFFEB 		mov	r4, r1
 3358 2e48 0030A0E1 		mov	r0, r3
 3359 2e4c 0140A0E1 		mov	r1, r4
 3360 2e50 0500A0E1 		bl	sin
 3361 2e54 0610A0E1 		mov	r3, r0
 3362 2e58 0320A0E1 		mov	r4, r1
 3363 2e5c 0430A0E1 		mov	r0, r5
 3364 2e60 FEFFFFEB 		mov	r1, r6
 3365 2e64 0030A0E1 		mov	r2, r3
 3366 2e68 0140A0E1 		mov	r3, r4
 3367 2e6c 0350A0E1 		bl	__muldf3
 3368 2e70 0460A0E1 		mov	r3, r0
 3369 2e74 34001BE5 		mov	r4, r1
 3370 2e78 FEFFFFEB 		mov	r5, r3
 3371 2e7c 0030A0E1 		mov	r6, r4
 3372 2e80 0140A0E1 		ldr	r0, [fp, #-52]	@ float
 3373 2e84 0300A0E1 		bl	__extendsfdf2
 3374 2e88 0410A0E1 		mov	r3, r0
 3375 2e8c FEFFFFEB 		mov	r4, r1
 3376 2e90 0030A0E1 		mov	r0, r3
 3377 2e94 0140A0E1 		mov	r1, r4
 3378 2e98 0500A0E1 		bl	sin
 3379 2e9c 0610A0E1 		mov	r3, r0
 3380 2ea0 0320A0E1 		mov	r4, r1
 3381 2ea4 0430A0E1 		mov	r0, r5
 3382 2ea8 FEFFFFEB 		mov	r1, r6
 3383 2eac 0030A0E1 		mov	r2, r3
 3384 2eb0 0140A0E1 		mov	r3, r4
 3385 2eb4 0900A0E1 		bl	__muldf3
 3386 2eb8 0A10A0E1 		mov	r3, r0
 3387 2ebc 0320A0E1 		mov	r4, r1
 3388 2ec0 0430A0E1 		mov	r5, r3
 3389 2ec4 FEFFFFEB 		mov	r6, r4
 3390 2ec8 0030A0E1 		ldr	r0, [fp, #-44]	@ float
 3391 2ecc 0140A0E1 		bl	__extendsfdf2
 3392 2ed0 0390A0E1 		mov	r3, r0
 3393 2ed4 04A0A0E1 		mov	r4, r1
 3394 2ed8 30001BE5 		mov	r0, r3
 3395 2edc FEFFFFEB 		mov	r1, r4
 3396 2ee0 0030A0E1 		bl	sin
 3397 2ee4 0140A0E1 		mov	r3, r0
 3398 2ee8 0300A0E1 		mov	r4, r1
 3399 2eec 0410A0E1 		mov	r0, r5
 3400 2ef0 FEFFFFEB 		mov	r1, r6
 3401 2ef4 0050A0E1 		mov	r2, r3
 3402 2ef8 0160A0E1 		mov	r3, r4
 3403 2efc 30001BE5 		bl	__muldf3
 3404 2f00 FEFFFFEB 		mov	r3, r0
 3405 2f04 0030A0E1 		mov	r4, r1
 3406 2f08 0140A0E1 		mov	r5, r3
 3407 2f0c 0300A0E1 		mov	r6, r4
 3408 2f10 0410A0E1 		ldr	r0, [fp, #-44]	@ float
 3409 2f14 FEFFFFEB 		bl	__extendsfdf2
 3410 2f18 0030A0E1 		mov	r3, r0
 3411 2f1c 0140A0E1 		mov	r4, r1
 3412 2f20 0500A0E1 		mov	r0, r3
 3413 2f24 0610A0E1 		mov	r1, r4
 3414 2f28 0320A0E1 		bl	sin
 3415 2f2c 0430A0E1 		mov	r3, r0
 3416 2f30 FEFFFFEB 		mov	r4, r1
 3417 2f34 0030A0E1 		mov	r0, r5
 3418 2f38 0140A0E1 		mov	r1, r6
 3419 2f3c 0350A0E1 		mov	r2, r3
 3420 2f40 0460A0E1 		mov	r3, r4
 3421 2f44 34001BE5 		bl	__muldf3
 3422 2f48 FEFFFFEB 		mov	r3, r0
 3423 2f4c 0030A0E1 		mov	r4, r1
 3424 2f50 0140A0E1 		mov	r0, r9
 3425 2f54 0300A0E1 		mov	r1, sl
 3426 2f58 0410A0E1 		mov	r2, r3
 3427 2f5c FEFFFFEB 		mov	r3, r4
 3428 2f60 0030A0E1 		bl	__adddf3
 3429 2f64 0140A0E1 		mov	r3, r0
 3430 2f68 0500A0E1 		mov	r4, r1
 3431 2f6c 0610A0E1 		mov	r9, r3
 3432 2f70 0320A0E1 		mov	sl, r4
 3433 2f74 0430A0E1 		ldr	r0, [fp, #-44]	@ float
 3434 2f78 FEFFFFEB 		bl	__extendsfdf2
 3435 2f7c 0030A0E1 		mov	r3, r0
 3436 2f80 0140A0E1 		mov	r4, r1
 3437 2f84 0350A0E1 		mov	r0, r3
 3438 2f88 0460A0E1 		mov	r1, r4
 3439 2f8c 34001BE5 		bl	cos
 3440 2f90 FEFFFFEB 		mov	r5, r0
 3441 2f94 0030A0E1 		mov	r6, r1
 3442 2f98 0140A0E1 		ldr	r0, [fp, #-44]	@ float
 3443 2f9c 0300A0E1 		bl	__extendsfdf2
 3444 2fa0 0410A0E1 		mov	r3, r0
 3445 2fa4 FEFFFFEB 		mov	r4, r1
 3446 2fa8 0030A0E1 		mov	r0, r3
 3447 2fac 0140A0E1 		mov	r1, r4
 3448 2fb0 0500A0E1 		bl	cos
 3449 2fb4 0610A0E1 		mov	r3, r0
 3450 2fb8 0320A0E1 		mov	r4, r1
 3451 2fbc 0430A0E1 		mov	r0, r5
 3452 2fc0 FEFFFFEB 		mov	r1, r6
 3453 2fc4 0030A0E1 		mov	r2, r3
 3454 2fc8 0140A0E1 		mov	r3, r4
 3455 2fcc 0350A0E1 		bl	__muldf3
 3456 2fd0 0460A0E1 		mov	r3, r0
 3457 2fd4 2C001BE5 		mov	r4, r1
 3458 2fd8 FEFFFFEB 		mov	r5, r3
 3459 2fdc 0030A0E1 		mov	r6, r4
 3460 2fe0 0140A0E1 		ldr	r0, [fp, #-52]	@ float
 3461 2fe4 0300A0E1 		bl	__extendsfdf2
 3462 2fe8 0410A0E1 		mov	r3, r0
 3463 2fec FEFFFFEB 		mov	r4, r1
 3464 2ff0 0030A0E1 		mov	r0, r3
 3465 2ff4 0140A0E1 		mov	r1, r4
 3466 2ff8 0500A0E1 		bl	sin
 3467 2ffc 0610A0E1 		mov	r3, r0
 3468 3000 0320A0E1 		mov	r4, r1
 3469 3004 0430A0E1 		mov	r0, r5
 3470 3008 FEFFFFEB 		mov	r1, r6
 3471 300c 0030A0E1 		mov	r2, r3
 3472 3010 0140A0E1 		mov	r3, r4
 3473 3014 0350A0E1 		bl	__muldf3
 3474 3018 0460A0E1 		mov	r3, r0
 3475 301c 2C001BE5 		mov	r4, r1
 3476 3020 FEFFFFEB 		mov	r5, r3
 3477 3024 0030A0E1 		mov	r6, r4
 3478 3028 0140A0E1 		ldr	r0, [fp, #-52]	@ float
 3479 302c 0300A0E1 		bl	__extendsfdf2
 3480 3030 0410A0E1 		mov	r3, r0
 3481 3034 FEFFFFEB 		mov	r4, r1
 3482 3038 0030A0E1 		mov	r0, r3
 3483 303c 0140A0E1 		mov	r1, r4
 3484 3040 0500A0E1 		bl	sin
 3485 3044 0610A0E1 		mov	r3, r0
 3486 3048 0320A0E1 		mov	r4, r1
 3487 304c 0430A0E1 		mov	r0, r5
 3488 3050 FEFFFFEB 		mov	r1, r6
 3489 3054 0030A0E1 		mov	r2, r3
 3490 3058 0140A0E1 		mov	r3, r4
 3491 305c 0900A0E1 		bl	__muldf3
 3492 3060 0A10A0E1 		mov	r3, r0
 3493 3064 0320A0E1 		mov	r4, r1
 3494 3068 0430A0E1 		mov	r5, r3
 3495 306c FEFFFFEB 		mov	r6, r4
 3496 3070 0030A0E1 		ldr	r0, [fp, #-48]	@ float
 3497 3074 0140A0E1 		bl	__extendsfdf2
 3498 3078 0390A0E1 		mov	r3, r0
 3499 307c 04A0A0E1 		mov	r4, r1
 3500 3080 2C001BE5 		mov	r0, r3
 3501 3084 FEFFFFEB 		mov	r1, r4
 3502 3088 0030A0E1 		bl	sin
 3503 308c 0140A0E1 		mov	r3, r0
 3504 3090 0300A0E1 		mov	r4, r1
 3505 3094 0410A0E1 		mov	r0, r5
 3506 3098 FEFFFFEB 		mov	r1, r6
 3507 309c 0050A0E1 		mov	r2, r3
 3508 30a0 0160A0E1 		mov	r3, r4
 3509 30a4 2C001BE5 		bl	__muldf3
 3510 30a8 FEFFFFEB 		mov	r3, r0
 3511 30ac 0030A0E1 		mov	r4, r1
 3512 30b0 0140A0E1 		mov	r5, r3
 3513 30b4 0300A0E1 		mov	r6, r4
 3514 30b8 0410A0E1 		ldr	r0, [fp, #-48]	@ float
 3515 30bc FEFFFFEB 		bl	__extendsfdf2
 3516 30c0 0030A0E1 		mov	r3, r0
 3517 30c4 0140A0E1 		mov	r4, r1
 3518 30c8 0500A0E1 		mov	r0, r3
 3519 30cc 0610A0E1 		mov	r1, r4
 3520 30d0 0320A0E1 		bl	sin
 3521 30d4 0430A0E1 		mov	r3, r0
 3522 30d8 FEFFFFEB 		mov	r4, r1
 3523 30dc 0030A0E1 		mov	r0, r5
 3524 30e0 0140A0E1 		mov	r1, r6
 3525 30e4 0350A0E1 		mov	r2, r3
 3526 30e8 0460A0E1 		mov	r3, r4
 3527 30ec 34001BE5 		bl	__muldf3
 3528 30f0 FEFFFFEB 		mov	r3, r0
 3529 30f4 0030A0E1 		mov	r4, r1
 3530 30f8 0140A0E1 		mov	r0, r9
 3531 30fc 0300A0E1 		mov	r1, sl
 3532 3100 0410A0E1 		mov	r2, r3
 3533 3104 FEFFFFEB 		mov	r3, r4
 3534 3108 0030A0E1 		bl	__adddf3
 3535 310c 0140A0E1 		mov	r3, r0
 3536 3110 0500A0E1 		mov	r4, r1
 3537 3114 0610A0E1 		mov	r9, r3
 3538 3118 0320A0E1 		mov	sl, r4
 3539 311c 0430A0E1 		ldr	r0, [fp, #-52]	@ float
 3540 3120 FEFFFFEB 		bl	__extendsfdf2
 3541 3124 0030A0E1 		mov	r3, r0
 3542 3128 0140A0E1 		mov	r4, r1
 3543 312c 0350A0E1 		mov	r0, r3
 3544 3130 0460A0E1 		mov	r1, r4
 3545 3134 34001BE5 		bl	sin
 3546 3138 FEFFFFEB 		mov	r5, r0
 3547 313c 0030A0E1 		mov	r6, r1
 3548 3140 0140A0E1 		ldr	r0, [fp, #-52]	@ float
 3549 3144 0300A0E1 		bl	__extendsfdf2
 3550 3148 0410A0E1 		mov	r3, r0
 3551 314c FEFFFFEB 		mov	r4, r1
 3552 3150 0030A0E1 		mov	r0, r3
 3553 3154 0140A0E1 		mov	r1, r4
 3554 3158 0500A0E1 		bl	sin
 3555 315c 0610A0E1 		mov	r3, r0
 3556 3160 0320A0E1 		mov	r4, r1
 3557 3164 0430A0E1 		mov	r0, r5
 3558 3168 FEFFFFEB 		mov	r1, r6
 3559 316c 0030A0E1 		mov	r2, r3
 3560 3170 0140A0E1 		mov	r3, r4
 3561 3174 0350A0E1 		bl	__muldf3
 3562 3178 0460A0E1 		mov	r3, r0
 3563 317c 30001BE5 		mov	r4, r1
 3564 3180 FEFFFFEB 		mov	r5, r3
 3565 3184 0030A0E1 		mov	r6, r4
 3566 3188 0140A0E1 		ldr	r0, [fp, #-48]	@ float
 3567 318c 0300A0E1 		bl	__extendsfdf2
 3568 3190 0410A0E1 		mov	r3, r0
 3569 3194 FEFFFFEB 		mov	r4, r1
 3570 3198 0030A0E1 		mov	r0, r3
 3571 319c 0140A0E1 		mov	r1, r4
 3572 31a0 0500A0E1 		bl	sin
 3573 31a4 0610A0E1 		mov	r3, r0
 3574 31a8 0320A0E1 		mov	r4, r1
 3575 31ac 0430A0E1 		mov	r0, r5
 3576 31b0 FEFFFFEB 		mov	r1, r6
 3577 31b4 0030A0E1 		mov	r2, r3
 3578 31b8 0140A0E1 		mov	r3, r4
 3579 31bc 0350A0E1 		bl	__muldf3
 3580 31c0 0460A0E1 		mov	r3, r0
 3581 31c4 30001BE5 		mov	r4, r1
 3582 31c8 FEFFFFEB 		mov	r5, r3
 3583 31cc 0030A0E1 		mov	r6, r4
 3584 31d0 0140A0E1 		ldr	r0, [fp, #-48]	@ float
 3585 31d4 0300A0E1 		bl	__extendsfdf2
 3586 31d8 0410A0E1 		mov	r3, r0
 3587 31dc FEFFFFEB 		mov	r4, r1
 3588 31e0 0030A0E1 		mov	r0, r3
 3589 31e4 0140A0E1 		mov	r1, r4
 3590 31e8 0500A0E1 		bl	sin
 3591 31ec 0610A0E1 		mov	r3, r0
 3592 31f0 0320A0E1 		mov	r4, r1
 3593 31f4 0430A0E1 		mov	r0, r5
 3594 31f8 FEFFFFEB 		mov	r1, r6
 3595 31fc 0030A0E1 		mov	r2, r3
 3596 3200 0140A0E1 		mov	r3, r4
 3597 3204 0900A0E1 		bl	__muldf3
 3598 3208 0A10A0E1 		mov	r3, r0
 3599 320c 0320A0E1 		mov	r4, r1
 3600 3210 0430A0E1 		mov	r5, r3
 3601 3214 FEFFFFEB 		mov	r6, r4
 3602 3218 0030A0E1 		ldr	r0, [fp, #-44]	@ float
 3603 321c 0140A0E1 		bl	__extendsfdf2
 3604 3220 0390A0E1 		mov	r3, r0
 3605 3224 04A0A0E1 		mov	r4, r1
 3606 3228 34001BE5 		mov	r0, r3
 3607 322c FEFFFFEB 		mov	r1, r4
 3608 3230 0030A0E1 		bl	sin
 3609 3234 0140A0E1 		mov	r3, r0
 3610 3238 0300A0E1 		mov	r4, r1
 3611 323c 0410A0E1 		mov	r0, r5
 3612 3240 FEFFFFEB 		mov	r1, r6
 3613 3244 0050A0E1 		mov	r2, r3
 3614 3248 0160A0E1 		mov	r3, r4
 3615 324c 34001BE5 		bl	__muldf3
 3616 3250 FEFFFFEB 		mov	r3, r0
 3617 3254 0030A0E1 		mov	r4, r1
 3618 3258 0140A0E1 		mov	r5, r3
 3619 325c 0300A0E1 		mov	r6, r4
 3620 3260 0410A0E1 		ldr	r0, [fp, #-44]	@ float
 3621 3264 FEFFFFEB 		bl	__extendsfdf2
 3622 3268 0030A0E1 		mov	r3, r0
 3623 326c 0140A0E1 		mov	r4, r1
 3624 3270 0500A0E1 		mov	r0, r3
 3625 3274 0610A0E1 		mov	r1, r4
 3626 3278 0320A0E1 		bl	sin
 3627 327c 0430A0E1 		mov	r3, r0
 3628 3280 FEFFFFEB 		mov	r4, r1
 3629 3284 0030A0E1 		mov	r0, r5
 3630 3288 0140A0E1 		mov	r1, r6
 3631 328c 0350A0E1 		mov	r2, r3
 3632 3290 0460A0E1 		mov	r3, r4
 3633 3294 30001BE5 		bl	__muldf3
 3634 3298 FEFFFFEB 		mov	r3, r0
 3635 329c 0030A0E1 		mov	r4, r1
 3636 32a0 0140A0E1 		mov	r0, r9
 3637 32a4 0300A0E1 		mov	r1, sl
 3638 32a8 0410A0E1 		mov	r2, r3
 3639 32ac FEFFFFEB 		mov	r3, r4
 3640 32b0 0030A0E1 		bl	__adddf3
 3641 32b4 0140A0E1 		mov	r3, r0
 3642 32b8 0500A0E1 		mov	r4, r1
 3643 32bc 0610A0E1 		mov	r0, r7
 3644 32c0 0320A0E1 		mov	r1, r8
 3645 32c4 0430A0E1 		mov	r2, r3
 3646 32c8 FEFFFFEB 		mov	r3, r4
 3647 32cc 0030A0E1 		bl	__divdf3
 3648 32d0 0140A0E1 		mov	r3, r0
 3649 32d4 0350A0E1 		mov	r4, r1
 3650 32d8 0460A0E1 		mov	r0, r3
 3651 32dc 30001BE5 		mov	r1, r4
 3652 32e0 FEFFFFEB 		bl	__truncdfsf2
 3653 32e4 0030A0E1 		mov	r3, r0
 3654 32e8 0140A0E1 		str	r3, [fp, #-176]	@ float
 3655 32ec 0300A0E1 		.loc 1 305 0
 3656 32f0 0410A0E1 		ldr	r0, [fp, #-48]	@ float
 3657 32f4 FEFFFFEB 		bl	__extendsfdf2
 3658 32f8 0030A0E1 		mov	r3, r0
 3659 32fc 0140A0E1 		mov	r4, r1
 3660 3300 0500A0E1 		mov	r0, r3
 3661 3304 0610A0E1 		mov	r1, r4
 3662 3308 0320A0E1 		bl	cos
 3663 330c 0430A0E1 		mov	r5, r0
 3664 3310 FEFFFFEB 		mov	r6, r1
 3665 3314 0030A0E1 		ldr	r0, [fp, #-44]	@ float
 3666 3318 0140A0E1 		bl	__extendsfdf2
 3667 331c 0350A0E1 		mov	r3, r0
 3668 3320 0460A0E1 		mov	r4, r1
 3669 3324 2C001BE5 		mov	r0, r3
 3670 3328 FEFFFFEB 		mov	r1, r4
 3671 332c 0030A0E1 		bl	sin
 3672 3330 0140A0E1 		mov	r3, r0
 3673 3334 0300A0E1 		mov	r4, r1
 3674 3338 0410A0E1 		mov	r0, r5
 3675 333c FEFFFFEB 		mov	r1, r6
 3676 3340 0030A0E1 		mov	r2, r3
 3677 3344 0140A0E1 		mov	r3, r4
 3678 3348 0500A0E1 		bl	__muldf3
 3679 334c 0610A0E1 		mov	r3, r0
 3680 3350 0320A0E1 		mov	r4, r1
 3681 3354 0430A0E1 		mov	r7, r3
 3682 3358 FEFFFFEB 		mov	r8, r4
 3683 335c 0030A0E1 		ldr	r0, [fp, #-48]	@ float
 3684 3360 0140A0E1 		bl	__extendsfdf2
 3685 3364 0350A0E1 		mov	r3, r0
 3686 3368 0460A0E1 		mov	r4, r1
 3687 336c 2C001BE5 		mov	r0, r3
 3688 3370 FEFFFFEB 		mov	r1, r4
 3689 3374 0030A0E1 		bl	cos
 3690 3378 0140A0E1 		mov	r5, r0
 3691 337c 0300A0E1 		mov	r6, r1
 3692 3380 0410A0E1 		ldr	r0, [fp, #-48]	@ float
 3693 3384 FEFFFFEB 		bl	__extendsfdf2
 3694 3388 0030A0E1 		mov	r3, r0
 3695 338c 0140A0E1 		mov	r4, r1
 3696 3390 0500A0E1 		mov	r0, r3
 3697 3394 0610A0E1 		mov	r1, r4
 3698 3398 0320A0E1 		bl	cos
 3699 339c 0430A0E1 		mov	r3, r0
 3700 33a0 FEFFFFEB 		mov	r4, r1
 3701 33a4 0030A0E1 		mov	r0, r5
 3702 33a8 0140A0E1 		mov	r1, r6
 3703 33ac 0900A0E1 		mov	r2, r3
 3704 33b0 0A10A0E1 		mov	r3, r4
 3705 33b4 0320A0E1 		bl	__muldf3
 3706 33b8 0430A0E1 		mov	r3, r0
 3707 33bc FEFFFFEB 		mov	r4, r1
 3708 33c0 0030A0E1 		mov	r5, r3
 3709 33c4 0140A0E1 		mov	r6, r4
 3710 33c8 0700A0E1 		ldr	r0, [fp, #-44]	@ float
 3711 33cc 0810A0E1 		bl	__extendsfdf2
 3712 33d0 0320A0E1 		mov	r3, r0
 3713 33d4 0430A0E1 		mov	r4, r1
 3714 33d8 FEFFFFEB 		mov	r0, r3
 3715 33dc 0030A0E1 		mov	r1, r4
 3716 33e0 0140A0E1 		bl	cos
 3717 33e4 0300A0E1 		mov	r3, r0
 3718 33e8 0410A0E1 		mov	r4, r1
 3719 33ec FEFFFFEB 		mov	r0, r5
 3720 33f0 0030A0E1 		mov	r1, r6
 3721 33f4 B0300BE5 		mov	r2, r3
 305:lab.c         **** 	Rinv[5] = (cos(th2)*sin(th3))/(cos(th2)*cos(th2)*cos(th3)*cos(th3) + cos(th2)*cos(th2)*sin(th3)*si
 3722              	at
 3723 33f8 30001BE5 		bl	__extendsfdf2
 3724 33fc FEFFFFEB 		mov	r3, r0
 3725 3400 0030A0E1 		mov	r4, r1
 3726 3404 0140A0E1 		mov	r0, r3
 3727 3408 0300A0E1 		mov	r1, r4
 3728 340c 0410A0E1 		bl	cos
 3729 3410 FEFFFFEB 		mov	r3, r0
 3730 3414 0050A0E1 		mov	r4, r1
 3731 3418 0160A0E1 		mov	r0, r5
 3732 341c 2C001BE5 		mov	r1, r6
 3733 3420 FEFFFFEB 		mov	r2, r3
 3734 3424 0030A0E1 		mov	r3, r4
 3735 3428 0140A0E1 		bl	__muldf3
 3736 342c 0300A0E1 		mov	r3, r0
 3737 3430 0410A0E1 		mov	r4, r1
 3738 3434 FEFFFFEB 		mov	r9, r3
 3739 3438 0030A0E1 		mov	sl, r4
 3740 343c 0140A0E1 		ldr	r0, [fp, #-48]	@ float
 3741 3440 0500A0E1 		bl	__extendsfdf2
 3742 3444 0610A0E1 		mov	r3, r0
 3743 3448 0320A0E1 		mov	r4, r1
 3744 344c 0430A0E1 		mov	r0, r3
 3745 3450 FEFFFFEB 		mov	r1, r4
 3746 3454 0030A0E1 		bl	cos
 3747 3458 0140A0E1 		mov	r5, r0
 3748 345c 0370A0E1 		mov	r6, r1
 3749 3460 0480A0E1 		ldr	r0, [fp, #-48]	@ float
 3750 3464 30001BE5 		bl	__extendsfdf2
 3751 3468 FEFFFFEB 		mov	r3, r0
 3752 346c 0030A0E1 		mov	r4, r1
 3753 3470 0140A0E1 		mov	r0, r3
 3754 3474 0300A0E1 		mov	r1, r4
 3755 3478 0410A0E1 		bl	cos
 3756 347c FEFFFFEB 		mov	r3, r0
 3757 3480 0050A0E1 		mov	r4, r1
 3758 3484 0160A0E1 		mov	r0, r5
 3759 3488 30001BE5 		mov	r1, r6
 3760 348c FEFFFFEB 		mov	r2, r3
 3761 3490 0030A0E1 		mov	r3, r4
 3762 3494 0140A0E1 		bl	__muldf3
 3763 3498 0300A0E1 		mov	r3, r0
 3764 349c 0410A0E1 		mov	r4, r1
 3765 34a0 FEFFFFEB 		mov	r5, r3
 3766 34a4 0030A0E1 		mov	r6, r4
 3767 34a8 0140A0E1 		ldr	r0, [fp, #-44]	@ float
 3768 34ac 0500A0E1 		bl	__extendsfdf2
 3769 34b0 0610A0E1 		mov	r3, r0
 3770 34b4 0320A0E1 		mov	r4, r1
 3771 34b8 0430A0E1 		mov	r0, r3
 3772 34bc FEFFFFEB 		mov	r1, r4
 3773 34c0 0030A0E1 		bl	sin
 3774 34c4 0140A0E1 		mov	r3, r0
 3775 34c8 0350A0E1 		mov	r4, r1
 3776 34cc 0460A0E1 		mov	r0, r5
 3777 34d0 2C001BE5 		mov	r1, r6
 3778 34d4 FEFFFFEB 		mov	r2, r3
 3779 34d8 0030A0E1 		mov	r3, r4
 3780 34dc 0140A0E1 		bl	__muldf3
 3781 34e0 0300A0E1 		mov	r3, r0
 3782 34e4 0410A0E1 		mov	r4, r1
 3783 34e8 FEFFFFEB 		mov	r5, r3
 3784 34ec 0030A0E1 		mov	r6, r4
 3785 34f0 0140A0E1 		ldr	r0, [fp, #-44]	@ float
 3786 34f4 0500A0E1 		bl	__extendsfdf2
 3787 34f8 0610A0E1 		mov	r3, r0
 3788 34fc 0320A0E1 		mov	r4, r1
 3789 3500 0430A0E1 		mov	r0, r3
 3790 3504 FEFFFFEB 		mov	r1, r4
 3791 3508 0030A0E1 		bl	sin
 3792 350c 0140A0E1 		mov	r3, r0
 3793 3510 0350A0E1 		mov	r4, r1
 3794 3514 0460A0E1 		mov	r0, r5
 3795 3518 2C001BE5 		mov	r1, r6
 3796 351c FEFFFFEB 		mov	r2, r3
 3797 3520 0030A0E1 		mov	r3, r4
 3798 3524 0140A0E1 		bl	__muldf3
 3799 3528 0300A0E1 		mov	r3, r0
 3800 352c 0410A0E1 		mov	r4, r1
 3801 3530 FEFFFFEB 		mov	r0, r9
 3802 3534 0030A0E1 		mov	r1, sl
 3803 3538 0140A0E1 		mov	r2, r3
 3804 353c 0500A0E1 		mov	r3, r4
 3805 3540 0610A0E1 		bl	__adddf3
 3806 3544 0320A0E1 		mov	r3, r0
 3807 3548 0430A0E1 		mov	r4, r1
 3808 354c FEFFFFEB 		mov	r9, r3
 3809 3550 0030A0E1 		mov	sl, r4
 3810 3554 0140A0E1 		ldr	r0, [fp, #-44]	@ float
 3811 3558 0390A0E1 		bl	__extendsfdf2
 3812 355c 04A0A0E1 		mov	r3, r0
 3813 3560 30001BE5 		mov	r4, r1
 3814 3564 FEFFFFEB 		mov	r0, r3
 3815 3568 0030A0E1 		mov	r1, r4
 3816 356c 0140A0E1 		bl	cos
 3817 3570 0300A0E1 		mov	r5, r0
 3818 3574 0410A0E1 		mov	r6, r1
 3819 3578 FEFFFFEB 		ldr	r0, [fp, #-44]	@ float
 3820 357c 0050A0E1 		bl	__extendsfdf2
 3821 3580 0160A0E1 		mov	r3, r0
 3822 3584 30001BE5 		mov	r4, r1
 3823 3588 FEFFFFEB 		mov	r0, r3
 3824 358c 0030A0E1 		mov	r1, r4
 3825 3590 0140A0E1 		bl	cos
 3826 3594 0300A0E1 		mov	r3, r0
 3827 3598 0410A0E1 		mov	r4, r1
 3828 359c FEFFFFEB 		mov	r0, r5
 3829 35a0 0030A0E1 		mov	r1, r6
 3830 35a4 0140A0E1 		mov	r2, r3
 3831 35a8 0500A0E1 		mov	r3, r4
 3832 35ac 0610A0E1 		bl	__muldf3
 3833 35b0 0320A0E1 		mov	r3, r0
 3834 35b4 0430A0E1 		mov	r4, r1
 3835 35b8 FEFFFFEB 		mov	r5, r3
 3836 35bc 0030A0E1 		mov	r6, r4
 3837 35c0 0140A0E1 		ldr	r0, [fp, #-48]	@ float
 3838 35c4 0350A0E1 		bl	__extendsfdf2
 3839 35c8 0460A0E1 		mov	r3, r0
 3840 35cc 2C001BE5 		mov	r4, r1
 3841 35d0 FEFFFFEB 		mov	r0, r3
 3842 35d4 0030A0E1 		mov	r1, r4
 3843 35d8 0140A0E1 		bl	sin
 3844 35dc 0300A0E1 		mov	r3, r0
 3845 35e0 0410A0E1 		mov	r4, r1
 3846 35e4 FEFFFFEB 		mov	r0, r5
 3847 35e8 0030A0E1 		mov	r1, r6
 3848 35ec 0140A0E1 		mov	r2, r3
 3849 35f0 0500A0E1 		mov	r3, r4
 3850 35f4 0610A0E1 		bl	__muldf3
 3851 35f8 0320A0E1 		mov	r3, r0
 3852 35fc 0430A0E1 		mov	r4, r1
 3853 3600 FEFFFFEB 		mov	r5, r3
 3854 3604 0030A0E1 		mov	r6, r4
 3855 3608 0140A0E1 		ldr	r0, [fp, #-48]	@ float
 3856 360c 0350A0E1 		bl	__extendsfdf2
 3857 3610 0460A0E1 		mov	r3, r0
 3858 3614 2C001BE5 		mov	r4, r1
 3859 3618 FEFFFFEB 		mov	r0, r3
 3860 361c 0030A0E1 		mov	r1, r4
 3861 3620 0140A0E1 		bl	sin
 3862 3624 0300A0E1 		mov	r3, r0
 3863 3628 0410A0E1 		mov	r4, r1
 3864 362c FEFFFFEB 		mov	r0, r5
 3865 3630 0030A0E1 		mov	r1, r6
 3866 3634 0140A0E1 		mov	r2, r3
 3867 3638 0500A0E1 		mov	r3, r4
 3868 363c 0610A0E1 		bl	__muldf3
 3869 3640 0320A0E1 		mov	r3, r0
 3870 3644 0430A0E1 		mov	r4, r1
 3871 3648 FEFFFFEB 		mov	r0, r9
 3872 364c 0030A0E1 		mov	r1, sl
 3873 3650 0140A0E1 		mov	r2, r3
 3874 3654 0900A0E1 		mov	r3, r4
 3875 3658 0A10A0E1 		bl	__adddf3
 3876 365c 0320A0E1 		mov	r3, r0
 3877 3660 0430A0E1 		mov	r4, r1
 3878 3664 FEFFFFEB 		mov	r9, r3
 3879 3668 0030A0E1 		mov	sl, r4
 3880 366c 0140A0E1 		ldr	r0, [fp, #-48]	@ float
 3881 3670 0390A0E1 		bl	__extendsfdf2
 3882 3674 04A0A0E1 		mov	r3, r0
 3883 3678 2C001BE5 		mov	r4, r1
 3884 367c FEFFFFEB 		mov	r0, r3
 3885 3680 0030A0E1 		mov	r1, r4
 3886 3684 0140A0E1 		bl	sin
 3887 3688 0300A0E1 		mov	r5, r0
 3888 368c 0410A0E1 		mov	r6, r1
 3889 3690 FEFFFFEB 		ldr	r0, [fp, #-48]	@ float
 3890 3694 0050A0E1 		bl	__extendsfdf2
 3891 3698 0160A0E1 		mov	r3, r0
 3892 369c 2C001BE5 		mov	r4, r1
 3893 36a0 FEFFFFEB 		mov	r0, r3
 3894 36a4 0030A0E1 		mov	r1, r4
 3895 36a8 0140A0E1 		bl	sin
 3896 36ac 0300A0E1 		mov	r3, r0
 3897 36b0 0410A0E1 		mov	r4, r1
 3898 36b4 FEFFFFEB 		mov	r0, r5
 3899 36b8 0030A0E1 		mov	r1, r6
 3900 36bc 0140A0E1 		mov	r2, r3
 3901 36c0 0500A0E1 		mov	r3, r4
 3902 36c4 0610A0E1 		bl	__muldf3
 3903 36c8 0320A0E1 		mov	r3, r0
 3904 36cc 0430A0E1 		mov	r4, r1
 3905 36d0 FEFFFFEB 		mov	r5, r3
 3906 36d4 0030A0E1 		mov	r6, r4
 3907 36d8 0140A0E1 		ldr	r0, [fp, #-44]	@ float
 3908 36dc 0350A0E1 		bl	__extendsfdf2
 3909 36e0 0460A0E1 		mov	r3, r0
 3910 36e4 30001BE5 		mov	r4, r1
 3911 36e8 FEFFFFEB 		mov	r0, r3
 3912 36ec 0030A0E1 		mov	r1, r4
 3913 36f0 0140A0E1 		bl	sin
 3914 36f4 0300A0E1 		mov	r3, r0
 3915 36f8 0410A0E1 		mov	r4, r1
 3916 36fc FEFFFFEB 		mov	r0, r5
 3917 3700 0030A0E1 		mov	r1, r6
 3918 3704 0140A0E1 		mov	r2, r3
 3919 3708 0500A0E1 		mov	r3, r4
 3920 370c 0610A0E1 		bl	__muldf3
 3921 3710 0320A0E1 		mov	r3, r0
 3922 3714 0430A0E1 		mov	r4, r1
 3923 3718 FEFFFFEB 		mov	r5, r3
 3924 371c 0030A0E1 		mov	r6, r4
 3925 3720 0140A0E1 		ldr	r0, [fp, #-44]	@ float
 3926 3724 0350A0E1 		bl	__extendsfdf2
 3927 3728 0460A0E1 		mov	r3, r0
 3928 372c 30001BE5 		mov	r4, r1
 3929 3730 FEFFFFEB 		mov	r0, r3
 3930 3734 0030A0E1 		mov	r1, r4
 3931 3738 0140A0E1 		bl	sin
 3932 373c 0300A0E1 		mov	r3, r0
 3933 3740 0410A0E1 		mov	r4, r1
 3934 3744 FEFFFFEB 		mov	r0, r5
 3935 3748 0030A0E1 		mov	r1, r6
 3936 374c 0140A0E1 		mov	r2, r3
 3937 3750 0500A0E1 		mov	r3, r4
 3938 3754 0610A0E1 		bl	__muldf3
 3939 3758 0320A0E1 		mov	r3, r0
 3940 375c 0430A0E1 		mov	r4, r1
 3941 3760 FEFFFFEB 		mov	r0, r9
 3942 3764 0030A0E1 		mov	r1, sl
 3943 3768 0140A0E1 		mov	r2, r3
 3944 376c 0900A0E1 		mov	r3, r4
 3945 3770 0A10A0E1 		bl	__adddf3
 3946 3774 0320A0E1 		mov	r3, r0
 3947 3778 0430A0E1 		mov	r4, r1
 3948 377c FEFFFFEB 		mov	r0, r7
 3949 3780 0030A0E1 		mov	r1, r8
 3950 3784 0140A0E1 		mov	r2, r3
 3951 3788 0390A0E1 		mov	r3, r4
 3952 378c 04A0A0E1 		bl	__divdf3
 3953 3790 30001BE5 		mov	r3, r0
 3954 3794 FEFFFFEB 		mov	r4, r1
 3955 3798 0030A0E1 		mov	r0, r3
 3956 379c 0140A0E1 		mov	r1, r4
 3957 37a0 0300A0E1 		bl	__truncdfsf2
 3958 37a4 0410A0E1 		mov	r3, r0
 3959 37a8 FEFFFFEB 		str	r3, [fp, #-172]	@ float
 3960 37ac 0050A0E1 		.loc 1 306 0
 3961 37b0 0160A0E1 		ldr	r0, [fp, #-52]	@ float
 3962 37b4 30001BE5 		bl	__extendsfdf2
 3963 37b8 FEFFFFEB 		mov	r3, r0
 3964 37bc 0030A0E1 		mov	r4, r1
 3965 37c0 0140A0E1 		mov	r0, r3
 3966 37c4 0300A0E1 		mov	r1, r4
 3967 37c8 0410A0E1 		bl	sin
 3968 37cc FEFFFFEB 		mov	r5, r0
 3969 37d0 0030A0E1 		mov	r6, r1
 3970 37d4 0140A0E1 		ldr	r0, [fp, #-44]	@ float
 3971 37d8 0500A0E1 		bl	__extendsfdf2
 3972 37dc 0610A0E1 		mov	r3, r0
 3973 37e0 0320A0E1 		mov	r4, r1
 3974 37e4 0430A0E1 		mov	r0, r3
 3975 37e8 FEFFFFEB 		mov	r1, r4
 3976 37ec 0030A0E1 		bl	sin
 3977 37f0 0140A0E1 		mov	r3, r0
 3978 37f4 0350A0E1 		mov	r4, r1
 3979 37f8 0460A0E1 		mov	r0, r5
 3980 37fc 2C001BE5 		mov	r1, r6
 3981 3800 FEFFFFEB 		mov	r2, r3
 3982 3804 0030A0E1 		mov	r3, r4
 3983 3808 0140A0E1 		bl	__muldf3
 3984 380c 0300A0E1 		mov	r3, r0
 3985 3810 0410A0E1 		mov	r4, r1
 3986 3814 FEFFFFEB 		mov	r5, r3
 3987 3818 0030A0E1 		mov	r6, r4
 3988 381c 0140A0E1 		ldr	r0, [fp, #-48]	@ float
 3989 3820 0500A0E1 		bl	__extendsfdf2
 3990 3824 0610A0E1 		mov	r3, r0
 3991 3828 0320A0E1 		mov	r4, r1
 3992 382c 0430A0E1 		mov	r0, r3
 3993 3830 FEFFFFEB 		mov	r1, r4
 3994 3834 0030A0E1 		bl	cos
 3995 3838 0140A0E1 		mov	r3, r0
 3996 383c 0350A0E1 		mov	r4, r1
 3997 3840 0460A0E1 		mov	r0, r5
 3998 3844 2C001BE5 		mov	r1, r6
 3999 3848 FEFFFFEB 		mov	r2, r3
 4000 384c 0030A0E1 		mov	r3, r4
 4001 3850 0140A0E1 		bl	__muldf3
 4002 3854 0300A0E1 		mov	r3, r0
 4003 3858 0410A0E1 		mov	r4, r1
 4004 385c FEFFFFEB 		mov	r5, r3
 4005 3860 0030A0E1 		mov	r6, r4
 4006 3864 0140A0E1 		ldr	r0, [fp, #-48]	@ float
 4007 3868 0500A0E1 		bl	__extendsfdf2
 4008 386c 0610A0E1 		mov	r3, r0
 4009 3870 0320A0E1 		mov	r4, r1
 4010 3874 0430A0E1 		mov	r0, r3
 4011 3878 FEFFFFEB 		mov	r1, r4
 4012 387c 0030A0E1 		bl	cos
 4013 3880 0140A0E1 		mov	r3, r0
 4014 3884 0900A0E1 		mov	r4, r1
 4015 3888 0A10A0E1 		mov	r0, r5
 4016 388c 0320A0E1 		mov	r1, r6
 4017 3890 0430A0E1 		mov	r2, r3
 4018 3894 FEFFFFEB 		mov	r3, r4
 4019 3898 0030A0E1 		bl	__muldf3
 4020 389c 0140A0E1 		mov	r3, r0
 4021 38a0 0700A0E1 		mov	r4, r1
 4022 38a4 0810A0E1 		mov	r7, r3
 4023 38a8 0320A0E1 		mov	r8, r4
 4024 38ac 0430A0E1 		ldr	r0, [fp, #-52]	@ float
 4025 38b0 FEFFFFEB 		bl	__extendsfdf2
 4026 38b4 0030A0E1 		mov	r3, r0
 4027 38b8 0140A0E1 		mov	r4, r1
 4028 38bc 0300A0E1 		mov	r0, r3
 4029 38c0 0410A0E1 		mov	r1, r4
 4030 38c4 FEFFFFEB 		bl	sin
 4031 38c8 0030A0E1 		mov	r5, r0
 4032 38cc AC300BE5 		mov	r6, r1
 306:lab.c         **** 	Rinv[6] =  (sin(th1)*sin(th3)*cos(th2)*cos(th2) + sin(th1)*sin(th3)*sin(th2)*sin(th2) + cos(th1)*c
 4033              	0, r3
 4034 38d0 34001BE5 		mov	r1, r4
 4035 38d4 FEFFFFEB 		bl	sin
 4036 38d8 0030A0E1 		mov	r3, r0
 4037 38dc 0140A0E1 		mov	r4, r1
 4038 38e0 0300A0E1 		mov	r0, r5
 4039 38e4 0410A0E1 		mov	r1, r6
 4040 38e8 FEFFFFEB 		mov	r2, r3
 4041 38ec 0050A0E1 		mov	r3, r4
 4042 38f0 0160A0E1 		bl	__muldf3
 4043 38f4 2C001BE5 		mov	r3, r0
 4044 38f8 FEFFFFEB 		mov	r4, r1
 4045 38fc 0030A0E1 		mov	r5, r3
 4046 3900 0140A0E1 		mov	r6, r4
 4047 3904 0300A0E1 		ldr	r0, [fp, #-48]	@ float
 4048 3908 0410A0E1 		bl	__extendsfdf2
 4049 390c FEFFFFEB 		mov	r3, r0
 4050 3910 0030A0E1 		mov	r4, r1
 4051 3914 0140A0E1 		mov	r0, r3
 4052 3918 0500A0E1 		mov	r1, r4
 4053 391c 0610A0E1 		bl	sin
 4054 3920 0320A0E1 		mov	r3, r0
 4055 3924 0430A0E1 		mov	r4, r1
 4056 3928 FEFFFFEB 		mov	r0, r5
 4057 392c 0030A0E1 		mov	r1, r6
 4058 3930 0140A0E1 		mov	r2, r3
 4059 3934 0350A0E1 		mov	r3, r4
 4060 3938 0460A0E1 		bl	__muldf3
 4061 393c 30001BE5 		mov	r3, r0
 4062 3940 FEFFFFEB 		mov	r4, r1
 4063 3944 0030A0E1 		mov	r0, r7
 4064 3948 0140A0E1 		mov	r1, r8
 4065 394c 0300A0E1 		mov	r2, r3
 4066 3950 0410A0E1 		mov	r3, r4
 4067 3954 FEFFFFEB 		bl	__adddf3
 4068 3958 0030A0E1 		mov	r3, r0
 4069 395c 0140A0E1 		mov	r4, r1
 4070 3960 0500A0E1 		mov	r7, r3
 4071 3964 0610A0E1 		mov	r8, r4
 4072 3968 0320A0E1 		ldr	r0, [fp, #-52]	@ float
 4073 396c 0430A0E1 		bl	__extendsfdf2
 4074 3970 FEFFFFEB 		mov	r3, r0
 4075 3974 0030A0E1 		mov	r4, r1
 4076 3978 0140A0E1 		mov	r0, r3
 4077 397c 0350A0E1 		mov	r1, r4
 4078 3980 0460A0E1 		bl	cos
 4079 3984 30001BE5 		mov	r5, r0
 4080 3988 FEFFFFEB 		mov	r6, r1
 4081 398c 0030A0E1 		ldr	r0, [fp, #-44]	@ float
 4082 3990 0140A0E1 		bl	__extendsfdf2
 4083 3994 0300A0E1 		mov	r3, r0
 4084 3998 0410A0E1 		mov	r4, r1
 4085 399c FEFFFFEB 		mov	r0, r3
 4086 39a0 0030A0E1 		mov	r1, r4
 4087 39a4 0140A0E1 		bl	cos
 4088 39a8 0500A0E1 		mov	r3, r0
 4089 39ac 0610A0E1 		mov	r4, r1
 4090 39b0 0320A0E1 		mov	r0, r5
 4091 39b4 0430A0E1 		mov	r1, r6
 4092 39b8 FEFFFFEB 		mov	r2, r3
 4093 39bc 0030A0E1 		mov	r3, r4
 4094 39c0 0140A0E1 		bl	__muldf3
 4095 39c4 0370A0E1 		mov	r3, r0
 4096 39c8 0480A0E1 		mov	r4, r1
 4097 39cc 34001BE5 		mov	r5, r3
 4098 39d0 FEFFFFEB 		mov	r6, r4
 4099 39d4 0030A0E1 		ldr	r0, [fp, #-48]	@ float
 4100 39d8 0140A0E1 		bl	__extendsfdf2
 4101 39dc 0300A0E1 		mov	r3, r0
 4102 39e0 0410A0E1 		mov	r4, r1
 4103 39e4 FEFFFFEB 		mov	r0, r3
 4104 39e8 0050A0E1 		mov	r1, r4
 4105 39ec 0160A0E1 		bl	sin
 4106 39f0 2C001BE5 		mov	r3, r0
 4107 39f4 FEFFFFEB 		mov	r4, r1
 4108 39f8 0030A0E1 		mov	r0, r5
 4109 39fc 0140A0E1 		mov	r1, r6
 4110 3a00 0300A0E1 		mov	r2, r3
 4111 3a04 0410A0E1 		mov	r3, r4
 4112 3a08 FEFFFFEB 		bl	__muldf3
 4113 3a0c 0030A0E1 		mov	r3, r0
 4114 3a10 0140A0E1 		mov	r4, r1
 4115 3a14 0500A0E1 		mov	r0, r7
 4116 3a18 0610A0E1 		mov	r1, r8
 4117 3a1c 0320A0E1 		mov	r2, r3
 4118 3a20 0430A0E1 		mov	r3, r4
 4119 3a24 FEFFFFEB 		bl	__adddf3
 4120 3a28 0030A0E1 		mov	r3, r0
 4121 3a2c 0140A0E1 		mov	r4, r1
 4122 3a30 0350A0E1 		mov	r7, r3
 4123 3a34 0460A0E1 		mov	r8, r4
 4124 3a38 30001BE5 		ldr	r0, [fp, #-52]	@ float
 4125 3a3c FEFFFFEB 		bl	__extendsfdf2
 4126 3a40 0030A0E1 		mov	r3, r0
 4127 3a44 0140A0E1 		mov	r4, r1
 4128 3a48 0300A0E1 		mov	r0, r3
 4129 3a4c 0410A0E1 		mov	r1, r4
 4130 3a50 FEFFFFEB 		bl	cos
 4131 3a54 0030A0E1 		mov	r5, r0
 4132 3a58 0140A0E1 		mov	r6, r1
 4133 3a5c 0500A0E1 		ldr	r0, [fp, #-52]	@ float
 4134 3a60 0610A0E1 		bl	__extendsfdf2
 4135 3a64 0320A0E1 		mov	r3, r0
 4136 3a68 0430A0E1 		mov	r4, r1
 4137 3a6c FEFFFFEB 		mov	r0, r3
 4138 3a70 0030A0E1 		mov	r1, r4
 4139 3a74 0140A0E1 		bl	cos
 4140 3a78 0350A0E1 		mov	r3, r0
 4141 3a7c 0460A0E1 		mov	r4, r1
 4142 3a80 30001BE5 		mov	r0, r5
 4143 3a84 FEFFFFEB 		mov	r1, r6
 4144 3a88 0030A0E1 		mov	r2, r3
 4145 3a8c 0140A0E1 		mov	r3, r4
 4146 3a90 0300A0E1 		bl	__muldf3
 4147 3a94 0410A0E1 		mov	r3, r0
 4148 3a98 FEFFFFEB 		mov	r4, r1
 4149 3a9c 0030A0E1 		mov	r5, r3
 4150 3aa0 0140A0E1 		mov	r6, r4
 4151 3aa4 0500A0E1 		ldr	r0, [fp, #-48]	@ float
 4152 3aa8 0610A0E1 		bl	__extendsfdf2
 4153 3aac 0320A0E1 		mov	r3, r0
 4154 3ab0 0430A0E1 		mov	r4, r1
 4155 3ab4 FEFFFFEB 		mov	r0, r3
 4156 3ab8 0030A0E1 		mov	r1, r4
 4157 3abc 0140A0E1 		bl	cos
 4158 3ac0 0700A0E1 		mov	r3, r0
 4159 3ac4 0810A0E1 		mov	r4, r1
 4160 3ac8 0320A0E1 		mov	r0, r5
 4161 3acc 0430A0E1 		mov	r1, r6
 4162 3ad0 FEFFFFEB 		mov	r2, r3
 4163 3ad4 0030A0E1 		mov	r3, r4
 4164 3ad8 0140A0E1 		bl	__muldf3
 4165 3adc 0370A0E1 		mov	r3, r0
 4166 3ae0 0480A0E1 		mov	r4, r1
 4167 3ae4 34001BE5 		mov	r5, r3
 4168 3ae8 FEFFFFEB 		mov	r6, r4
 4169 3aec 0030A0E1 		ldr	r0, [fp, #-48]	@ float
 4170 3af0 0140A0E1 		bl	__extendsfdf2
 4171 3af4 0300A0E1 		mov	r3, r0
 4172 3af8 0410A0E1 		mov	r4, r1
 4173 3afc FEFFFFEB 		mov	r0, r3
 4174 3b00 0050A0E1 		mov	r1, r4
 4175 3b04 0160A0E1 		bl	cos
 4176 3b08 2C001BE5 		mov	r3, r0
 4177 3b0c FEFFFFEB 		mov	r4, r1
 4178 3b10 0030A0E1 		mov	r0, r5
 4179 3b14 0140A0E1 		mov	r1, r6
 4180 3b18 0300A0E1 		mov	r2, r3
 4181 3b1c 0410A0E1 		mov	r3, r4
 4182 3b20 FEFFFFEB 		bl	__muldf3
 4183 3b24 0030A0E1 		mov	r3, r0
 4184 3b28 0140A0E1 		mov	r4, r1
 4185 3b2c 0500A0E1 		mov	r5, r3
 4186 3b30 0610A0E1 		mov	r6, r4
 4187 3b34 0320A0E1 		ldr	r0, [fp, #-44]	@ float
 4188 3b38 0430A0E1 		bl	__extendsfdf2
 4189 3b3c FEFFFFEB 		mov	r3, r0
 4190 3b40 0030A0E1 		mov	r4, r1
 4191 3b44 0140A0E1 		mov	r0, r3
 4192 3b48 0350A0E1 		mov	r1, r4
 4193 3b4c 0460A0E1 		bl	cos
 4194 3b50 30001BE5 		mov	r3, r0
 4195 3b54 FEFFFFEB 		mov	r4, r1
 4196 3b58 0030A0E1 		mov	r0, r5
 4197 3b5c 0140A0E1 		mov	r1, r6
 4198 3b60 0300A0E1 		mov	r2, r3
 4199 3b64 0410A0E1 		mov	r3, r4
 4200 3b68 FEFFFFEB 		bl	__muldf3
 4201 3b6c 0030A0E1 		mov	r3, r0
 4202 3b70 0140A0E1 		mov	r4, r1
 4203 3b74 0500A0E1 		mov	r5, r3
 4204 3b78 0610A0E1 		mov	r6, r4
 4205 3b7c 0320A0E1 		ldr	r0, [fp, #-44]	@ float
 4206 3b80 0430A0E1 		bl	__extendsfdf2
 4207 3b84 FEFFFFEB 		mov	r3, r0
 4208 3b88 0030A0E1 		mov	r4, r1
 4209 3b8c 0140A0E1 		mov	r0, r3
 4210 3b90 0700A0E1 		mov	r1, r4
 4211 3b94 0810A0E1 		bl	cos
 4212 3b98 0320A0E1 		mov	r3, r0
 4213 3b9c 0430A0E1 		mov	r4, r1
 4214 3ba0 FEFFFFEB 		mov	r0, r5
 4215 3ba4 0030A0E1 		mov	r1, r6
 4216 3ba8 0140A0E1 		mov	r2, r3
 4217 3bac 0370A0E1 		mov	r3, r4
 4218 3bb0 0480A0E1 		bl	__muldf3
 4219 3bb4 34001BE5 		mov	r3, r0
 4220 3bb8 FEFFFFEB 		mov	r4, r1
 4221 3bbc 0030A0E1 		mov	r9, r3
 4222 3bc0 0140A0E1 		mov	sl, r4
 4223 3bc4 0300A0E1 		ldr	r0, [fp, #-52]	@ float
 4224 3bc8 0410A0E1 		bl	__extendsfdf2
 4225 3bcc FEFFFFEB 		mov	r3, r0
 4226 3bd0 0050A0E1 		mov	r4, r1
 4227 3bd4 0160A0E1 		mov	r0, r3
 4228 3bd8 34001BE5 		mov	r1, r4
 4229 3bdc FEFFFFEB 		bl	cos
 4230 3be0 0030A0E1 		mov	r5, r0
 4231 3be4 0140A0E1 		mov	r6, r1
 4232 3be8 0300A0E1 		ldr	r0, [fp, #-52]	@ float
 4233 3bec 0410A0E1 		bl	__extendsfdf2
 4234 3bf0 FEFFFFEB 		mov	r3, r0
 4235 3bf4 0030A0E1 		mov	r4, r1
 4236 3bf8 0140A0E1 		mov	r0, r3
 4237 3bfc 0500A0E1 		mov	r1, r4
 4238 3c00 0610A0E1 		bl	cos
 4239 3c04 0320A0E1 		mov	r3, r0
 4240 3c08 0430A0E1 		mov	r4, r1
 4241 3c0c FEFFFFEB 		mov	r0, r5
 4242 3c10 0030A0E1 		mov	r1, r6
 4243 3c14 0140A0E1 		mov	r2, r3
 4244 3c18 0350A0E1 		mov	r3, r4
 4245 3c1c 0460A0E1 		bl	__muldf3
 4246 3c20 30001BE5 		mov	r3, r0
 4247 3c24 FEFFFFEB 		mov	r4, r1
 4248 3c28 0030A0E1 		mov	r5, r3
 4249 3c2c 0140A0E1 		mov	r6, r4
 4250 3c30 0300A0E1 		ldr	r0, [fp, #-48]	@ float
 4251 3c34 0410A0E1 		bl	__extendsfdf2
 4252 3c38 FEFFFFEB 		mov	r3, r0
 4253 3c3c 0030A0E1 		mov	r4, r1
 4254 3c40 0140A0E1 		mov	r0, r3
 4255 3c44 0500A0E1 		mov	r1, r4
 4256 3c48 0610A0E1 		bl	cos
 4257 3c4c 0320A0E1 		mov	r3, r0
 4258 3c50 0430A0E1 		mov	r4, r1
 4259 3c54 FEFFFFEB 		mov	r0, r5
 4260 3c58 0030A0E1 		mov	r1, r6
 4261 3c5c 0140A0E1 		mov	r2, r3
 4262 3c60 0350A0E1 		mov	r3, r4
 4263 3c64 0460A0E1 		bl	__muldf3
 4264 3c68 30001BE5 		mov	r3, r0
 4265 3c6c FEFFFFEB 		mov	r4, r1
 4266 3c70 0030A0E1 		mov	r5, r3
 4267 3c74 0140A0E1 		mov	r6, r4
 4268 3c78 0300A0E1 		ldr	r0, [fp, #-48]	@ float
 4269 3c7c 0410A0E1 		bl	__extendsfdf2
 4270 3c80 FEFFFFEB 		mov	r3, r0
 4271 3c84 0030A0E1 		mov	r4, r1
 4272 3c88 0140A0E1 		mov	r0, r3
 4273 3c8c 0500A0E1 		mov	r1, r4
 4274 3c90 0610A0E1 		bl	cos
 4275 3c94 0320A0E1 		mov	r3, r0
 4276 3c98 0430A0E1 		mov	r4, r1
 4277 3c9c FEFFFFEB 		mov	r0, r5
 4278 3ca0 0030A0E1 		mov	r1, r6
 4279 3ca4 0140A0E1 		mov	r2, r3
 4280 3ca8 0350A0E1 		mov	r3, r4
 4281 3cac 0460A0E1 		bl	__muldf3
 4282 3cb0 2C001BE5 		mov	r3, r0
 4283 3cb4 FEFFFFEB 		mov	r4, r1
 4284 3cb8 0030A0E1 		mov	r5, r3
 4285 3cbc 0140A0E1 		mov	r6, r4
 4286 3cc0 0300A0E1 		ldr	r0, [fp, #-44]	@ float
 4287 3cc4 0410A0E1 		bl	__extendsfdf2
 4288 3cc8 FEFFFFEB 		mov	r3, r0
 4289 3ccc 0030A0E1 		mov	r4, r1
 4290 3cd0 0140A0E1 		mov	r0, r3
 4291 3cd4 0500A0E1 		mov	r1, r4
 4292 3cd8 0610A0E1 		bl	sin
 4293 3cdc 0320A0E1 		mov	r3, r0
 4294 3ce0 0430A0E1 		mov	r4, r1
 4295 3ce4 FEFFFFEB 		mov	r0, r5
 4296 3ce8 0030A0E1 		mov	r1, r6
 4297 3cec 0140A0E1 		mov	r2, r3
 4298 3cf0 0350A0E1 		mov	r3, r4
 4299 3cf4 0460A0E1 		bl	__muldf3
 4300 3cf8 2C001BE5 		mov	r3, r0
 4301 3cfc FEFFFFEB 		mov	r4, r1
 4302 3d00 0030A0E1 		mov	r5, r3
 4303 3d04 0140A0E1 		mov	r6, r4
 4304 3d08 0300A0E1 		ldr	r0, [fp, #-44]	@ float
 4305 3d0c 0410A0E1 		bl	__extendsfdf2
 4306 3d10 FEFFFFEB 		mov	r3, r0
 4307 3d14 0030A0E1 		mov	r4, r1
 4308 3d18 0140A0E1 		mov	r0, r3
 4309 3d1c 0500A0E1 		mov	r1, r4
 4310 3d20 0610A0E1 		bl	sin
 4311 3d24 0320A0E1 		mov	r3, r0
 4312 3d28 0430A0E1 		mov	r4, r1
 4313 3d2c FEFFFFEB 		mov	r0, r5
 4314 3d30 0030A0E1 		mov	r1, r6
 4315 3d34 0140A0E1 		mov	r2, r3
 4316 3d38 0390A0E1 		mov	r3, r4
 4317 3d3c 04A0A0E1 		bl	__muldf3
 4318 3d40 34001BE5 		mov	r3, r0
 4319 3d44 FEFFFFEB 		mov	r4, r1
 4320 3d48 0030A0E1 		mov	r0, r9
 4321 3d4c 0140A0E1 		mov	r1, sl
 4322 3d50 0300A0E1 		mov	r2, r3
 4323 3d54 0410A0E1 		mov	r3, r4
 4324 3d58 FEFFFFEB 		bl	__adddf3
 4325 3d5c 0050A0E1 		mov	r3, r0
 4326 3d60 0160A0E1 		mov	r4, r1
 4327 3d64 34001BE5 		mov	r9, r3
 4328 3d68 FEFFFFEB 		mov	sl, r4
 4329 3d6c 0030A0E1 		ldr	r0, [fp, #-52]	@ float
 4330 3d70 0140A0E1 		bl	__extendsfdf2
 4331 3d74 0300A0E1 		mov	r3, r0
 4332 3d78 0410A0E1 		mov	r4, r1
 4333 3d7c FEFFFFEB 		mov	r0, r3
 4334 3d80 0030A0E1 		mov	r1, r4
 4335 3d84 0140A0E1 		bl	cos
 4336 3d88 0500A0E1 		mov	r5, r0
 4337 3d8c 0610A0E1 		mov	r6, r1
 4338 3d90 0320A0E1 		ldr	r0, [fp, #-52]	@ float
 4339 3d94 0430A0E1 		bl	__extendsfdf2
 4340 3d98 FEFFFFEB 		mov	r3, r0
 4341 3d9c 0030A0E1 		mov	r4, r1
 4342 3da0 0140A0E1 		mov	r0, r3
 4343 3da4 0350A0E1 		mov	r1, r4
 4344 3da8 0460A0E1 		bl	cos
 4345 3dac 30001BE5 		mov	r3, r0
 4346 3db0 FEFFFFEB 		mov	r4, r1
 4347 3db4 0030A0E1 		mov	r0, r5
 4348 3db8 0140A0E1 		mov	r1, r6
 4349 3dbc 0300A0E1 		mov	r2, r3
 4350 3dc0 0410A0E1 		mov	r3, r4
 4351 3dc4 FEFFFFEB 		bl	__muldf3
 4352 3dc8 0030A0E1 		mov	r3, r0
 4353 3dcc 0140A0E1 		mov	r4, r1
 4354 3dd0 0500A0E1 		mov	r5, r3
 4355 3dd4 0610A0E1 		mov	r6, r4
 4356 3dd8 0320A0E1 		ldr	r0, [fp, #-44]	@ float
 4357 3ddc 0430A0E1 		bl	__extendsfdf2
 4358 3de0 FEFFFFEB 		mov	r3, r0
 4359 3de4 0030A0E1 		mov	r4, r1
 4360 3de8 0140A0E1 		mov	r0, r3
 4361 3dec 0350A0E1 		mov	r1, r4
 4362 3df0 0460A0E1 		bl	cos
 4363 3df4 30001BE5 		mov	r3, r0
 4364 3df8 FEFFFFEB 		mov	r4, r1
 4365 3dfc 0030A0E1 		mov	r0, r5
 4366 3e00 0140A0E1 		mov	r1, r6
 4367 3e04 0300A0E1 		mov	r2, r3
 4368 3e08 0410A0E1 		mov	r3, r4
 4369 3e0c FEFFFFEB 		bl	__muldf3
 4370 3e10 0030A0E1 		mov	r3, r0
 4371 3e14 0140A0E1 		mov	r4, r1
 4372 3e18 0500A0E1 		mov	r5, r3
 4373 3e1c 0610A0E1 		mov	r6, r4
 4374 3e20 0320A0E1 		ldr	r0, [fp, #-44]	@ float
 4375 3e24 0430A0E1 		bl	__extendsfdf2
 4376 3e28 FEFFFFEB 		mov	r3, r0
 4377 3e2c 0030A0E1 		mov	r4, r1
 4378 3e30 0140A0E1 		mov	r0, r3
 4379 3e34 0350A0E1 		mov	r1, r4
 4380 3e38 0460A0E1 		bl	cos
 4381 3e3c 2C001BE5 		mov	r3, r0
 4382 3e40 FEFFFFEB 		mov	r4, r1
 4383 3e44 0030A0E1 		mov	r0, r5
 4384 3e48 0140A0E1 		mov	r1, r6
 4385 3e4c 0300A0E1 		mov	r2, r3
 4386 3e50 0410A0E1 		mov	r3, r4
 4387 3e54 FEFFFFEB 		bl	__muldf3
 4388 3e58 0030A0E1 		mov	r3, r0
 4389 3e5c 0140A0E1 		mov	r4, r1
 4390 3e60 0500A0E1 		mov	r5, r3
 4391 3e64 0610A0E1 		mov	r6, r4
 4392 3e68 0320A0E1 		ldr	r0, [fp, #-48]	@ float
 4393 3e6c 0430A0E1 		bl	__extendsfdf2
 4394 3e70 FEFFFFEB 		mov	r3, r0
 4395 3e74 0030A0E1 		mov	r4, r1
 4396 3e78 0140A0E1 		mov	r0, r3
 4397 3e7c 0350A0E1 		mov	r1, r4
 4398 3e80 0460A0E1 		bl	sin
 4399 3e84 2C001BE5 		mov	r3, r0
 4400 3e88 FEFFFFEB 		mov	r4, r1
 4401 3e8c 0030A0E1 		mov	r0, r5
 4402 3e90 0140A0E1 		mov	r1, r6
 4403 3e94 0300A0E1 		mov	r2, r3
 4404 3e98 0410A0E1 		mov	r3, r4
 4405 3e9c FEFFFFEB 		bl	__muldf3
 4406 3ea0 0030A0E1 		mov	r3, r0
 4407 3ea4 0140A0E1 		mov	r4, r1
 4408 3ea8 0500A0E1 		mov	r5, r3
 4409 3eac 0610A0E1 		mov	r6, r4
 4410 3eb0 0320A0E1 		ldr	r0, [fp, #-48]	@ float
 4411 3eb4 0430A0E1 		bl	__extendsfdf2
 4412 3eb8 FEFFFFEB 		mov	r3, r0
 4413 3ebc 0030A0E1 		mov	r4, r1
 4414 3ec0 0140A0E1 		mov	r0, r3
 4415 3ec4 0900A0E1 		mov	r1, r4
 4416 3ec8 0A10A0E1 		bl	sin
 4417 3ecc 0320A0E1 		mov	r3, r0
 4418 3ed0 0430A0E1 		mov	r4, r1
 4419 3ed4 FEFFFFEB 		mov	r0, r5
 4420 3ed8 0030A0E1 		mov	r1, r6
 4421 3edc 0140A0E1 		mov	r2, r3
 4422 3ee0 0390A0E1 		mov	r3, r4
 4423 3ee4 04A0A0E1 		bl	__muldf3
 4424 3ee8 34001BE5 		mov	r3, r0
 4425 3eec FEFFFFEB 		mov	r4, r1
 4426 3ef0 0030A0E1 		mov	r0, r9
 4427 3ef4 0140A0E1 		mov	r1, sl
 4428 3ef8 0300A0E1 		mov	r2, r3
 4429 3efc 0410A0E1 		mov	r3, r4
 4430 3f00 FEFFFFEB 		bl	__adddf3
 4431 3f04 0050A0E1 		mov	r3, r0
 4432 3f08 0160A0E1 		mov	r4, r1
 4433 3f0c 34001BE5 		mov	r9, r3
 4434 3f10 FEFFFFEB 		mov	sl, r4
 4435 3f14 0030A0E1 		ldr	r0, [fp, #-52]	@ float
 4436 3f18 0140A0E1 		bl	__extendsfdf2
 4437 3f1c 0300A0E1 		mov	r3, r0
 4438 3f20 0410A0E1 		mov	r4, r1
 4439 3f24 FEFFFFEB 		mov	r0, r3
 4440 3f28 0030A0E1 		mov	r1, r4
 4441 3f2c 0140A0E1 		bl	cos
 4442 3f30 0500A0E1 		mov	r5, r0
 4443 3f34 0610A0E1 		mov	r6, r1
 4444 3f38 0320A0E1 		ldr	r0, [fp, #-52]	@ float
 4445 3f3c 0430A0E1 		bl	__extendsfdf2
 4446 3f40 FEFFFFEB 		mov	r3, r0
 4447 3f44 0030A0E1 		mov	r4, r1
 4448 3f48 0140A0E1 		mov	r0, r3
 4449 3f4c 0350A0E1 		mov	r1, r4
 4450 3f50 0460A0E1 		bl	cos
 4451 3f54 2C001BE5 		mov	r3, r0
 4452 3f58 FEFFFFEB 		mov	r4, r1
 4453 3f5c 0030A0E1 		mov	r0, r5
 4454 3f60 0140A0E1 		mov	r1, r6
 4455 3f64 0300A0E1 		mov	r2, r3
 4456 3f68 0410A0E1 		mov	r3, r4
 4457 3f6c FEFFFFEB 		bl	__muldf3
 4458 3f70 0030A0E1 		mov	r3, r0
 4459 3f74 0140A0E1 		mov	r4, r1
 4460 3f78 0500A0E1 		mov	r5, r3
 4461 3f7c 0610A0E1 		mov	r6, r4
 4462 3f80 0320A0E1 		ldr	r0, [fp, #-48]	@ float
 4463 3f84 0430A0E1 		bl	__extendsfdf2
 4464 3f88 FEFFFFEB 		mov	r3, r0
 4465 3f8c 0030A0E1 		mov	r4, r1
 4466 3f90 0140A0E1 		mov	r0, r3
 4467 3f94 0350A0E1 		mov	r1, r4
 4468 3f98 0460A0E1 		bl	sin
 4469 3f9c 2C001BE5 		mov	r3, r0
 4470 3fa0 FEFFFFEB 		mov	r4, r1
 4471 3fa4 0030A0E1 		mov	r0, r5
 4472 3fa8 0140A0E1 		mov	r1, r6
 4473 3fac 0300A0E1 		mov	r2, r3
 4474 3fb0 0410A0E1 		mov	r3, r4
 4475 3fb4 FEFFFFEB 		bl	__muldf3
 4476 3fb8 0030A0E1 		mov	r3, r0
 4477 3fbc 0140A0E1 		mov	r4, r1
 4478 3fc0 0500A0E1 		mov	r5, r3
 4479 3fc4 0610A0E1 		mov	r6, r4
 4480 3fc8 0320A0E1 		ldr	r0, [fp, #-48]	@ float
 4481 3fcc 0430A0E1 		bl	__extendsfdf2
 4482 3fd0 FEFFFFEB 		mov	r3, r0
 4483 3fd4 0030A0E1 		mov	r4, r1
 4484 3fd8 0140A0E1 		mov	r0, r3
 4485 3fdc 0350A0E1 		mov	r1, r4
 4486 3fe0 0460A0E1 		bl	sin
 4487 3fe4 30001BE5 		mov	r3, r0
 4488 3fe8 FEFFFFEB 		mov	r4, r1
 4489 3fec 0030A0E1 		mov	r0, r5
 4490 3ff0 0140A0E1 		mov	r1, r6
 4491 3ff4 0300A0E1 		mov	r2, r3
 4492 3ff8 0410A0E1 		mov	r3, r4
 4493 3ffc FEFFFFEB 		bl	__muldf3
 4494 4000 0030A0E1 		mov	r3, r0
 4495 4004 0140A0E1 		mov	r4, r1
 4496 4008 0500A0E1 		mov	r5, r3
 4497 400c 0610A0E1 		mov	r6, r4
 4498 4010 0320A0E1 		ldr	r0, [fp, #-44]	@ float
 4499 4014 0430A0E1 		bl	__extendsfdf2
 4500 4018 FEFFFFEB 		mov	r3, r0
 4501 401c 0030A0E1 		mov	r4, r1
 4502 4020 0140A0E1 		mov	r0, r3
 4503 4024 0350A0E1 		mov	r1, r4
 4504 4028 0460A0E1 		bl	sin
 4505 402c 30001BE5 		mov	r3, r0
 4506 4030 FEFFFFEB 		mov	r4, r1
 4507 4034 0030A0E1 		mov	r0, r5
 4508 4038 0140A0E1 		mov	r1, r6
 4509 403c 0300A0E1 		mov	r2, r3
 4510 4040 0410A0E1 		mov	r3, r4
 4511 4044 FEFFFFEB 		bl	__muldf3
 4512 4048 0030A0E1 		mov	r3, r0
 4513 404c 0140A0E1 		mov	r4, r1
 4514 4050 0500A0E1 		mov	r5, r3
 4515 4054 0610A0E1 		mov	r6, r4
 4516 4058 0320A0E1 		ldr	r0, [fp, #-44]	@ float
 4517 405c 0430A0E1 		bl	__extendsfdf2
 4518 4060 FEFFFFEB 		mov	r3, r0
 4519 4064 0030A0E1 		mov	r4, r1
 4520 4068 0140A0E1 		mov	r0, r3
 4521 406c 0900A0E1 		mov	r1, r4
 4522 4070 0A10A0E1 		bl	sin
 4523 4074 0320A0E1 		mov	r3, r0
 4524 4078 0430A0E1 		mov	r4, r1
 4525 407c FEFFFFEB 		mov	r0, r5
 4526 4080 0030A0E1 		mov	r1, r6
 4527 4084 0140A0E1 		mov	r2, r3
 4528 4088 0390A0E1 		mov	r3, r4
 4529 408c 04A0A0E1 		bl	__muldf3
 4530 4090 34001BE5 		mov	r3, r0
 4531 4094 FEFFFFEB 		mov	r4, r1
 4532 4098 0030A0E1 		mov	r0, r9
 4533 409c 0140A0E1 		mov	r1, sl
 4534 40a0 0300A0E1 		mov	r2, r3
 4535 40a4 0410A0E1 		mov	r3, r4
 4536 40a8 FEFFFFEB 		bl	__adddf3
 4537 40ac 0050A0E1 		mov	r3, r0
 4538 40b0 0160A0E1 		mov	r4, r1
 4539 40b4 34001BE5 		mov	r9, r3
 4540 40b8 FEFFFFEB 		mov	sl, r4
 4541 40bc 0030A0E1 		ldr	r0, [fp, #-48]	@ float
 4542 40c0 0140A0E1 		bl	__extendsfdf2
 4543 40c4 0300A0E1 		mov	r3, r0
 4544 40c8 0410A0E1 		mov	r4, r1
 4545 40cc FEFFFFEB 		mov	r0, r3
 4546 40d0 0030A0E1 		mov	r1, r4
 4547 40d4 0140A0E1 		bl	cos
 4548 40d8 0500A0E1 		mov	r5, r0
 4549 40dc 0610A0E1 		mov	r6, r1
 4550 40e0 0320A0E1 		ldr	r0, [fp, #-48]	@ float
 4551 40e4 0430A0E1 		bl	__extendsfdf2
 4552 40e8 FEFFFFEB 		mov	r3, r0
 4553 40ec 0030A0E1 		mov	r4, r1
 4554 40f0 0140A0E1 		mov	r0, r3
 4555 40f4 0350A0E1 		mov	r1, r4
 4556 40f8 0460A0E1 		bl	cos
 4557 40fc 30001BE5 		mov	r3, r0
 4558 4100 FEFFFFEB 		mov	r4, r1
 4559 4104 0030A0E1 		mov	r0, r5
 4560 4108 0140A0E1 		mov	r1, r6
 4561 410c 0300A0E1 		mov	r2, r3
 4562 4110 0410A0E1 		mov	r3, r4
 4563 4114 FEFFFFEB 		bl	__muldf3
 4564 4118 0030A0E1 		mov	r3, r0
 4565 411c 0140A0E1 		mov	r4, r1
 4566 4120 0500A0E1 		mov	r5, r3
 4567 4124 0610A0E1 		mov	r6, r4
 4568 4128 0320A0E1 		ldr	r0, [fp, #-44]	@ float
 4569 412c 0430A0E1 		bl	__extendsfdf2
 4570 4130 FEFFFFEB 		mov	r3, r0
 4571 4134 0030A0E1 		mov	r4, r1
 4572 4138 0140A0E1 		mov	r0, r3
 4573 413c 0350A0E1 		mov	r1, r4
 4574 4140 0460A0E1 		bl	cos
 4575 4144 30001BE5 		mov	r3, r0
 4576 4148 FEFFFFEB 		mov	r4, r1
 4577 414c 0030A0E1 		mov	r0, r5
 4578 4150 0140A0E1 		mov	r1, r6
 4579 4154 0300A0E1 		mov	r2, r3
 4580 4158 0410A0E1 		mov	r3, r4
 4581 415c FEFFFFEB 		bl	__muldf3
 4582 4160 0030A0E1 		mov	r3, r0
 4583 4164 0140A0E1 		mov	r4, r1
 4584 4168 0500A0E1 		mov	r5, r3
 4585 416c 0610A0E1 		mov	r6, r4
 4586 4170 0320A0E1 		ldr	r0, [fp, #-44]	@ float
 4587 4174 0430A0E1 		bl	__extendsfdf2
 4588 4178 FEFFFFEB 		mov	r3, r0
 4589 417c 0030A0E1 		mov	r4, r1
 4590 4180 0140A0E1 		mov	r0, r3
 4591 4184 0350A0E1 		mov	r1, r4
 4592 4188 0460A0E1 		bl	cos
 4593 418c 2C001BE5 		mov	r3, r0
 4594 4190 FEFFFFEB 		mov	r4, r1
 4595 4194 0030A0E1 		mov	r0, r5
 4596 4198 0140A0E1 		mov	r1, r6
 4597 419c 0300A0E1 		mov	r2, r3
 4598 41a0 0410A0E1 		mov	r3, r4
 4599 41a4 FEFFFFEB 		bl	__muldf3
 4600 41a8 0030A0E1 		mov	r3, r0
 4601 41ac 0140A0E1 		mov	r4, r1
 4602 41b0 0500A0E1 		mov	r5, r3
 4603 41b4 0610A0E1 		mov	r6, r4
 4604 41b8 0320A0E1 		ldr	r0, [fp, #-52]	@ float
 4605 41bc 0430A0E1 		bl	__extendsfdf2
 4606 41c0 FEFFFFEB 		mov	r3, r0
 4607 41c4 0030A0E1 		mov	r4, r1
 4608 41c8 0140A0E1 		mov	r0, r3
 4609 41cc 0350A0E1 		mov	r1, r4
 4610 41d0 0460A0E1 		bl	sin
 4611 41d4 2C001BE5 		mov	r3, r0
 4612 41d8 FEFFFFEB 		mov	r4, r1
 4613 41dc 0030A0E1 		mov	r0, r5
 4614 41e0 0140A0E1 		mov	r1, r6
 4615 41e4 0300A0E1 		mov	r2, r3
 4616 41e8 0410A0E1 		mov	r3, r4
 4617 41ec FEFFFFEB 		bl	__muldf3
 4618 41f0 0030A0E1 		mov	r3, r0
 4619 41f4 0140A0E1 		mov	r4, r1
 4620 41f8 0500A0E1 		mov	r5, r3
 4621 41fc 0610A0E1 		mov	r6, r4
 4622 4200 0320A0E1 		ldr	r0, [fp, #-52]	@ float
 4623 4204 0430A0E1 		bl	__extendsfdf2
 4624 4208 FEFFFFEB 		mov	r3, r0
 4625 420c 0030A0E1 		mov	r4, r1
 4626 4210 0140A0E1 		mov	r0, r3
 4627 4214 0900A0E1 		mov	r1, r4
 4628 4218 0A10A0E1 		bl	sin
 4629 421c 0320A0E1 		mov	r3, r0
 4630 4220 0430A0E1 		mov	r4, r1
 4631 4224 FEFFFFEB 		mov	r0, r5
 4632 4228 0030A0E1 		mov	r1, r6
 4633 422c 0140A0E1 		mov	r2, r3
 4634 4230 0390A0E1 		mov	r3, r4
 4635 4234 04A0A0E1 		bl	__muldf3
 4636 4238 30001BE5 		mov	r3, r0
 4637 423c FEFFFFEB 		mov	r4, r1
 4638 4240 0030A0E1 		mov	r0, r9
 4639 4244 0140A0E1 		mov	r1, sl
 4640 4248 0300A0E1 		mov	r2, r3
 4641 424c 0410A0E1 		mov	r3, r4
 4642 4250 FEFFFFEB 		bl	__adddf3
 4643 4254 0050A0E1 		mov	r3, r0
 4644 4258 0160A0E1 		mov	r4, r1
 4645 425c 30001BE5 		mov	r9, r3
 4646 4260 FEFFFFEB 		mov	sl, r4
 4647 4264 0030A0E1 		ldr	r0, [fp, #-48]	@ float
 4648 4268 0140A0E1 		bl	__extendsfdf2
 4649 426c 0300A0E1 		mov	r3, r0
 4650 4270 0410A0E1 		mov	r4, r1
 4651 4274 FEFFFFEB 		mov	r0, r3
 4652 4278 0030A0E1 		mov	r1, r4
 4653 427c 0140A0E1 		bl	cos
 4654 4280 0500A0E1 		mov	r5, r0
 4655 4284 0610A0E1 		mov	r6, r1
 4656 4288 0320A0E1 		ldr	r0, [fp, #-48]	@ float
 4657 428c 0430A0E1 		bl	__extendsfdf2
 4658 4290 FEFFFFEB 		mov	r3, r0
 4659 4294 0030A0E1 		mov	r4, r1
 4660 4298 0140A0E1 		mov	r0, r3
 4661 429c 0350A0E1 		mov	r1, r4
 4662 42a0 0460A0E1 		bl	cos
 4663 42a4 2C001BE5 		mov	r3, r0
 4664 42a8 FEFFFFEB 		mov	r4, r1
 4665 42ac 0030A0E1 		mov	r0, r5
 4666 42b0 0140A0E1 		mov	r1, r6
 4667 42b4 0300A0E1 		mov	r2, r3
 4668 42b8 0410A0E1 		mov	r3, r4
 4669 42bc FEFFFFEB 		bl	__muldf3
 4670 42c0 0030A0E1 		mov	r3, r0
 4671 42c4 0140A0E1 		mov	r4, r1
 4672 42c8 0500A0E1 		mov	r5, r3
 4673 42cc 0610A0E1 		mov	r6, r4
 4674 42d0 0320A0E1 		ldr	r0, [fp, #-52]	@ float
 4675 42d4 0430A0E1 		bl	__extendsfdf2
 4676 42d8 FEFFFFEB 		mov	r3, r0
 4677 42dc 0030A0E1 		mov	r4, r1
 4678 42e0 0140A0E1 		mov	r0, r3
 4679 42e4 0350A0E1 		mov	r1, r4
 4680 42e8 0460A0E1 		bl	sin
 4681 42ec 2C001BE5 		mov	r3, r0
 4682 42f0 FEFFFFEB 		mov	r4, r1
 4683 42f4 0030A0E1 		mov	r0, r5
 4684 42f8 0140A0E1 		mov	r1, r6
 4685 42fc 0300A0E1 		mov	r2, r3
 4686 4300 0410A0E1 		mov	r3, r4
 4687 4304 FEFFFFEB 		bl	__muldf3
 4688 4308 0030A0E1 		mov	r3, r0
 4689 430c 0140A0E1 		mov	r4, r1
 4690 4310 0500A0E1 		mov	r5, r3
 4691 4314 0610A0E1 		mov	r6, r4
 4692 4318 0320A0E1 		ldr	r0, [fp, #-52]	@ float
 4693 431c 0430A0E1 		bl	__extendsfdf2
 4694 4320 FEFFFFEB 		mov	r3, r0
 4695 4324 0030A0E1 		mov	r4, r1
 4696 4328 0140A0E1 		mov	r0, r3
 4697 432c 0350A0E1 		mov	r1, r4
 4698 4330 0460A0E1 		bl	sin
 4699 4334 34001BE5 		mov	r3, r0
 4700 4338 FEFFFFEB 		mov	r4, r1
 4701 433c 0030A0E1 		mov	r0, r5
 4702 4340 0140A0E1 		mov	r1, r6
 4703 4344 0300A0E1 		mov	r2, r3
 4704 4348 0410A0E1 		mov	r3, r4
 4705 434c FEFFFFEB 		bl	__muldf3
 4706 4350 0030A0E1 		mov	r3, r0
 4707 4354 0140A0E1 		mov	r4, r1
 4708 4358 0500A0E1 		mov	r5, r3
 4709 435c 0610A0E1 		mov	r6, r4
 4710 4360 0320A0E1 		ldr	r0, [fp, #-44]	@ float
 4711 4364 0430A0E1 		bl	__extendsfdf2
 4712 4368 FEFFFFEB 		mov	r3, r0
 4713 436c 0030A0E1 		mov	r4, r1
 4714 4370 0140A0E1 		mov	r0, r3
 4715 4374 0350A0E1 		mov	r1, r4
 4716 4378 0460A0E1 		bl	sin
 4717 437c 34001BE5 		mov	r3, r0
 4718 4380 FEFFFFEB 		mov	r4, r1
 4719 4384 0030A0E1 		mov	r0, r5
 4720 4388 0140A0E1 		mov	r1, r6
 4721 438c 0300A0E1 		mov	r2, r3
 4722 4390 0410A0E1 		mov	r3, r4
 4723 4394 FEFFFFEB 		bl	__muldf3
 4724 4398 0030A0E1 		mov	r3, r0
 4725 439c 0140A0E1 		mov	r4, r1
 4726 43a0 0500A0E1 		mov	r5, r3
 4727 43a4 0610A0E1 		mov	r6, r4
 4728 43a8 0320A0E1 		ldr	r0, [fp, #-44]	@ float
 4729 43ac 0430A0E1 		bl	__extendsfdf2
 4730 43b0 FEFFFFEB 		mov	r3, r0
 4731 43b4 0030A0E1 		mov	r4, r1
 4732 43b8 0140A0E1 		mov	r0, r3
 4733 43bc 0900A0E1 		mov	r1, r4
 4734 43c0 0A10A0E1 		bl	sin
 4735 43c4 0320A0E1 		mov	r3, r0
 4736 43c8 0430A0E1 		mov	r4, r1
 4737 43cc FEFFFFEB 		mov	r0, r5
 4738 43d0 0030A0E1 		mov	r1, r6
 4739 43d4 0140A0E1 		mov	r2, r3
 4740 43d8 0390A0E1 		mov	r3, r4
 4741 43dc 04A0A0E1 		bl	__muldf3
 4742 43e0 30001BE5 		mov	r3, r0
 4743 43e4 FEFFFFEB 		mov	r4, r1
 4744 43e8 0030A0E1 		mov	r0, r9
 4745 43ec 0140A0E1 		mov	r1, sl
 4746 43f0 0300A0E1 		mov	r2, r3
 4747 43f4 0410A0E1 		mov	r3, r4
 4748 43f8 FEFFFFEB 		bl	__adddf3
 4749 43fc 0050A0E1 		mov	r3, r0
 4750 4400 0160A0E1 		mov	r4, r1
 4751 4404 30001BE5 		mov	r9, r3
 4752 4408 FEFFFFEB 		mov	sl, r4
 4753 440c 0030A0E1 		ldr	r0, [fp, #-44]	@ float
 4754 4410 0140A0E1 		bl	__extendsfdf2
 4755 4414 0300A0E1 		mov	r3, r0
 4756 4418 0410A0E1 		mov	r4, r1
 4757 441c FEFFFFEB 		mov	r0, r3
 4758 4420 0030A0E1 		mov	r1, r4
 4759 4424 0140A0E1 		bl	cos
 4760 4428 0500A0E1 		mov	r5, r0
 4761 442c 0610A0E1 		mov	r6, r1
 4762 4430 0320A0E1 		ldr	r0, [fp, #-44]	@ float
 4763 4434 0430A0E1 		bl	__extendsfdf2
 4764 4438 FEFFFFEB 		mov	r3, r0
 4765 443c 0030A0E1 		mov	r4, r1
 4766 4440 0140A0E1 		mov	r0, r3
 4767 4444 0350A0E1 		mov	r1, r4
 4768 4448 0460A0E1 		bl	cos
 4769 444c 34001BE5 		mov	r3, r0
 4770 4450 FEFFFFEB 		mov	r4, r1
 4771 4454 0030A0E1 		mov	r0, r5
 4772 4458 0140A0E1 		mov	r1, r6
 4773 445c 0300A0E1 		mov	r2, r3
 4774 4460 0410A0E1 		mov	r3, r4
 4775 4464 FEFFFFEB 		bl	__muldf3
 4776 4468 0030A0E1 		mov	r3, r0
 4777 446c 0140A0E1 		mov	r4, r1
 4778 4470 0500A0E1 		mov	r5, r3
 4779 4474 0610A0E1 		mov	r6, r4
 4780 4478 0320A0E1 		ldr	r0, [fp, #-52]	@ float
 4781 447c 0430A0E1 		bl	__extendsfdf2
 4782 4480 FEFFFFEB 		mov	r3, r0
 4783 4484 0030A0E1 		mov	r4, r1
 4784 4488 0140A0E1 		mov	r0, r3
 4785 448c 0350A0E1 		mov	r1, r4
 4786 4490 0460A0E1 		bl	sin
 4787 4494 34001BE5 		mov	r3, r0
 4788 4498 FEFFFFEB 		mov	r4, r1
 4789 449c 0030A0E1 		mov	r0, r5
 4790 44a0 0140A0E1 		mov	r1, r6
 4791 44a4 0300A0E1 		mov	r2, r3
 4792 44a8 0410A0E1 		mov	r3, r4
 4793 44ac FEFFFFEB 		bl	__muldf3
 4794 44b0 0030A0E1 		mov	r3, r0
 4795 44b4 0140A0E1 		mov	r4, r1
 4796 44b8 0500A0E1 		mov	r5, r3
 4797 44bc 0610A0E1 		mov	r6, r4
 4798 44c0 0320A0E1 		ldr	r0, [fp, #-52]	@ float
 4799 44c4 0430A0E1 		bl	__extendsfdf2
 4800 44c8 FEFFFFEB 		mov	r3, r0
 4801 44cc 0030A0E1 		mov	r4, r1
 4802 44d0 0140A0E1 		mov	r0, r3
 4803 44d4 0350A0E1 		mov	r1, r4
 4804 44d8 0460A0E1 		bl	sin
 4805 44dc 2C001BE5 		mov	r3, r0
 4806 44e0 FEFFFFEB 		mov	r4, r1
 4807 44e4 0030A0E1 		mov	r0, r5
 4808 44e8 0140A0E1 		mov	r1, r6
 4809 44ec 0300A0E1 		mov	r2, r3
 4810 44f0 0410A0E1 		mov	r3, r4
 4811 44f4 FEFFFFEB 		bl	__muldf3
 4812 44f8 0030A0E1 		mov	r3, r0
 4813 44fc 0140A0E1 		mov	r4, r1
 4814 4500 0500A0E1 		mov	r5, r3
 4815 4504 0610A0E1 		mov	r6, r4
 4816 4508 0320A0E1 		ldr	r0, [fp, #-48]	@ float
 4817 450c 0430A0E1 		bl	__extendsfdf2
 4818 4510 FEFFFFEB 		mov	r3, r0
 4819 4514 0030A0E1 		mov	r4, r1
 4820 4518 0140A0E1 		mov	r0, r3
 4821 451c 0350A0E1 		mov	r1, r4
 4822 4520 0460A0E1 		bl	sin
 4823 4524 2C001BE5 		mov	r3, r0
 4824 4528 FEFFFFEB 		mov	r4, r1
 4825 452c 0030A0E1 		mov	r0, r5
 4826 4530 0140A0E1 		mov	r1, r6
 4827 4534 0300A0E1 		mov	r2, r3
 4828 4538 0410A0E1 		mov	r3, r4
 4829 453c FEFFFFEB 		bl	__muldf3
 4830 4540 0030A0E1 		mov	r3, r0
 4831 4544 0140A0E1 		mov	r4, r1
 4832 4548 0500A0E1 		mov	r5, r3
 4833 454c 0610A0E1 		mov	r6, r4
 4834 4550 0320A0E1 		ldr	r0, [fp, #-48]	@ float
 4835 4554 0430A0E1 		bl	__extendsfdf2
 4836 4558 FEFFFFEB 		mov	r3, r0
 4837 455c 0030A0E1 		mov	r4, r1
 4838 4560 0140A0E1 		mov	r0, r3
 4839 4564 0900A0E1 		mov	r1, r4
 4840 4568 0A10A0E1 		bl	sin
 4841 456c 0320A0E1 		mov	r3, r0
 4842 4570 0430A0E1 		mov	r4, r1
 4843 4574 FEFFFFEB 		mov	r0, r5
 4844 4578 0030A0E1 		mov	r1, r6
 4845 457c 0140A0E1 		mov	r2, r3
 4846 4580 0390A0E1 		mov	r3, r4
 4847 4584 04A0A0E1 		bl	__muldf3
 4848 4588 2C001BE5 		mov	r3, r0
 4849 458c FEFFFFEB 		mov	r4, r1
 4850 4590 0030A0E1 		mov	r0, r9
 4851 4594 0140A0E1 		mov	r1, sl
 4852 4598 0300A0E1 		mov	r2, r3
 4853 459c 0410A0E1 		mov	r3, r4
 4854 45a0 FEFFFFEB 		bl	__adddf3
 4855 45a4 0050A0E1 		mov	r3, r0
 4856 45a8 0160A0E1 		mov	r4, r1
 4857 45ac 2C001BE5 		mov	r9, r3
 4858 45b0 FEFFFFEB 		mov	sl, r4
 4859 45b4 0030A0E1 		ldr	r0, [fp, #-52]	@ float
 4860 45b8 0140A0E1 		bl	__extendsfdf2
 4861 45bc 0300A0E1 		mov	r3, r0
 4862 45c0 0410A0E1 		mov	r4, r1
 4863 45c4 FEFFFFEB 		mov	r0, r3
 4864 45c8 0030A0E1 		mov	r1, r4
 4865 45cc 0140A0E1 		bl	sin
 4866 45d0 0500A0E1 		mov	r5, r0
 4867 45d4 0610A0E1 		mov	r6, r1
 4868 45d8 0320A0E1 		ldr	r0, [fp, #-52]	@ float
 4869 45dc 0430A0E1 		bl	__extendsfdf2
 4870 45e0 FEFFFFEB 		mov	r3, r0
 4871 45e4 0030A0E1 		mov	r4, r1
 4872 45e8 0140A0E1 		mov	r0, r3
 4873 45ec 0350A0E1 		mov	r1, r4
 4874 45f0 0460A0E1 		bl	sin
 4875 45f4 34001BE5 		mov	r3, r0
 4876 45f8 FEFFFFEB 		mov	r4, r1
 4877 45fc 0030A0E1 		mov	r0, r5
 4878 4600 0140A0E1 		mov	r1, r6
 4879 4604 0300A0E1 		mov	r2, r3
 4880 4608 0410A0E1 		mov	r3, r4
 4881 460c FEFFFFEB 		bl	__muldf3
 4882 4610 0030A0E1 		mov	r3, r0
 4883 4614 0140A0E1 		mov	r4, r1
 4884 4618 0500A0E1 		mov	r5, r3
 4885 461c 0610A0E1 		mov	r6, r4
 4886 4620 0320A0E1 		ldr	r0, [fp, #-48]	@ float
 4887 4624 0430A0E1 		bl	__extendsfdf2
 4888 4628 FEFFFFEB 		mov	r3, r0
 4889 462c 0030A0E1 		mov	r4, r1
 4890 4630 0140A0E1 		mov	r0, r3
 4891 4634 0350A0E1 		mov	r1, r4
 4892 4638 0460A0E1 		bl	sin
 4893 463c 34001BE5 		mov	r3, r0
 4894 4640 FEFFFFEB 		mov	r4, r1
 4895 4644 0030A0E1 		mov	r0, r5
 4896 4648 0140A0E1 		mov	r1, r6
 4897 464c 0300A0E1 		mov	r2, r3
 4898 4650 0410A0E1 		mov	r3, r4
 4899 4654 FEFFFFEB 		bl	__muldf3
 4900 4658 0030A0E1 		mov	r3, r0
 4901 465c 0140A0E1 		mov	r4, r1
 4902 4660 0500A0E1 		mov	r5, r3
 4903 4664 0610A0E1 		mov	r6, r4
 4904 4668 0320A0E1 		ldr	r0, [fp, #-48]	@ float
 4905 466c 0430A0E1 		bl	__extendsfdf2
 4906 4670 FEFFFFEB 		mov	r3, r0
 4907 4674 0030A0E1 		mov	r4, r1
 4908 4678 0140A0E1 		mov	r0, r3
 4909 467c 0350A0E1 		mov	r1, r4
 4910 4680 0460A0E1 		bl	sin
 4911 4684 30001BE5 		mov	r3, r0
 4912 4688 FEFFFFEB 		mov	r4, r1
 4913 468c 0030A0E1 		mov	r0, r5
 4914 4690 0140A0E1 		mov	r1, r6
 4915 4694 0300A0E1 		mov	r2, r3
 4916 4698 0410A0E1 		mov	r3, r4
 4917 469c FEFFFFEB 		bl	__muldf3
 4918 46a0 0030A0E1 		mov	r3, r0
 4919 46a4 0140A0E1 		mov	r4, r1
 4920 46a8 0500A0E1 		mov	r5, r3
 4921 46ac 0610A0E1 		mov	r6, r4
 4922 46b0 0320A0E1 		ldr	r0, [fp, #-44]	@ float
 4923 46b4 0430A0E1 		bl	__extendsfdf2
 4924 46b8 FEFFFFEB 		mov	r3, r0
 4925 46bc 0030A0E1 		mov	r4, r1
 4926 46c0 0140A0E1 		mov	r0, r3
 4927 46c4 0350A0E1 		mov	r1, r4
 4928 46c8 0460A0E1 		bl	sin
 4929 46cc 30001BE5 		mov	r3, r0
 4930 46d0 FEFFFFEB 		mov	r4, r1
 4931 46d4 0030A0E1 		mov	r0, r5
 4932 46d8 0140A0E1 		mov	r1, r6
 4933 46dc 0300A0E1 		mov	r2, r3
 4934 46e0 0410A0E1 		mov	r3, r4
 4935 46e4 FEFFFFEB 		bl	__muldf3
 4936 46e8 0030A0E1 		mov	r3, r0
 4937 46ec 0140A0E1 		mov	r4, r1
 4938 46f0 0500A0E1 		mov	r5, r3
 4939 46f4 0610A0E1 		mov	r6, r4
 4940 46f8 0320A0E1 		ldr	r0, [fp, #-44]	@ float
 4941 46fc 0430A0E1 		bl	__extendsfdf2
 4942 4700 FEFFFFEB 		mov	r3, r0
 4943 4704 0030A0E1 		mov	r4, r1
 4944 4708 0140A0E1 		mov	r0, r3
 4945 470c 0900A0E1 		mov	r1, r4
 4946 4710 0A10A0E1 		bl	sin
 4947 4714 0320A0E1 		mov	r3, r0
 4948 4718 0430A0E1 		mov	r4, r1
 4949 471c FEFFFFEB 		mov	r0, r5
 4950 4720 0030A0E1 		mov	r1, r6
 4951 4724 0140A0E1 		mov	r2, r3
 4952 4728 0390A0E1 		mov	r3, r4
 4953 472c 04A0A0E1 		bl	__muldf3
 4954 4730 34001BE5 		mov	r3, r0
 4955 4734 FEFFFFEB 		mov	r4, r1
 4956 4738 0030A0E1 		mov	r0, r9
 4957 473c 0140A0E1 		mov	r1, sl
 4958 4740 0300A0E1 		mov	r2, r3
 4959 4744 0410A0E1 		mov	r3, r4
 4960 4748 FEFFFFEB 		bl	__adddf3
 4961 474c 0050A0E1 		mov	r3, r0
 4962 4750 0160A0E1 		mov	r4, r1
 4963 4754 34001BE5 		mov	r0, r7
 4964 4758 FEFFFFEB 		mov	r1, r8
 4965 475c 0030A0E1 		mov	r2, r3
 4966 4760 0140A0E1 		mov	r3, r4
 4967 4764 0300A0E1 		bl	__divdf3
 4968 4768 0410A0E1 		mov	r3, r0
 4969 476c FEFFFFEB 		mov	r4, r1
 4970 4770 0030A0E1 		mov	r0, r3
 4971 4774 0140A0E1 		mov	r1, r4
 4972 4778 0500A0E1 		bl	__truncdfsf2
 4973 477c 0610A0E1 		mov	r3, r0
 4974 4780 0320A0E1 		str	r3, [fp, #-168]	@ float
 4975 4784 0430A0E1 		.loc 1 307 0
 4976 4788 FEFFFFEB 		ldr	r0, [fp, #-52]	@ float
 4977 478c 0030A0E1 		bl	__extendsfdf2
 4978 4790 0140A0E1 		mov	r3, r0
 4979 4794 0350A0E1 		mov	r4, r1
 4980 4798 0460A0E1 		mov	r0, r3
 4981 479c 30001BE5 		mov	r1, r4
 4982 47a0 FEFFFFEB 		bl	cos
 4983 47a4 0030A0E1 		mov	r5, r0
 4984 47a8 0140A0E1 		mov	r6, r1
 4985 47ac 0300A0E1 		ldr	r0, [fp, #-48]	@ float
 4986 47b0 0410A0E1 		bl	__extendsfdf2
 4987 47b4 FEFFFFEB 		mov	r3, r0
 4988 47b8 0030A0E1 		mov	r4, r1
 4989 47bc 0140A0E1 		mov	r0, r3
 4990 47c0 0500A0E1 		mov	r1, r4
 4991 47c4 0610A0E1 		bl	cos
 4992 47c8 0320A0E1 		mov	r3, r0
 4993 47cc 0430A0E1 		mov	r4, r1
 4994 47d0 FEFFFFEB 		mov	r0, r5
 4995 47d4 0030A0E1 		mov	r1, r6
 4996 47d8 0140A0E1 		mov	r2, r3
 4997 47dc 0350A0E1 		mov	r3, r4
 4998 47e0 0460A0E1 		bl	__muldf3
 4999 47e4 30001BE5 		mov	r3, r0
 5000 47e8 FEFFFFEB 		mov	r4, r1
 5001 47ec 0030A0E1 		mov	r5, r3
 5002 47f0 0140A0E1 		mov	r6, r4
 5003 47f4 0300A0E1 		ldr	r0, [fp, #-48]	@ float
 5004 47f8 0410A0E1 		bl	__extendsfdf2
 5005 47fc FEFFFFEB 		mov	r3, r0
 5006 4800 0030A0E1 		mov	r4, r1
 5007 4804 0140A0E1 		mov	r0, r3
 5008 4808 0500A0E1 		mov	r1, r4
 5009 480c 0610A0E1 		bl	cos
 5010 4810 0320A0E1 		mov	r3, r0
 5011 4814 0430A0E1 		mov	r4, r1
 5012 4818 FEFFFFEB 		mov	r0, r5
 5013 481c 0030A0E1 		mov	r1, r6
 5014 4820 0140A0E1 		mov	r2, r3
 5015 4824 0350A0E1 		mov	r3, r4
 5016 4828 0460A0E1 		bl	__muldf3
 5017 482c 2C001BE5 		mov	r3, r0
 5018 4830 FEFFFFEB 		mov	r4, r1
 5019 4834 0030A0E1 		mov	r5, r3
 5020 4838 0140A0E1 		mov	r6, r4
 5021 483c 0300A0E1 		ldr	r0, [fp, #-44]	@ float
 5022 4840 0410A0E1 		bl	__extendsfdf2
 5023 4844 FEFFFFEB 		mov	r3, r0
 5024 4848 0030A0E1 		mov	r4, r1
 5025 484c 0140A0E1 		mov	r0, r3
 5026 4850 0500A0E1 		mov	r1, r4
 5027 4854 0610A0E1 		bl	sin
 5028 4858 0320A0E1 		mov	r3, r0
 5029 485c 0430A0E1 		mov	r4, r1
 5030 4860 FEFFFFEB 		mov	r0, r5
 5031 4864 0030A0E1 		mov	r1, r6
 5032 4868 0140A0E1 		mov	r2, r3
 5033 486c 0350A0E1 		mov	r3, r4
 5034 4870 0460A0E1 		bl	__muldf3
 5035 4874 2C001BE5 		mov	r3, r0
 5036 4878 FEFFFFEB 		mov	r4, r1
 5037 487c 0030A0E1 		mov	r7, r3
 5038 4880 0140A0E1 		mov	r8, r4
 5039 4884 0300A0E1 		ldr	r0, [fp, #-44]	@ float
 5040 4888 0410A0E1 		bl	__extendsfdf2
 5041 488c FEFFFFEB 		mov	r3, r0
 5042 4890 0030A0E1 		mov	r4, r1
 5043 4894 0140A0E1 		mov	r0, r3
 5044 4898 0500A0E1 		mov	r1, r4
 5045 489c 0610A0E1 		bl	cos
 5046 48a0 0320A0E1 		mov	r5, r0
 5047 48a4 0430A0E1 		mov	r6, r1
 5048 48a8 FEFFFFEB 		ldr	r0, [fp, #-52]	@ float
 5049 48ac 0030A0E1 		bl	__extendsfdf2
 5050 48b0 0140A0E1 		mov	r3, r0
 5051 48b4 0900A0E1 		mov	r4, r1
 5052 48b8 0A10A0E1 		mov	r0, r3
 5053 48bc 0320A0E1 		mov	r1, r4
 5054 48c0 0430A0E1 		bl	sin
 5055 48c4 FEFFFFEB 		mov	r3, r0
 5056 48c8 0030A0E1 		mov	r4, r1
 5057 48cc 0140A0E1 		mov	r0, r5
 5058 48d0 0700A0E1 		mov	r1, r6
 5059 48d4 0810A0E1 		mov	r2, r3
 5060 48d8 0320A0E1 		mov	r3, r4
 5061 48dc 0430A0E1 		bl	__muldf3
 5062 48e0 FEFFFFEB 		mov	r3, r0
 5063 48e4 0030A0E1 		mov	r4, r1
 5064 48e8 0140A0E1 		mov	r5, r3
 5065 48ec 0300A0E1 		mov	r6, r4
 5066 48f0 0410A0E1 		ldr	r0, [fp, #-48]	@ float
 5067 48f4 FEFFFFEB 		bl	__extendsfdf2
 5068 48f8 0030A0E1 		mov	r3, r0
 5069 48fc A8300BE5 		mov	r4, r1
 307:lab.c         **** 	Rinv[7] = -(cos(th1)*cos(th2)*cos(th2)*sin(th3) - cos(th3)*sin(th1)*sin(th2) + cos(th1)*sin(th2)*s
 5070              		r3, r4
 5071 4900 34001BE5 		bl	__muldf3
 5072 4904 FEFFFFEB 		mov	r3, r0
 5073 4908 0030A0E1 		mov	r4, r1
 5074 490c 0140A0E1 		mov	r0, r7
 5075 4910 0300A0E1 		mov	r1, r8
 5076 4914 0410A0E1 		mov	r2, r3
 5077 4918 FEFFFFEB 		mov	r3, r4
 5078 491c 0050A0E1 		bl	__subdf3
 5079 4920 0160A0E1 		mov	r3, r0
 5080 4924 30001BE5 		mov	r4, r1
 5081 4928 FEFFFFEB 		mov	r7, r3
 5082 492c 0030A0E1 		mov	r8, r4
 5083 4930 0140A0E1 		ldr	r0, [fp, #-52]	@ float
 5084 4934 0300A0E1 		bl	__extendsfdf2
 5085 4938 0410A0E1 		mov	r3, r0
 5086 493c FEFFFFEB 		mov	r4, r1
 5087 4940 0030A0E1 		mov	r0, r3
 5088 4944 0140A0E1 		mov	r1, r4
 5089 4948 0500A0E1 		bl	cos
 5090 494c 0610A0E1 		mov	r5, r0
 5091 4950 0320A0E1 		mov	r6, r1
 5092 4954 0430A0E1 		ldr	r0, [fp, #-48]	@ float
 5093 4958 FEFFFFEB 		bl	__extendsfdf2
 5094 495c 0030A0E1 		mov	r3, r0
 5095 4960 0140A0E1 		mov	r4, r1
 5096 4964 0350A0E1 		mov	r0, r3
 5097 4968 0460A0E1 		mov	r1, r4
 5098 496c 30001BE5 		bl	sin
 5099 4970 FEFFFFEB 		mov	r3, r0
 5100 4974 0030A0E1 		mov	r4, r1
 5101 4978 0140A0E1 		mov	r0, r5
 5102 497c 0300A0E1 		mov	r1, r6
 5103 4980 0410A0E1 		mov	r2, r3
 5104 4984 FEFFFFEB 		mov	r3, r4
 5105 4988 0030A0E1 		bl	__muldf3
 5106 498c 0140A0E1 		mov	r3, r0
 5107 4990 0500A0E1 		mov	r4, r1
 5108 4994 0610A0E1 		mov	r5, r3
 5109 4998 0320A0E1 		mov	r6, r4
 5110 499c 0430A0E1 		ldr	r0, [fp, #-48]	@ float
 5111 49a0 FEFFFFEB 		bl	__extendsfdf2
 5112 49a4 0030A0E1 		mov	r3, r0
 5113 49a8 0140A0E1 		mov	r4, r1
 5114 49ac 0350A0E1 		mov	r0, r3
 5115 49b0 0460A0E1 		mov	r1, r4
 5116 49b4 2C001BE5 		bl	sin
 5117 49b8 FEFFFFEB 		mov	r3, r0
 5118 49bc 0030A0E1 		mov	r4, r1
 5119 49c0 0140A0E1 		mov	r0, r5
 5120 49c4 0300A0E1 		mov	r1, r6
 5121 49c8 0410A0E1 		mov	r2, r3
 5122 49cc FEFFFFEB 		mov	r3, r4
 5123 49d0 0030A0E1 		bl	__muldf3
 5124 49d4 0140A0E1 		mov	r3, r0
 5125 49d8 0500A0E1 		mov	r4, r1
 5126 49dc 0610A0E1 		mov	r5, r3
 5127 49e0 0320A0E1 		mov	r6, r4
 5128 49e4 0430A0E1 		ldr	r0, [fp, #-44]	@ float
 5129 49e8 FEFFFFEB 		bl	__extendsfdf2
 5130 49ec 0030A0E1 		mov	r3, r0
 5131 49f0 0140A0E1 		mov	r4, r1
 5132 49f4 0370A0E1 		mov	r0, r3
 5133 49f8 0480A0E1 		mov	r1, r4
 5134 49fc 2C001BE5 		bl	sin
 5135 4a00 FEFFFFEB 		mov	r3, r0
 5136 4a04 0030A0E1 		mov	r4, r1
 5137 4a08 0140A0E1 		mov	r0, r5
 5138 4a0c 0300A0E1 		mov	r1, r6
 5139 4a10 0410A0E1 		mov	r2, r3
 5140 4a14 FEFFFFEB 		mov	r3, r4
 5141 4a18 0050A0E1 		bl	__muldf3
 5142 4a1c 0160A0E1 		mov	r3, r0
 5143 4a20 34001BE5 		mov	r4, r1
 5144 4a24 FEFFFFEB 		mov	r0, r7
 5145 4a28 0030A0E1 		mov	r1, r8
 5146 4a2c 0140A0E1 		mov	r2, r3
 5147 4a30 0300A0E1 		mov	r3, r4
 5148 4a34 0410A0E1 		bl	__adddf3
 5149 4a38 FEFFFFEB 		mov	r3, r0
 5150 4a3c 0030A0E1 		mov	r4, r1
 5151 4a40 0140A0E1 		eor	r7, r3, #-2147483648
 5152 4a44 0500A0E1 		mov	r8, r4
 5153 4a48 0610A0E1 		ldr	r0, [fp, #-52]	@ float
 5154 4a4c 0320A0E1 		bl	__extendsfdf2
 5155 4a50 0430A0E1 		mov	r3, r0
 5156 4a54 FEFFFFEB 		mov	r4, r1
 5157 4a58 0030A0E1 		mov	r0, r3
 5158 4a5c 0140A0E1 		mov	r1, r4
 5159 4a60 0350A0E1 		bl	cos
 5160 4a64 0460A0E1 		mov	r5, r0
 5161 4a68 30001BE5 		mov	r6, r1
 5162 4a6c FEFFFFEB 		ldr	r0, [fp, #-52]	@ float
 5163 4a70 0030A0E1 		bl	__extendsfdf2
 5164 4a74 0140A0E1 		mov	r3, r0
 5165 4a78 0300A0E1 		mov	r4, r1
 5166 4a7c 0410A0E1 		mov	r0, r3
 5167 4a80 FEFFFFEB 		mov	r1, r4
 5168 4a84 0030A0E1 		bl	cos
 5169 4a88 0140A0E1 		mov	r3, r0
 5170 4a8c 0500A0E1 		mov	r4, r1
 5171 4a90 0610A0E1 		mov	r0, r5
 5172 4a94 0320A0E1 		mov	r1, r6
 5173 4a98 0430A0E1 		mov	r2, r3
 5174 4a9c FEFFFFEB 		mov	r3, r4
 5175 4aa0 0030A0E1 		bl	__muldf3
 5176 4aa4 0140A0E1 		mov	r3, r0
 5177 4aa8 0700A0E1 		mov	r4, r1
 5178 4aac 0810A0E1 		mov	r5, r3
 5179 4ab0 0320A0E1 		mov	r6, r4
 5180 4ab4 0430A0E1 		ldr	r0, [fp, #-48]	@ float
 5181 4ab8 FEFFFFEB 		bl	__extendsfdf2
 5182 4abc 0030A0E1 		mov	r3, r0
 5183 4ac0 0140A0E1 		mov	r4, r1
 5184 4ac4 0370A0E1 		mov	r0, r3
 5185 4ac8 0480A0E1 		mov	r1, r4
 5186 4acc 34001BE5 		bl	cos
 5187 4ad0 FEFFFFEB 		mov	r3, r0
 5188 4ad4 0030A0E1 		mov	r4, r1
 5189 4ad8 0140A0E1 		mov	r0, r5
 5190 4adc 0300A0E1 		mov	r1, r6
 5191 4ae0 0410A0E1 		mov	r2, r3
 5192 4ae4 FEFFFFEB 		mov	r3, r4
 5193 4ae8 0050A0E1 		bl	__muldf3
 5194 4aec 0160A0E1 		mov	r3, r0
 5195 4af0 30001BE5 		mov	r4, r1
 5196 4af4 FEFFFFEB 		mov	r5, r3
 5197 4af8 0030A0E1 		mov	r6, r4
 5198 4afc 0140A0E1 		ldr	r0, [fp, #-48]	@ float
 5199 4b00 0300A0E1 		bl	__extendsfdf2
 5200 4b04 0410A0E1 		mov	r3, r0
 5201 4b08 FEFFFFEB 		mov	r4, r1
 5202 4b0c 0030A0E1 		mov	r0, r3
 5203 4b10 0140A0E1 		mov	r1, r4
 5204 4b14 0500A0E1 		bl	cos
 5205 4b18 0610A0E1 		mov	r3, r0
 5206 4b1c 0320A0E1 		mov	r4, r1
 5207 4b20 0430A0E1 		mov	r0, r5
 5208 4b24 FEFFFFEB 		mov	r1, r6
 5209 4b28 0030A0E1 		mov	r2, r3
 5210 4b2c 0140A0E1 		mov	r3, r4
 5211 4b30 0350A0E1 		bl	__muldf3
 5212 4b34 0460A0E1 		mov	r3, r0
 5213 4b38 30001BE5 		mov	r4, r1
 5214 4b3c FEFFFFEB 		mov	r5, r3
 5215 4b40 0030A0E1 		mov	r6, r4
 5216 4b44 0140A0E1 		ldr	r0, [fp, #-44]	@ float
 5217 4b48 0300A0E1 		bl	__extendsfdf2
 5218 4b4c 0410A0E1 		mov	r3, r0
 5219 4b50 FEFFFFEB 		mov	r4, r1
 5220 4b54 0030A0E1 		mov	r0, r3
 5221 4b58 0140A0E1 		mov	r1, r4
 5222 4b5c 0500A0E1 		bl	cos
 5223 4b60 0610A0E1 		mov	r3, r0
 5224 4b64 0320A0E1 		mov	r4, r1
 5225 4b68 0430A0E1 		mov	r0, r5
 5226 4b6c FEFFFFEB 		mov	r1, r6
 5227 4b70 0030A0E1 		mov	r2, r3
 5228 4b74 0140A0E1 		mov	r3, r4
 5229 4b78 0350A0E1 		bl	__muldf3
 5230 4b7c 0460A0E1 		mov	r3, r0
 5231 4b80 2C001BE5 		mov	r4, r1
 5232 4b84 FEFFFFEB 		mov	r5, r3
 5233 4b88 0030A0E1 		mov	r6, r4
 5234 4b8c 0140A0E1 		ldr	r0, [fp, #-44]	@ float
 5235 4b90 0300A0E1 		bl	__extendsfdf2
 5236 4b94 0410A0E1 		mov	r3, r0
 5237 4b98 FEFFFFEB 		mov	r4, r1
 5238 4b9c 0030A0E1 		mov	r0, r3
 5239 4ba0 0140A0E1 		mov	r1, r4
 5240 4ba4 0500A0E1 		bl	cos
 5241 4ba8 0610A0E1 		mov	r3, r0
 5242 4bac 0320A0E1 		mov	r4, r1
 5243 4bb0 0430A0E1 		mov	r0, r5
 5244 4bb4 FEFFFFEB 		mov	r1, r6
 5245 4bb8 0030A0E1 		mov	r2, r3
 5246 4bbc 0140A0E1 		mov	r3, r4
 5247 4bc0 0700A0E1 		bl	__muldf3
 5248 4bc4 0810A0E1 		mov	r3, r0
 5249 4bc8 0320A0E1 		mov	r4, r1
 5250 4bcc 0430A0E1 		mov	r9, r3
 5251 4bd0 FEFFFFEB 		mov	sl, r4
 5252 4bd4 0030A0E1 		ldr	r0, [fp, #-52]	@ float
 5253 4bd8 0140A0E1 		bl	__extendsfdf2
 5254 4bdc 027123E2 		mov	r3, r0
 5255 4be0 0480A0E1 		mov	r4, r1
 5256 4be4 34001BE5 		mov	r0, r3
 5257 4be8 FEFFFFEB 		mov	r1, r4
 5258 4bec 0030A0E1 		bl	cos
 5259 4bf0 0140A0E1 		mov	r5, r0
 5260 4bf4 0300A0E1 		mov	r6, r1
 5261 4bf8 0410A0E1 		ldr	r0, [fp, #-52]	@ float
 5262 4bfc FEFFFFEB 		bl	__extendsfdf2
 5263 4c00 0050A0E1 		mov	r3, r0
 5264 4c04 0160A0E1 		mov	r4, r1
 5265 4c08 34001BE5 		mov	r0, r3
 5266 4c0c FEFFFFEB 		mov	r1, r4
 5267 4c10 0030A0E1 		bl	cos
 5268 4c14 0140A0E1 		mov	r3, r0
 5269 4c18 0300A0E1 		mov	r4, r1
 5270 4c1c 0410A0E1 		mov	r0, r5
 5271 4c20 FEFFFFEB 		mov	r1, r6
 5272 4c24 0030A0E1 		mov	r2, r3
 5273 4c28 0140A0E1 		mov	r3, r4
 5274 4c2c 0500A0E1 		bl	__muldf3
 5275 4c30 0610A0E1 		mov	r3, r0
 5276 4c34 0320A0E1 		mov	r4, r1
 5277 4c38 0430A0E1 		mov	r5, r3
 5278 4c3c FEFFFFEB 		mov	r6, r4
 5279 4c40 0030A0E1 		ldr	r0, [fp, #-48]	@ float
 5280 4c44 0140A0E1 		bl	__extendsfdf2
 5281 4c48 0350A0E1 		mov	r3, r0
 5282 4c4c 0460A0E1 		mov	r4, r1
 5283 4c50 30001BE5 		mov	r0, r3
 5284 4c54 FEFFFFEB 		mov	r1, r4
 5285 4c58 0030A0E1 		bl	cos
 5286 4c5c 0140A0E1 		mov	r3, r0
 5287 4c60 0300A0E1 		mov	r4, r1
 5288 4c64 0410A0E1 		mov	r0, r5
 5289 4c68 FEFFFFEB 		mov	r1, r6
 5290 4c6c 0030A0E1 		mov	r2, r3
 5291 4c70 0140A0E1 		mov	r3, r4
 5292 4c74 0500A0E1 		bl	__muldf3
 5293 4c78 0610A0E1 		mov	r3, r0
 5294 4c7c 0320A0E1 		mov	r4, r1
 5295 4c80 0430A0E1 		mov	r5, r3
 5296 4c84 FEFFFFEB 		mov	r6, r4
 5297 4c88 0030A0E1 		ldr	r0, [fp, #-48]	@ float
 5298 4c8c 0140A0E1 		bl	__extendsfdf2
 5299 4c90 0350A0E1 		mov	r3, r0
 5300 4c94 0460A0E1 		mov	r4, r1
 5301 4c98 30001BE5 		mov	r0, r3
 5302 4c9c FEFFFFEB 		mov	r1, r4
 5303 4ca0 0030A0E1 		bl	cos
 5304 4ca4 0140A0E1 		mov	r3, r0
 5305 4ca8 0300A0E1 		mov	r4, r1
 5306 4cac 0410A0E1 		mov	r0, r5
 5307 4cb0 FEFFFFEB 		mov	r1, r6
 5308 4cb4 0030A0E1 		mov	r2, r3
 5309 4cb8 0140A0E1 		mov	r3, r4
 5310 4cbc 0500A0E1 		bl	__muldf3
 5311 4cc0 0610A0E1 		mov	r3, r0
 5312 4cc4 0320A0E1 		mov	r4, r1
 5313 4cc8 0430A0E1 		mov	r5, r3
 5314 4ccc FEFFFFEB 		mov	r6, r4
 5315 4cd0 0030A0E1 		ldr	r0, [fp, #-44]	@ float
 5316 4cd4 0140A0E1 		bl	__extendsfdf2
 5317 4cd8 0350A0E1 		mov	r3, r0
 5318 4cdc 0460A0E1 		mov	r4, r1
 5319 4ce0 2C001BE5 		mov	r0, r3
 5320 4ce4 FEFFFFEB 		mov	r1, r4
 5321 4ce8 0030A0E1 		bl	sin
 5322 4cec 0140A0E1 		mov	r3, r0
 5323 4cf0 0300A0E1 		mov	r4, r1
 5324 4cf4 0410A0E1 		mov	r0, r5
 5325 4cf8 FEFFFFEB 		mov	r1, r6
 5326 4cfc 0030A0E1 		mov	r2, r3
 5327 4d00 0140A0E1 		mov	r3, r4
 5328 4d04 0500A0E1 		bl	__muldf3
 5329 4d08 0610A0E1 		mov	r3, r0
 5330 4d0c 0320A0E1 		mov	r4, r1
 5331 4d10 0430A0E1 		mov	r5, r3
 5332 4d14 FEFFFFEB 		mov	r6, r4
 5333 4d18 0030A0E1 		ldr	r0, [fp, #-44]	@ float
 5334 4d1c 0140A0E1 		bl	__extendsfdf2
 5335 4d20 0350A0E1 		mov	r3, r0
 5336 4d24 0460A0E1 		mov	r4, r1
 5337 4d28 2C001BE5 		mov	r0, r3
 5338 4d2c FEFFFFEB 		mov	r1, r4
 5339 4d30 0030A0E1 		bl	sin
 5340 4d34 0140A0E1 		mov	r3, r0
 5341 4d38 0300A0E1 		mov	r4, r1
 5342 4d3c 0410A0E1 		mov	r0, r5
 5343 4d40 FEFFFFEB 		mov	r1, r6
 5344 4d44 0030A0E1 		mov	r2, r3
 5345 4d48 0140A0E1 		mov	r3, r4
 5346 4d4c 0500A0E1 		bl	__muldf3
 5347 4d50 0610A0E1 		mov	r3, r0
 5348 4d54 0320A0E1 		mov	r4, r1
 5349 4d58 0430A0E1 		mov	r0, r9
 5350 4d5c FEFFFFEB 		mov	r1, sl
 5351 4d60 0030A0E1 		mov	r2, r3
 5352 4d64 0140A0E1 		mov	r3, r4
 5353 4d68 0390A0E1 		bl	__adddf3
 5354 4d6c 04A0A0E1 		mov	r3, r0
 5355 4d70 34001BE5 		mov	r4, r1
 5356 4d74 FEFFFFEB 		mov	r9, r3
 5357 4d78 0030A0E1 		mov	sl, r4
 5358 4d7c 0140A0E1 		ldr	r0, [fp, #-52]	@ float
 5359 4d80 0300A0E1 		bl	__extendsfdf2
 5360 4d84 0410A0E1 		mov	r3, r0
 5361 4d88 FEFFFFEB 		mov	r4, r1
 5362 4d8c 0050A0E1 		mov	r0, r3
 5363 4d90 0160A0E1 		mov	r1, r4
 5364 4d94 34001BE5 		bl	cos
 5365 4d98 FEFFFFEB 		mov	r5, r0
 5366 4d9c 0030A0E1 		mov	r6, r1
 5367 4da0 0140A0E1 		ldr	r0, [fp, #-52]	@ float
 5368 4da4 0300A0E1 		bl	__extendsfdf2
 5369 4da8 0410A0E1 		mov	r3, r0
 5370 4dac FEFFFFEB 		mov	r4, r1
 5371 4db0 0030A0E1 		mov	r0, r3
 5372 4db4 0140A0E1 		mov	r1, r4
 5373 4db8 0500A0E1 		bl	cos
 5374 4dbc 0610A0E1 		mov	r3, r0
 5375 4dc0 0320A0E1 		mov	r4, r1
 5376 4dc4 0430A0E1 		mov	r0, r5
 5377 4dc8 FEFFFFEB 		mov	r1, r6
 5378 4dcc 0030A0E1 		mov	r2, r3
 5379 4dd0 0140A0E1 		mov	r3, r4
 5380 4dd4 0350A0E1 		bl	__muldf3
 5381 4dd8 0460A0E1 		mov	r3, r0
 5382 4ddc 30001BE5 		mov	r4, r1
 5383 4de0 FEFFFFEB 		mov	r5, r3
 5384 4de4 0030A0E1 		mov	r6, r4
 5385 4de8 0140A0E1 		ldr	r0, [fp, #-44]	@ float
 5386 4dec 0300A0E1 		bl	__extendsfdf2
 5387 4df0 0410A0E1 		mov	r3, r0
 5388 4df4 FEFFFFEB 		mov	r4, r1
 5389 4df8 0030A0E1 		mov	r0, r3
 5390 4dfc 0140A0E1 		mov	r1, r4
 5391 4e00 0500A0E1 		bl	cos
 5392 4e04 0610A0E1 		mov	r3, r0
 5393 4e08 0320A0E1 		mov	r4, r1
 5394 4e0c 0430A0E1 		mov	r0, r5
 5395 4e10 FEFFFFEB 		mov	r1, r6
 5396 4e14 0030A0E1 		mov	r2, r3
 5397 4e18 0140A0E1 		mov	r3, r4
 5398 4e1c 0350A0E1 		bl	__muldf3
 5399 4e20 0460A0E1 		mov	r3, r0
 5400 4e24 30001BE5 		mov	r4, r1
 5401 4e28 FEFFFFEB 		mov	r5, r3
 5402 4e2c 0030A0E1 		mov	r6, r4
 5403 4e30 0140A0E1 		ldr	r0, [fp, #-44]	@ float
 5404 4e34 0300A0E1 		bl	__extendsfdf2
 5405 4e38 0410A0E1 		mov	r3, r0
 5406 4e3c FEFFFFEB 		mov	r4, r1
 5407 4e40 0030A0E1 		mov	r0, r3
 5408 4e44 0140A0E1 		mov	r1, r4
 5409 4e48 0500A0E1 		bl	cos
 5410 4e4c 0610A0E1 		mov	r3, r0
 5411 4e50 0320A0E1 		mov	r4, r1
 5412 4e54 0430A0E1 		mov	r0, r5
 5413 4e58 FEFFFFEB 		mov	r1, r6
 5414 4e5c 0030A0E1 		mov	r2, r3
 5415 4e60 0140A0E1 		mov	r3, r4
 5416 4e64 0350A0E1 		bl	__muldf3
 5417 4e68 0460A0E1 		mov	r3, r0
 5418 4e6c 2C001BE5 		mov	r4, r1
 5419 4e70 FEFFFFEB 		mov	r5, r3
 5420 4e74 0030A0E1 		mov	r6, r4
 5421 4e78 0140A0E1 		ldr	r0, [fp, #-48]	@ float
 5422 4e7c 0300A0E1 		bl	__extendsfdf2
 5423 4e80 0410A0E1 		mov	r3, r0
 5424 4e84 FEFFFFEB 		mov	r4, r1
 5425 4e88 0030A0E1 		mov	r0, r3
 5426 4e8c 0140A0E1 		mov	r1, r4
 5427 4e90 0500A0E1 		bl	sin
 5428 4e94 0610A0E1 		mov	r3, r0
 5429 4e98 0320A0E1 		mov	r4, r1
 5430 4e9c 0430A0E1 		mov	r0, r5
 5431 4ea0 FEFFFFEB 		mov	r1, r6
 5432 4ea4 0030A0E1 		mov	r2, r3
 5433 4ea8 0140A0E1 		mov	r3, r4
 5434 4eac 0350A0E1 		bl	__muldf3
 5435 4eb0 0460A0E1 		mov	r3, r0
 5436 4eb4 2C001BE5 		mov	r4, r1
 5437 4eb8 FEFFFFEB 		mov	r5, r3
 5438 4ebc 0030A0E1 		mov	r6, r4
 5439 4ec0 0140A0E1 		ldr	r0, [fp, #-48]	@ float
 5440 4ec4 0300A0E1 		bl	__extendsfdf2
 5441 4ec8 0410A0E1 		mov	r3, r0
 5442 4ecc FEFFFFEB 		mov	r4, r1
 5443 4ed0 0030A0E1 		mov	r0, r3
 5444 4ed4 0140A0E1 		mov	r1, r4
 5445 4ed8 0500A0E1 		bl	sin
 5446 4edc 0610A0E1 		mov	r3, r0
 5447 4ee0 0320A0E1 		mov	r4, r1
 5448 4ee4 0430A0E1 		mov	r0, r5
 5449 4ee8 FEFFFFEB 		mov	r1, r6
 5450 4eec 0030A0E1 		mov	r2, r3
 5451 4ef0 0140A0E1 		mov	r3, r4
 5452 4ef4 0900A0E1 		bl	__muldf3
 5453 4ef8 0A10A0E1 		mov	r3, r0
 5454 4efc 0320A0E1 		mov	r4, r1
 5455 4f00 0430A0E1 		mov	r0, r9
 5456 4f04 FEFFFFEB 		mov	r1, sl
 5457 4f08 0030A0E1 		mov	r2, r3
 5458 4f0c 0140A0E1 		mov	r3, r4
 5459 4f10 0390A0E1 		bl	__adddf3
 5460 4f14 04A0A0E1 		mov	r3, r0
 5461 4f18 34001BE5 		mov	r4, r1
 5462 4f1c FEFFFFEB 		mov	r9, r3
 5463 4f20 0030A0E1 		mov	sl, r4
 5464 4f24 0140A0E1 		ldr	r0, [fp, #-52]	@ float
 5465 4f28 0300A0E1 		bl	__extendsfdf2
 5466 4f2c 0410A0E1 		mov	r3, r0
 5467 4f30 FEFFFFEB 		mov	r4, r1
 5468 4f34 0050A0E1 		mov	r0, r3
 5469 4f38 0160A0E1 		mov	r1, r4
 5470 4f3c 34001BE5 		bl	cos
 5471 4f40 FEFFFFEB 		mov	r5, r0
 5472 4f44 0030A0E1 		mov	r6, r1
 5473 4f48 0140A0E1 		ldr	r0, [fp, #-52]	@ float
 5474 4f4c 0300A0E1 		bl	__extendsfdf2
 5475 4f50 0410A0E1 		mov	r3, r0
 5476 4f54 FEFFFFEB 		mov	r4, r1
 5477 4f58 0030A0E1 		mov	r0, r3
 5478 4f5c 0140A0E1 		mov	r1, r4
 5479 4f60 0500A0E1 		bl	cos
 5480 4f64 0610A0E1 		mov	r3, r0
 5481 4f68 0320A0E1 		mov	r4, r1
 5482 4f6c 0430A0E1 		mov	r0, r5
 5483 4f70 FEFFFFEB 		mov	r1, r6
 5484 4f74 0030A0E1 		mov	r2, r3
 5485 4f78 0140A0E1 		mov	r3, r4
 5486 4f7c 0350A0E1 		bl	__muldf3
 5487 4f80 0460A0E1 		mov	r3, r0
 5488 4f84 2C001BE5 		mov	r4, r1
 5489 4f88 FEFFFFEB 		mov	r5, r3
 5490 4f8c 0030A0E1 		mov	r6, r4
 5491 4f90 0140A0E1 		ldr	r0, [fp, #-48]	@ float
 5492 4f94 0300A0E1 		bl	__extendsfdf2
 5493 4f98 0410A0E1 		mov	r3, r0
 5494 4f9c FEFFFFEB 		mov	r4, r1
 5495 4fa0 0030A0E1 		mov	r0, r3
 5496 4fa4 0140A0E1 		mov	r1, r4
 5497 4fa8 0500A0E1 		bl	sin
 5498 4fac 0610A0E1 		mov	r3, r0
 5499 4fb0 0320A0E1 		mov	r4, r1
 5500 4fb4 0430A0E1 		mov	r0, r5
 5501 4fb8 FEFFFFEB 		mov	r1, r6
 5502 4fbc 0030A0E1 		mov	r2, r3
 5503 4fc0 0140A0E1 		mov	r3, r4
 5504 4fc4 0350A0E1 		bl	__muldf3
 5505 4fc8 0460A0E1 		mov	r3, r0
 5506 4fcc 2C001BE5 		mov	r4, r1
 5507 4fd0 FEFFFFEB 		mov	r5, r3
 5508 4fd4 0030A0E1 		mov	r6, r4
 5509 4fd8 0140A0E1 		ldr	r0, [fp, #-48]	@ float
 5510 4fdc 0300A0E1 		bl	__extendsfdf2
 5511 4fe0 0410A0E1 		mov	r3, r0
 5512 4fe4 FEFFFFEB 		mov	r4, r1
 5513 4fe8 0030A0E1 		mov	r0, r3
 5514 4fec 0140A0E1 		mov	r1, r4
 5515 4ff0 0500A0E1 		bl	sin
 5516 4ff4 0610A0E1 		mov	r3, r0
 5517 4ff8 0320A0E1 		mov	r4, r1
 5518 4ffc 0430A0E1 		mov	r0, r5
 5519 5000 FEFFFFEB 		mov	r1, r6
 5520 5004 0030A0E1 		mov	r2, r3
 5521 5008 0140A0E1 		mov	r3, r4
 5522 500c 0350A0E1 		bl	__muldf3
 5523 5010 0460A0E1 		mov	r3, r0
 5524 5014 30001BE5 		mov	r4, r1
 5525 5018 FEFFFFEB 		mov	r5, r3
 5526 501c 0030A0E1 		mov	r6, r4
 5527 5020 0140A0E1 		ldr	r0, [fp, #-44]	@ float
 5528 5024 0300A0E1 		bl	__extendsfdf2
 5529 5028 0410A0E1 		mov	r3, r0
 5530 502c FEFFFFEB 		mov	r4, r1
 5531 5030 0030A0E1 		mov	r0, r3
 5532 5034 0140A0E1 		mov	r1, r4
 5533 5038 0500A0E1 		bl	sin
 5534 503c 0610A0E1 		mov	r3, r0
 5535 5040 0320A0E1 		mov	r4, r1
 5536 5044 0430A0E1 		mov	r0, r5
 5537 5048 FEFFFFEB 		mov	r1, r6
 5538 504c 0030A0E1 		mov	r2, r3
 5539 5050 0140A0E1 		mov	r3, r4
 5540 5054 0350A0E1 		bl	__muldf3
 5541 5058 0460A0E1 		mov	r3, r0
 5542 505c 30001BE5 		mov	r4, r1
 5543 5060 FEFFFFEB 		mov	r5, r3
 5544 5064 0030A0E1 		mov	r6, r4
 5545 5068 0140A0E1 		ldr	r0, [fp, #-44]	@ float
 5546 506c 0300A0E1 		bl	__extendsfdf2
 5547 5070 0410A0E1 		mov	r3, r0
 5548 5074 FEFFFFEB 		mov	r4, r1
 5549 5078 0030A0E1 		mov	r0, r3
 5550 507c 0140A0E1 		mov	r1, r4
 5551 5080 0500A0E1 		bl	sin
 5552 5084 0610A0E1 		mov	r3, r0
 5553 5088 0320A0E1 		mov	r4, r1
 5554 508c 0430A0E1 		mov	r0, r5
 5555 5090 FEFFFFEB 		mov	r1, r6
 5556 5094 0030A0E1 		mov	r2, r3
 5557 5098 0140A0E1 		mov	r3, r4
 5558 509c 0900A0E1 		bl	__muldf3
 5559 50a0 0A10A0E1 		mov	r3, r0
 5560 50a4 0320A0E1 		mov	r4, r1
 5561 50a8 0430A0E1 		mov	r0, r9
 5562 50ac FEFFFFEB 		mov	r1, sl
 5563 50b0 0030A0E1 		mov	r2, r3
 5564 50b4 0140A0E1 		mov	r3, r4
 5565 50b8 0390A0E1 		bl	__adddf3
 5566 50bc 04A0A0E1 		mov	r3, r0
 5567 50c0 34001BE5 		mov	r4, r1
 5568 50c4 FEFFFFEB 		mov	r9, r3
 5569 50c8 0030A0E1 		mov	sl, r4
 5570 50cc 0140A0E1 		ldr	r0, [fp, #-48]	@ float
 5571 50d0 0300A0E1 		bl	__extendsfdf2
 5572 50d4 0410A0E1 		mov	r3, r0
 5573 50d8 FEFFFFEB 		mov	r4, r1
 5574 50dc 0050A0E1 		mov	r0, r3
 5575 50e0 0160A0E1 		mov	r1, r4
 5576 50e4 34001BE5 		bl	cos
 5577 50e8 FEFFFFEB 		mov	r5, r0
 5578 50ec 0030A0E1 		mov	r6, r1
 5579 50f0 0140A0E1 		ldr	r0, [fp, #-48]	@ float
 5580 50f4 0300A0E1 		bl	__extendsfdf2
 5581 50f8 0410A0E1 		mov	r3, r0
 5582 50fc FEFFFFEB 		mov	r4, r1
 5583 5100 0030A0E1 		mov	r0, r3
 5584 5104 0140A0E1 		mov	r1, r4
 5585 5108 0500A0E1 		bl	cos
 5586 510c 0610A0E1 		mov	r3, r0
 5587 5110 0320A0E1 		mov	r4, r1
 5588 5114 0430A0E1 		mov	r0, r5
 5589 5118 FEFFFFEB 		mov	r1, r6
 5590 511c 0030A0E1 		mov	r2, r3
 5591 5120 0140A0E1 		mov	r3, r4
 5592 5124 0350A0E1 		bl	__muldf3
 5593 5128 0460A0E1 		mov	r3, r0
 5594 512c 30001BE5 		mov	r4, r1
 5595 5130 FEFFFFEB 		mov	r5, r3
 5596 5134 0030A0E1 		mov	r6, r4
 5597 5138 0140A0E1 		ldr	r0, [fp, #-44]	@ float
 5598 513c 0300A0E1 		bl	__extendsfdf2
 5599 5140 0410A0E1 		mov	r3, r0
 5600 5144 FEFFFFEB 		mov	r4, r1
 5601 5148 0030A0E1 		mov	r0, r3
 5602 514c 0140A0E1 		mov	r1, r4
 5603 5150 0500A0E1 		bl	cos
 5604 5154 0610A0E1 		mov	r3, r0
 5605 5158 0320A0E1 		mov	r4, r1
 5606 515c 0430A0E1 		mov	r0, r5
 5607 5160 FEFFFFEB 		mov	r1, r6
 5608 5164 0030A0E1 		mov	r2, r3
 5609 5168 0140A0E1 		mov	r3, r4
 5610 516c 0350A0E1 		bl	__muldf3
 5611 5170 0460A0E1 		mov	r3, r0
 5612 5174 30001BE5 		mov	r4, r1
 5613 5178 FEFFFFEB 		mov	r5, r3
 5614 517c 0030A0E1 		mov	r6, r4
 5615 5180 0140A0E1 		ldr	r0, [fp, #-44]	@ float
 5616 5184 0300A0E1 		bl	__extendsfdf2
 5617 5188 0410A0E1 		mov	r3, r0
 5618 518c FEFFFFEB 		mov	r4, r1
 5619 5190 0030A0E1 		mov	r0, r3
 5620 5194 0140A0E1 		mov	r1, r4
 5621 5198 0500A0E1 		bl	cos
 5622 519c 0610A0E1 		mov	r3, r0
 5623 51a0 0320A0E1 		mov	r4, r1
 5624 51a4 0430A0E1 		mov	r0, r5
 5625 51a8 FEFFFFEB 		mov	r1, r6
 5626 51ac 0030A0E1 		mov	r2, r3
 5627 51b0 0140A0E1 		mov	r3, r4
 5628 51b4 0350A0E1 		bl	__muldf3
 5629 51b8 0460A0E1 		mov	r3, r0
 5630 51bc 2C001BE5 		mov	r4, r1
 5631 51c0 FEFFFFEB 		mov	r5, r3
 5632 51c4 0030A0E1 		mov	r6, r4
 5633 51c8 0140A0E1 		ldr	r0, [fp, #-52]	@ float
 5634 51cc 0300A0E1 		bl	__extendsfdf2
 5635 51d0 0410A0E1 		mov	r3, r0
 5636 51d4 FEFFFFEB 		mov	r4, r1
 5637 51d8 0030A0E1 		mov	r0, r3
 5638 51dc 0140A0E1 		mov	r1, r4
 5639 51e0 0500A0E1 		bl	sin
 5640 51e4 0610A0E1 		mov	r3, r0
 5641 51e8 0320A0E1 		mov	r4, r1
 5642 51ec 0430A0E1 		mov	r0, r5
 5643 51f0 FEFFFFEB 		mov	r1, r6
 5644 51f4 0030A0E1 		mov	r2, r3
 5645 51f8 0140A0E1 		mov	r3, r4
 5646 51fc 0350A0E1 		bl	__muldf3
 5647 5200 0460A0E1 		mov	r3, r0
 5648 5204 2C001BE5 		mov	r4, r1
 5649 5208 FEFFFFEB 		mov	r5, r3
 5650 520c 0030A0E1 		mov	r6, r4
 5651 5210 0140A0E1 		ldr	r0, [fp, #-52]	@ float
 5652 5214 0300A0E1 		bl	__extendsfdf2
 5653 5218 0410A0E1 		mov	r3, r0
 5654 521c FEFFFFEB 		mov	r4, r1
 5655 5220 0030A0E1 		mov	r0, r3
 5656 5224 0140A0E1 		mov	r1, r4
 5657 5228 0500A0E1 		bl	sin
 5658 522c 0610A0E1 		mov	r3, r0
 5659 5230 0320A0E1 		mov	r4, r1
 5660 5234 0430A0E1 		mov	r0, r5
 5661 5238 FEFFFFEB 		mov	r1, r6
 5662 523c 0030A0E1 		mov	r2, r3
 5663 5240 0140A0E1 		mov	r3, r4
 5664 5244 0900A0E1 		bl	__muldf3
 5665 5248 0A10A0E1 		mov	r3, r0
 5666 524c 0320A0E1 		mov	r4, r1
 5667 5250 0430A0E1 		mov	r0, r9
 5668 5254 FEFFFFEB 		mov	r1, sl
 5669 5258 0030A0E1 		mov	r2, r3
 5670 525c 0140A0E1 		mov	r3, r4
 5671 5260 0390A0E1 		bl	__adddf3
 5672 5264 04A0A0E1 		mov	r3, r0
 5673 5268 30001BE5 		mov	r4, r1
 5674 526c FEFFFFEB 		mov	r9, r3
 5675 5270 0030A0E1 		mov	sl, r4
 5676 5274 0140A0E1 		ldr	r0, [fp, #-48]	@ float
 5677 5278 0300A0E1 		bl	__extendsfdf2
 5678 527c 0410A0E1 		mov	r3, r0
 5679 5280 FEFFFFEB 		mov	r4, r1
 5680 5284 0050A0E1 		mov	r0, r3
 5681 5288 0160A0E1 		mov	r1, r4
 5682 528c 30001BE5 		bl	cos
 5683 5290 FEFFFFEB 		mov	r5, r0
 5684 5294 0030A0E1 		mov	r6, r1
 5685 5298 0140A0E1 		ldr	r0, [fp, #-48]	@ float
 5686 529c 0300A0E1 		bl	__extendsfdf2
 5687 52a0 0410A0E1 		mov	r3, r0
 5688 52a4 FEFFFFEB 		mov	r4, r1
 5689 52a8 0030A0E1 		mov	r0, r3
 5690 52ac 0140A0E1 		mov	r1, r4
 5691 52b0 0500A0E1 		bl	cos
 5692 52b4 0610A0E1 		mov	r3, r0
 5693 52b8 0320A0E1 		mov	r4, r1
 5694 52bc 0430A0E1 		mov	r0, r5
 5695 52c0 FEFFFFEB 		mov	r1, r6
 5696 52c4 0030A0E1 		mov	r2, r3
 5697 52c8 0140A0E1 		mov	r3, r4
 5698 52cc 0350A0E1 		bl	__muldf3
 5699 52d0 0460A0E1 		mov	r3, r0
 5700 52d4 2C001BE5 		mov	r4, r1
 5701 52d8 FEFFFFEB 		mov	r5, r3
 5702 52dc 0030A0E1 		mov	r6, r4
 5703 52e0 0140A0E1 		ldr	r0, [fp, #-52]	@ float
 5704 52e4 0300A0E1 		bl	__extendsfdf2
 5705 52e8 0410A0E1 		mov	r3, r0
 5706 52ec FEFFFFEB 		mov	r4, r1
 5707 52f0 0030A0E1 		mov	r0, r3
 5708 52f4 0140A0E1 		mov	r1, r4
 5709 52f8 0500A0E1 		bl	sin
 5710 52fc 0610A0E1 		mov	r3, r0
 5711 5300 0320A0E1 		mov	r4, r1
 5712 5304 0430A0E1 		mov	r0, r5
 5713 5308 FEFFFFEB 		mov	r1, r6
 5714 530c 0030A0E1 		mov	r2, r3
 5715 5310 0140A0E1 		mov	r3, r4
 5716 5314 0350A0E1 		bl	__muldf3
 5717 5318 0460A0E1 		mov	r3, r0
 5718 531c 2C001BE5 		mov	r4, r1
 5719 5320 FEFFFFEB 		mov	r5, r3
 5720 5324 0030A0E1 		mov	r6, r4
 5721 5328 0140A0E1 		ldr	r0, [fp, #-52]	@ float
 5722 532c 0300A0E1 		bl	__extendsfdf2
 5723 5330 0410A0E1 		mov	r3, r0
 5724 5334 FEFFFFEB 		mov	r4, r1
 5725 5338 0030A0E1 		mov	r0, r3
 5726 533c 0140A0E1 		mov	r1, r4
 5727 5340 0500A0E1 		bl	sin
 5728 5344 0610A0E1 		mov	r3, r0
 5729 5348 0320A0E1 		mov	r4, r1
 5730 534c 0430A0E1 		mov	r0, r5
 5731 5350 FEFFFFEB 		mov	r1, r6
 5732 5354 0030A0E1 		mov	r2, r3
 5733 5358 0140A0E1 		mov	r3, r4
 5734 535c 0350A0E1 		bl	__muldf3
 5735 5360 0460A0E1 		mov	r3, r0
 5736 5364 34001BE5 		mov	r4, r1
 5737 5368 FEFFFFEB 		mov	r5, r3
 5738 536c 0030A0E1 		mov	r6, r4
 5739 5370 0140A0E1 		ldr	r0, [fp, #-44]	@ float
 5740 5374 0300A0E1 		bl	__extendsfdf2
 5741 5378 0410A0E1 		mov	r3, r0
 5742 537c FEFFFFEB 		mov	r4, r1
 5743 5380 0030A0E1 		mov	r0, r3
 5744 5384 0140A0E1 		mov	r1, r4
 5745 5388 0500A0E1 		bl	sin
 5746 538c 0610A0E1 		mov	r3, r0
 5747 5390 0320A0E1 		mov	r4, r1
 5748 5394 0430A0E1 		mov	r0, r5
 5749 5398 FEFFFFEB 		mov	r1, r6
 5750 539c 0030A0E1 		mov	r2, r3
 5751 53a0 0140A0E1 		mov	r3, r4
 5752 53a4 0350A0E1 		bl	__muldf3
 5753 53a8 0460A0E1 		mov	r3, r0
 5754 53ac 34001BE5 		mov	r4, r1
 5755 53b0 FEFFFFEB 		mov	r5, r3
 5756 53b4 0030A0E1 		mov	r6, r4
 5757 53b8 0140A0E1 		ldr	r0, [fp, #-44]	@ float
 5758 53bc 0300A0E1 		bl	__extendsfdf2
 5759 53c0 0410A0E1 		mov	r3, r0
 5760 53c4 FEFFFFEB 		mov	r4, r1
 5761 53c8 0030A0E1 		mov	r0, r3
 5762 53cc 0140A0E1 		mov	r1, r4
 5763 53d0 0500A0E1 		bl	sin
 5764 53d4 0610A0E1 		mov	r3, r0
 5765 53d8 0320A0E1 		mov	r4, r1
 5766 53dc 0430A0E1 		mov	r0, r5
 5767 53e0 FEFFFFEB 		mov	r1, r6
 5768 53e4 0030A0E1 		mov	r2, r3
 5769 53e8 0140A0E1 		mov	r3, r4
 5770 53ec 0900A0E1 		bl	__muldf3
 5771 53f0 0A10A0E1 		mov	r3, r0
 5772 53f4 0320A0E1 		mov	r4, r1
 5773 53f8 0430A0E1 		mov	r0, r9
 5774 53fc FEFFFFEB 		mov	r1, sl
 5775 5400 0030A0E1 		mov	r2, r3
 5776 5404 0140A0E1 		mov	r3, r4
 5777 5408 0390A0E1 		bl	__adddf3
 5778 540c 04A0A0E1 		mov	r3, r0
 5779 5410 30001BE5 		mov	r4, r1
 5780 5414 FEFFFFEB 		mov	r9, r3
 5781 5418 0030A0E1 		mov	sl, r4
 5782 541c 0140A0E1 		ldr	r0, [fp, #-44]	@ float
 5783 5420 0300A0E1 		bl	__extendsfdf2
 5784 5424 0410A0E1 		mov	r3, r0
 5785 5428 FEFFFFEB 		mov	r4, r1
 5786 542c 0050A0E1 		mov	r0, r3
 5787 5430 0160A0E1 		mov	r1, r4
 5788 5434 30001BE5 		bl	cos
 5789 5438 FEFFFFEB 		mov	r5, r0
 5790 543c 0030A0E1 		mov	r6, r1
 5791 5440 0140A0E1 		ldr	r0, [fp, #-44]	@ float
 5792 5444 0300A0E1 		bl	__extendsfdf2
 5793 5448 0410A0E1 		mov	r3, r0
 5794 544c FEFFFFEB 		mov	r4, r1
 5795 5450 0030A0E1 		mov	r0, r3
 5796 5454 0140A0E1 		mov	r1, r4
 5797 5458 0500A0E1 		bl	cos
 5798 545c 0610A0E1 		mov	r3, r0
 5799 5460 0320A0E1 		mov	r4, r1
 5800 5464 0430A0E1 		mov	r0, r5
 5801 5468 FEFFFFEB 		mov	r1, r6
 5802 546c 0030A0E1 		mov	r2, r3
 5803 5470 0140A0E1 		mov	r3, r4
 5804 5474 0350A0E1 		bl	__muldf3
 5805 5478 0460A0E1 		mov	r3, r0
 5806 547c 34001BE5 		mov	r4, r1
 5807 5480 FEFFFFEB 		mov	r5, r3
 5808 5484 0030A0E1 		mov	r6, r4
 5809 5488 0140A0E1 		ldr	r0, [fp, #-52]	@ float
 5810 548c 0300A0E1 		bl	__extendsfdf2
 5811 5490 0410A0E1 		mov	r3, r0
 5812 5494 FEFFFFEB 		mov	r4, r1
 5813 5498 0030A0E1 		mov	r0, r3
 5814 549c 0140A0E1 		mov	r1, r4
 5815 54a0 0500A0E1 		bl	sin
 5816 54a4 0610A0E1 		mov	r3, r0
 5817 54a8 0320A0E1 		mov	r4, r1
 5818 54ac 0430A0E1 		mov	r0, r5
 5819 54b0 FEFFFFEB 		mov	r1, r6
 5820 54b4 0030A0E1 		mov	r2, r3
 5821 54b8 0140A0E1 		mov	r3, r4
 5822 54bc 0350A0E1 		bl	__muldf3
 5823 54c0 0460A0E1 		mov	r3, r0
 5824 54c4 34001BE5 		mov	r4, r1
 5825 54c8 FEFFFFEB 		mov	r5, r3
 5826 54cc 0030A0E1 		mov	r6, r4
 5827 54d0 0140A0E1 		ldr	r0, [fp, #-52]	@ float
 5828 54d4 0300A0E1 		bl	__extendsfdf2
 5829 54d8 0410A0E1 		mov	r3, r0
 5830 54dc FEFFFFEB 		mov	r4, r1
 5831 54e0 0030A0E1 		mov	r0, r3
 5832 54e4 0140A0E1 		mov	r1, r4
 5833 54e8 0500A0E1 		bl	sin
 5834 54ec 0610A0E1 		mov	r3, r0
 5835 54f0 0320A0E1 		mov	r4, r1
 5836 54f4 0430A0E1 		mov	r0, r5
 5837 54f8 FEFFFFEB 		mov	r1, r6
 5838 54fc 0030A0E1 		mov	r2, r3
 5839 5500 0140A0E1 		mov	r3, r4
 5840 5504 0350A0E1 		bl	__muldf3
 5841 5508 0460A0E1 		mov	r3, r0
 5842 550c 2C001BE5 		mov	r4, r1
 5843 5510 FEFFFFEB 		mov	r5, r3
 5844 5514 0030A0E1 		mov	r6, r4
 5845 5518 0140A0E1 		ldr	r0, [fp, #-48]	@ float
 5846 551c 0300A0E1 		bl	__extendsfdf2
 5847 5520 0410A0E1 		mov	r3, r0
 5848 5524 FEFFFFEB 		mov	r4, r1
 5849 5528 0030A0E1 		mov	r0, r3
 5850 552c 0140A0E1 		mov	r1, r4
 5851 5530 0500A0E1 		bl	sin
 5852 5534 0610A0E1 		mov	r3, r0
 5853 5538 0320A0E1 		mov	r4, r1
 5854 553c 0430A0E1 		mov	r0, r5
 5855 5540 FEFFFFEB 		mov	r1, r6
 5856 5544 0030A0E1 		mov	r2, r3
 5857 5548 0140A0E1 		mov	r3, r4
 5858 554c 0350A0E1 		bl	__muldf3
 5859 5550 0460A0E1 		mov	r3, r0
 5860 5554 2C001BE5 		mov	r4, r1
 5861 5558 FEFFFFEB 		mov	r5, r3
 5862 555c 0030A0E1 		mov	r6, r4
 5863 5560 0140A0E1 		ldr	r0, [fp, #-48]	@ float
 5864 5564 0300A0E1 		bl	__extendsfdf2
 5865 5568 0410A0E1 		mov	r3, r0
 5866 556c FEFFFFEB 		mov	r4, r1
 5867 5570 0030A0E1 		mov	r0, r3
 5868 5574 0140A0E1 		mov	r1, r4
 5869 5578 0500A0E1 		bl	sin
 5870 557c 0610A0E1 		mov	r3, r0
 5871 5580 0320A0E1 		mov	r4, r1
 5872 5584 0430A0E1 		mov	r0, r5
 5873 5588 FEFFFFEB 		mov	r1, r6
 5874 558c 0030A0E1 		mov	r2, r3
 5875 5590 0140A0E1 		mov	r3, r4
 5876 5594 0900A0E1 		bl	__muldf3
 5877 5598 0A10A0E1 		mov	r3, r0
 5878 559c 0320A0E1 		mov	r4, r1
 5879 55a0 0430A0E1 		mov	r0, r9
 5880 55a4 FEFFFFEB 		mov	r1, sl
 5881 55a8 0030A0E1 		mov	r2, r3
 5882 55ac 0140A0E1 		mov	r3, r4
 5883 55b0 0390A0E1 		bl	__adddf3
 5884 55b4 04A0A0E1 		mov	r3, r0
 5885 55b8 2C001BE5 		mov	r4, r1
 5886 55bc FEFFFFEB 		mov	r9, r3
 5887 55c0 0030A0E1 		mov	sl, r4
 5888 55c4 0140A0E1 		ldr	r0, [fp, #-52]	@ float
 5889 55c8 0300A0E1 		bl	__extendsfdf2
 5890 55cc 0410A0E1 		mov	r3, r0
 5891 55d0 FEFFFFEB 		mov	r4, r1
 5892 55d4 0050A0E1 		mov	r0, r3
 5893 55d8 0160A0E1 		mov	r1, r4
 5894 55dc 2C001BE5 		bl	sin
 5895 55e0 FEFFFFEB 		mov	r5, r0
 5896 55e4 0030A0E1 		mov	r6, r1
 5897 55e8 0140A0E1 		ldr	r0, [fp, #-52]	@ float
 5898 55ec 0300A0E1 		bl	__extendsfdf2
 5899 55f0 0410A0E1 		mov	r3, r0
 5900 55f4 FEFFFFEB 		mov	r4, r1
 5901 55f8 0030A0E1 		mov	r0, r3
 5902 55fc 0140A0E1 		mov	r1, r4
 5903 5600 0500A0E1 		bl	sin
 5904 5604 0610A0E1 		mov	r3, r0
 5905 5608 0320A0E1 		mov	r4, r1
 5906 560c 0430A0E1 		mov	r0, r5
 5907 5610 FEFFFFEB 		mov	r1, r6
 5908 5614 0030A0E1 		mov	r2, r3
 5909 5618 0140A0E1 		mov	r3, r4
 5910 561c 0350A0E1 		bl	__muldf3
 5911 5620 0460A0E1 		mov	r3, r0
 5912 5624 34001BE5 		mov	r4, r1
 5913 5628 FEFFFFEB 		mov	r5, r3
 5914 562c 0030A0E1 		mov	r6, r4
 5915 5630 0140A0E1 		ldr	r0, [fp, #-48]	@ float
 5916 5634 0300A0E1 		bl	__extendsfdf2
 5917 5638 0410A0E1 		mov	r3, r0
 5918 563c FEFFFFEB 		mov	r4, r1
 5919 5640 0030A0E1 		mov	r0, r3
 5920 5644 0140A0E1 		mov	r1, r4
 5921 5648 0500A0E1 		bl	sin
 5922 564c 0610A0E1 		mov	r3, r0
 5923 5650 0320A0E1 		mov	r4, r1
 5924 5654 0430A0E1 		mov	r0, r5
 5925 5658 FEFFFFEB 		mov	r1, r6
 5926 565c 0030A0E1 		mov	r2, r3
 5927 5660 0140A0E1 		mov	r3, r4
 5928 5664 0350A0E1 		bl	__muldf3
 5929 5668 0460A0E1 		mov	r3, r0
 5930 566c 34001BE5 		mov	r4, r1
 5931 5670 FEFFFFEB 		mov	r5, r3
 5932 5674 0030A0E1 		mov	r6, r4
 5933 5678 0140A0E1 		ldr	r0, [fp, #-48]	@ float
 5934 567c 0300A0E1 		bl	__extendsfdf2
 5935 5680 0410A0E1 		mov	r3, r0
 5936 5684 FEFFFFEB 		mov	r4, r1
 5937 5688 0030A0E1 		mov	r0, r3
 5938 568c 0140A0E1 		mov	r1, r4
 5939 5690 0500A0E1 		bl	sin
 5940 5694 0610A0E1 		mov	r3, r0
 5941 5698 0320A0E1 		mov	r4, r1
 5942 569c 0430A0E1 		mov	r0, r5
 5943 56a0 FEFFFFEB 		mov	r1, r6
 5944 56a4 0030A0E1 		mov	r2, r3
 5945 56a8 0140A0E1 		mov	r3, r4
 5946 56ac 0350A0E1 		bl	__muldf3
 5947 56b0 0460A0E1 		mov	r3, r0
 5948 56b4 30001BE5 		mov	r4, r1
 5949 56b8 FEFFFFEB 		mov	r5, r3
 5950 56bc 0030A0E1 		mov	r6, r4
 5951 56c0 0140A0E1 		ldr	r0, [fp, #-44]	@ float
 5952 56c4 0300A0E1 		bl	__extendsfdf2
 5953 56c8 0410A0E1 		mov	r3, r0
 5954 56cc FEFFFFEB 		mov	r4, r1
 5955 56d0 0030A0E1 		mov	r0, r3
 5956 56d4 0140A0E1 		mov	r1, r4
 5957 56d8 0500A0E1 		bl	sin
 5958 56dc 0610A0E1 		mov	r3, r0
 5959 56e0 0320A0E1 		mov	r4, r1
 5960 56e4 0430A0E1 		mov	r0, r5
 5961 56e8 FEFFFFEB 		mov	r1, r6
 5962 56ec 0030A0E1 		mov	r2, r3
 5963 56f0 0140A0E1 		mov	r3, r4
 5964 56f4 0350A0E1 		bl	__muldf3
 5965 56f8 0460A0E1 		mov	r3, r0
 5966 56fc 30001BE5 		mov	r4, r1
 5967 5700 FEFFFFEB 		mov	r5, r3
 5968 5704 0030A0E1 		mov	r6, r4
 5969 5708 0140A0E1 		ldr	r0, [fp, #-44]	@ float
 5970 570c 0300A0E1 		bl	__extendsfdf2
 5971 5710 0410A0E1 		mov	r3, r0
 5972 5714 FEFFFFEB 		mov	r4, r1
 5973 5718 0030A0E1 		mov	r0, r3
 5974 571c 0140A0E1 		mov	r1, r4
 5975 5720 0500A0E1 		bl	sin
 5976 5724 0610A0E1 		mov	r3, r0
 5977 5728 0320A0E1 		mov	r4, r1
 5978 572c 0430A0E1 		mov	r0, r5
 5979 5730 FEFFFFEB 		mov	r1, r6
 5980 5734 0030A0E1 		mov	r2, r3
 5981 5738 0140A0E1 		mov	r3, r4
 5982 573c 0900A0E1 		bl	__muldf3
 5983 5740 0A10A0E1 		mov	r3, r0
 5984 5744 0320A0E1 		mov	r4, r1
 5985 5748 0430A0E1 		mov	r0, r9
 5986 574c FEFFFFEB 		mov	r1, sl
 5987 5750 0030A0E1 		mov	r2, r3
 5988 5754 0140A0E1 		mov	r3, r4
 5989 5758 0390A0E1 		bl	__adddf3
 5990 575c 04A0A0E1 		mov	r3, r0
 5991 5760 34001BE5 		mov	r4, r1
 5992 5764 FEFFFFEB 		mov	r0, r7
 5993 5768 0030A0E1 		mov	r1, r8
 5994 576c 0140A0E1 		mov	r2, r3
 5995 5770 0300A0E1 		mov	r3, r4
 5996 5774 0410A0E1 		bl	__divdf3
 5997 5778 FEFFFFEB 		mov	r3, r0
 5998 577c 0050A0E1 		mov	r4, r1
 5999 5780 0160A0E1 		mov	r0, r3
 6000 5784 34001BE5 		mov	r1, r4
 6001 5788 FEFFFFEB 		bl	__truncdfsf2
 6002 578c 0030A0E1 		mov	r3, r0
 6003 5790 0140A0E1 		str	r3, [fp, #-164]	@ float
 6004 5794 0300A0E1 		.loc 1 308 0
 6005 5798 0410A0E1 		ldr	r0, [fp, #-48]	@ float
 6006 579c FEFFFFEB 		bl	__extendsfdf2
 6007 57a0 0030A0E1 		mov	r3, r0
 6008 57a4 0140A0E1 		mov	r4, r1
 6009 57a8 0500A0E1 		mov	r0, r3
 6010 57ac 0610A0E1 		mov	r1, r4
 6011 57b0 0320A0E1 		bl	cos
 6012 57b4 0430A0E1 		mov	r5, r0
 6013 57b8 FEFFFFEB 		mov	r6, r1
 6014 57bc 0030A0E1 		ldr	r0, [fp, #-44]	@ float
 6015 57c0 0140A0E1 		bl	__extendsfdf2
 6016 57c4 0350A0E1 		mov	r3, r0
 6017 57c8 0460A0E1 		mov	r4, r1
 6018 57cc 30001BE5 		mov	r0, r3
 6019 57d0 FEFFFFEB 		mov	r1, r4
 6020 57d4 0030A0E1 		bl	cos
 6021 57d8 0140A0E1 		mov	r3, r0
 6022 57dc 0300A0E1 		mov	r4, r1
 6023 57e0 0410A0E1 		mov	r0, r5
 6024 57e4 FEFFFFEB 		mov	r1, r6
 6025 57e8 0030A0E1 		mov	r2, r3
 6026 57ec 0140A0E1 		mov	r3, r4
 6027 57f0 0500A0E1 		bl	__muldf3
 6028 57f4 0610A0E1 		mov	r3, r0
 6029 57f8 0320A0E1 		mov	r4, r1
 6030 57fc 0430A0E1 		mov	r7, r3
 6031 5800 FEFFFFEB 		mov	r8, r4
 6032 5804 0030A0E1 		ldr	r0, [fp, #-48]	@ float
 6033 5808 0140A0E1 		bl	__extendsfdf2
 6034 580c 0350A0E1 		mov	r3, r0
 6035 5810 0460A0E1 		mov	r4, r1
 6036 5814 30001BE5 		mov	r0, r3
 6037 5818 FEFFFFEB 		mov	r1, r4
 6038 581c 0030A0E1 		bl	cos
 6039 5820 0140A0E1 		mov	r5, r0
 6040 5824 0300A0E1 		mov	r6, r1
 6041 5828 0410A0E1 		ldr	r0, [fp, #-48]	@ float
 6042 582c FEFFFFEB 		bl	__extendsfdf2
 6043 5830 0030A0E1 		mov	r3, r0
 6044 5834 0140A0E1 		mov	r4, r1
 6045 5838 0500A0E1 		mov	r0, r3
 6046 583c 0610A0E1 		mov	r1, r4
 6047 5840 0320A0E1 		bl	cos
 6048 5844 0430A0E1 		mov	r3, r0
 6049 5848 FEFFFFEB 		mov	r4, r1
 6050 584c 0030A0E1 		mov	r0, r5
 6051 5850 0140A0E1 		mov	r1, r6
 6052 5854 0350A0E1 		mov	r2, r3
 6053 5858 0460A0E1 		mov	r3, r4
 6054 585c 2C001BE5 		bl	__muldf3
 6055 5860 FEFFFFEB 		mov	r3, r0
 6056 5864 0030A0E1 		mov	r4, r1
 6057 5868 0140A0E1 		mov	r5, r3
 6058 586c 0300A0E1 		mov	r6, r4
 6059 5870 0410A0E1 		ldr	r0, [fp, #-44]	@ float
 6060 5874 FEFFFFEB 		bl	__extendsfdf2
 6061 5878 0030A0E1 		mov	r3, r0
 6062 587c 0140A0E1 		mov	r4, r1
 6063 5880 0500A0E1 		mov	r0, r3
 6064 5884 0610A0E1 		mov	r1, r4
 6065 5888 0320A0E1 		bl	cos
 6066 588c 0430A0E1 		mov	r3, r0
 6067 5890 FEFFFFEB 		mov	r4, r1
 6068 5894 0030A0E1 		mov	r0, r5
 6069 5898 0140A0E1 		mov	r1, r6
 6070 589c 0350A0E1 		mov	r2, r3
 6071 58a0 0460A0E1 		mov	r3, r4
 6072 58a4 2C001BE5 		bl	__muldf3
 6073 58a8 FEFFFFEB 		mov	r3, r0
 6074 58ac 0030A0E1 		mov	r4, r1
 6075 58b0 0140A0E1 		mov	r5, r3
 6076 58b4 0300A0E1 		mov	r6, r4
 6077 58b8 0410A0E1 		ldr	r0, [fp, #-44]	@ float
 6078 58bc FEFFFFEB 		bl	__extendsfdf2
 6079 58c0 0030A0E1 		mov	r3, r0
 6080 58c4 0140A0E1 		mov	r4, r1
 6081 58c8 0500A0E1 		mov	r0, r3
 6082 58cc 0610A0E1 		mov	r1, r4
 6083 58d0 0320A0E1 		bl	cos
 6084 58d4 0430A0E1 		mov	r3, r0
 6085 58d8 FEFFFFEB 		mov	r4, r1
 6086 58dc 0030A0E1 		mov	r0, r5
 6087 58e0 0140A0E1 		mov	r1, r6
 6088 58e4 0900A0E1 		mov	r2, r3
 6089 58e8 0A10A0E1 		mov	r3, r4
 6090 58ec 0320A0E1 		bl	__muldf3
 6091 58f0 0430A0E1 		mov	r3, r0
 6092 58f4 FEFFFFEB 		mov	r4, r1
 6093 58f8 0030A0E1 		mov	r9, r3
 6094 58fc 0140A0E1 		mov	sl, r4
 6095 5900 0700A0E1 		ldr	r0, [fp, #-48]	@ float
 6096 5904 0810A0E1 		bl	__extendsfdf2
 6097 5908 0320A0E1 		mov	r3, r0
 6098 590c 0430A0E1 		mov	r4, r1
 6099 5910 FEFFFFEB 		mov	r0, r3
 6100 5914 0030A0E1 		mov	r1, r4
 6101 5918 0140A0E1 		bl	cos
 6102 591c 0300A0E1 		mov	r5, r0
 6103 5920 0410A0E1 		mov	r6, r1
 6104 5924 FEFFFFEB 		ldr	r0, [fp, #-48]	@ float
 6105 5928 0030A0E1 		bl	__extendsfdf2
 6106 592c A4300BE5 		mov	r3, r0
 308:lab.c         **** 	Rinv[8] = (cos(th2)*cos(th3))/(cos(th2)*cos(th2)*cos(th3)*cos(th3) + cos(th2)*cos(th2)*sin(th3)*si
 6107              	r3
 6108 5930 30001BE5 		mov	r3, r4
 6109 5934 FEFFFFEB 		bl	__muldf3
 6110 5938 0030A0E1 		mov	r3, r0
 6111 593c 0140A0E1 		mov	r4, r1
 6112 5940 0300A0E1 		mov	r5, r3
 6113 5944 0410A0E1 		mov	r6, r4
 6114 5948 FEFFFFEB 		ldr	r0, [fp, #-44]	@ float
 6115 594c 0050A0E1 		bl	__extendsfdf2
 6116 5950 0160A0E1 		mov	r3, r0
 6117 5954 2C001BE5 		mov	r4, r1
 6118 5958 FEFFFFEB 		mov	r0, r3
 6119 595c 0030A0E1 		mov	r1, r4
 6120 5960 0140A0E1 		bl	sin
 6121 5964 0300A0E1 		mov	r3, r0
 6122 5968 0410A0E1 		mov	r4, r1
 6123 596c FEFFFFEB 		mov	r0, r5
 6124 5970 0030A0E1 		mov	r1, r6
 6125 5974 0140A0E1 		mov	r2, r3
 6126 5978 0500A0E1 		mov	r3, r4
 6127 597c 0610A0E1 		bl	__muldf3
 6128 5980 0320A0E1 		mov	r3, r0
 6129 5984 0430A0E1 		mov	r4, r1
 6130 5988 FEFFFFEB 		mov	r5, r3
 6131 598c 0030A0E1 		mov	r6, r4
 6132 5990 0140A0E1 		ldr	r0, [fp, #-44]	@ float
 6133 5994 0370A0E1 		bl	__extendsfdf2
 6134 5998 0480A0E1 		mov	r3, r0
 6135 599c 30001BE5 		mov	r4, r1
 6136 59a0 FEFFFFEB 		mov	r0, r3
 6137 59a4 0030A0E1 		mov	r1, r4
 6138 59a8 0140A0E1 		bl	sin
 6139 59ac 0300A0E1 		mov	r3, r0
 6140 59b0 0410A0E1 		mov	r4, r1
 6141 59b4 FEFFFFEB 		mov	r0, r5
 6142 59b8 0050A0E1 		mov	r1, r6
 6143 59bc 0160A0E1 		mov	r2, r3
 6144 59c0 30001BE5 		mov	r3, r4
 6145 59c4 FEFFFFEB 		bl	__muldf3
 6146 59c8 0030A0E1 		mov	r3, r0
 6147 59cc 0140A0E1 		mov	r4, r1
 6148 59d0 0300A0E1 		mov	r0, r9
 6149 59d4 0410A0E1 		mov	r1, sl
 6150 59d8 FEFFFFEB 		mov	r2, r3
 6151 59dc 0030A0E1 		mov	r3, r4
 6152 59e0 0140A0E1 		bl	__adddf3
 6153 59e4 0500A0E1 		mov	r3, r0
 6154 59e8 0610A0E1 		mov	r4, r1
 6155 59ec 0320A0E1 		mov	r9, r3
 6156 59f0 0430A0E1 		mov	sl, r4
 6157 59f4 FEFFFFEB 		ldr	r0, [fp, #-44]	@ float
 6158 59f8 0030A0E1 		bl	__extendsfdf2
 6159 59fc 0140A0E1 		mov	r3, r0
 6160 5a00 0350A0E1 		mov	r4, r1
 6161 5a04 0460A0E1 		mov	r0, r3
 6162 5a08 2C001BE5 		mov	r1, r4
 6163 5a0c FEFFFFEB 		bl	cos
 6164 5a10 0030A0E1 		mov	r5, r0
 6165 5a14 0140A0E1 		mov	r6, r1
 6166 5a18 0300A0E1 		ldr	r0, [fp, #-44]	@ float
 6167 5a1c 0410A0E1 		bl	__extendsfdf2
 6168 5a20 FEFFFFEB 		mov	r3, r0
 6169 5a24 0030A0E1 		mov	r4, r1
 6170 5a28 0140A0E1 		mov	r0, r3
 6171 5a2c 0500A0E1 		mov	r1, r4
 6172 5a30 0610A0E1 		bl	cos
 6173 5a34 0320A0E1 		mov	r3, r0
 6174 5a38 0430A0E1 		mov	r4, r1
 6175 5a3c FEFFFFEB 		mov	r0, r5
 6176 5a40 0030A0E1 		mov	r1, r6
 6177 5a44 0140A0E1 		mov	r2, r3
 6178 5a48 0350A0E1 		mov	r3, r4
 6179 5a4c 0460A0E1 		bl	__muldf3
 6180 5a50 2C001BE5 		mov	r3, r0
 6181 5a54 FEFFFFEB 		mov	r4, r1
 6182 5a58 0030A0E1 		mov	r5, r3
 6183 5a5c 0140A0E1 		mov	r6, r4
 6184 5a60 0300A0E1 		ldr	r0, [fp, #-48]	@ float
 6185 5a64 0410A0E1 		bl	__extendsfdf2
 6186 5a68 FEFFFFEB 		mov	r3, r0
 6187 5a6c 0030A0E1 		mov	r4, r1
 6188 5a70 0140A0E1 		mov	r0, r3
 6189 5a74 0500A0E1 		mov	r1, r4
 6190 5a78 0610A0E1 		bl	sin
 6191 5a7c 0320A0E1 		mov	r3, r0
 6192 5a80 0430A0E1 		mov	r4, r1
 6193 5a84 FEFFFFEB 		mov	r0, r5
 6194 5a88 0030A0E1 		mov	r1, r6
 6195 5a8c 0140A0E1 		mov	r2, r3
 6196 5a90 0390A0E1 		mov	r3, r4
 6197 5a94 04A0A0E1 		bl	__muldf3
 6198 5a98 30001BE5 		mov	r3, r0
 6199 5a9c FEFFFFEB 		mov	r4, r1
 6200 5aa0 0030A0E1 		mov	r5, r3
 6201 5aa4 0140A0E1 		mov	r6, r4
 6202 5aa8 0300A0E1 		ldr	r0, [fp, #-48]	@ float
 6203 5aac 0410A0E1 		bl	__extendsfdf2
 6204 5ab0 FEFFFFEB 		mov	r3, r0
 6205 5ab4 0050A0E1 		mov	r4, r1
 6206 5ab8 0160A0E1 		mov	r0, r3
 6207 5abc 30001BE5 		mov	r1, r4
 6208 5ac0 FEFFFFEB 		bl	sin
 6209 5ac4 0030A0E1 		mov	r3, r0
 6210 5ac8 0140A0E1 		mov	r4, r1
 6211 5acc 0300A0E1 		mov	r0, r5
 6212 5ad0 0410A0E1 		mov	r1, r6
 6213 5ad4 FEFFFFEB 		mov	r2, r3
 6214 5ad8 0030A0E1 		mov	r3, r4
 6215 5adc 0140A0E1 		bl	__muldf3
 6216 5ae0 0500A0E1 		mov	r3, r0
 6217 5ae4 0610A0E1 		mov	r4, r1
 6218 5ae8 0320A0E1 		mov	r0, r9
 6219 5aec 0430A0E1 		mov	r1, sl
 6220 5af0 FEFFFFEB 		mov	r2, r3
 6221 5af4 0030A0E1 		mov	r3, r4
 6222 5af8 0140A0E1 		bl	__adddf3
 6223 5afc 0350A0E1 		mov	r3, r0
 6224 5b00 0460A0E1 		mov	r4, r1
 6225 5b04 2C001BE5 		mov	r9, r3
 6226 5b08 FEFFFFEB 		mov	sl, r4
 6227 5b0c 0030A0E1 		ldr	r0, [fp, #-48]	@ float
 6228 5b10 0140A0E1 		bl	__extendsfdf2
 6229 5b14 0300A0E1 		mov	r3, r0
 6230 5b18 0410A0E1 		mov	r4, r1
 6231 5b1c FEFFFFEB 		mov	r0, r3
 6232 5b20 0030A0E1 		mov	r1, r4
 6233 5b24 0140A0E1 		bl	sin
 6234 5b28 0500A0E1 		mov	r5, r0
 6235 5b2c 0610A0E1 		mov	r6, r1
 6236 5b30 0320A0E1 		ldr	r0, [fp, #-48]	@ float
 6237 5b34 0430A0E1 		bl	__extendsfdf2
 6238 5b38 FEFFFFEB 		mov	r3, r0
 6239 5b3c 0030A0E1 		mov	r4, r1
 6240 5b40 0140A0E1 		mov	r0, r3
 6241 5b44 0350A0E1 		mov	r1, r4
 6242 5b48 0460A0E1 		bl	sin
 6243 5b4c 2C001BE5 		mov	r3, r0
 6244 5b50 FEFFFFEB 		mov	r4, r1
 6245 5b54 0030A0E1 		mov	r0, r5
 6246 5b58 0140A0E1 		mov	r1, r6
 6247 5b5c 0300A0E1 		mov	r2, r3
 6248 5b60 0410A0E1 		mov	r3, r4
 6249 5b64 FEFFFFEB 		bl	__muldf3
 6250 5b68 0030A0E1 		mov	r3, r0
 6251 5b6c 0140A0E1 		mov	r4, r1
 6252 5b70 0500A0E1 		mov	r5, r3
 6253 5b74 0610A0E1 		mov	r6, r4
 6254 5b78 0320A0E1 		ldr	r0, [fp, #-44]	@ float
 6255 5b7c 0430A0E1 		bl	__extendsfdf2
 6256 5b80 FEFFFFEB 		mov	r3, r0
 6257 5b84 0030A0E1 		mov	r4, r1
 6258 5b88 0140A0E1 		mov	r0, r3
 6259 5b8c 0900A0E1 		mov	r1, r4
 6260 5b90 0A10A0E1 		bl	sin
 6261 5b94 0320A0E1 		mov	r3, r0
 6262 5b98 0430A0E1 		mov	r4, r1
 6263 5b9c FEFFFFEB 		mov	r0, r5
 6264 5ba0 0030A0E1 		mov	r1, r6
 6265 5ba4 0140A0E1 		mov	r2, r3
 6266 5ba8 0390A0E1 		mov	r3, r4
 6267 5bac 04A0A0E1 		bl	__muldf3
 6268 5bb0 2C001BE5 		mov	r3, r0
 6269 5bb4 FEFFFFEB 		mov	r4, r1
 6270 5bb8 0030A0E1 		mov	r5, r3
 6271 5bbc 0140A0E1 		mov	r6, r4
 6272 5bc0 0300A0E1 		ldr	r0, [fp, #-44]	@ float
 6273 5bc4 0410A0E1 		bl	__extendsfdf2
 6274 5bc8 FEFFFFEB 		mov	r3, r0
 6275 5bcc 0050A0E1 		mov	r4, r1
 6276 5bd0 0160A0E1 		mov	r0, r3
 6277 5bd4 2C001BE5 		mov	r1, r4
 6278 5bd8 FEFFFFEB 		bl	sin
 6279 5bdc 0030A0E1 		mov	r3, r0
 6280 5be0 0140A0E1 		mov	r4, r1
 6281 5be4 0300A0E1 		mov	r0, r5
 6282 5be8 0410A0E1 		mov	r1, r6
 6283 5bec FEFFFFEB 		mov	r2, r3
 6284 5bf0 0030A0E1 		mov	r3, r4
 6285 5bf4 0140A0E1 		bl	__muldf3
 6286 5bf8 0500A0E1 		mov	r3, r0
 6287 5bfc 0610A0E1 		mov	r4, r1
 6288 5c00 0320A0E1 		mov	r0, r9
 6289 5c04 0430A0E1 		mov	r1, sl
 6290 5c08 FEFFFFEB 		mov	r2, r3
 6291 5c0c 0030A0E1 		mov	r3, r4
 6292 5c10 0140A0E1 		bl	__adddf3
 6293 5c14 0350A0E1 		mov	r3, r0
 6294 5c18 0460A0E1 		mov	r4, r1
 6295 5c1c 30001BE5 		mov	r0, r7
 6296 5c20 FEFFFFEB 		mov	r1, r8
 6297 5c24 0030A0E1 		mov	r2, r3
 6298 5c28 0140A0E1 		mov	r3, r4
 6299 5c2c 0300A0E1 		bl	__divdf3
 6300 5c30 0410A0E1 		mov	r3, r0
 6301 5c34 FEFFFFEB 		mov	r4, r1
 6302 5c38 0030A0E1 		mov	r0, r3
 6303 5c3c 0140A0E1 		mov	r1, r4
 6304 5c40 0500A0E1 		bl	__truncdfsf2
 6305 5c44 0610A0E1 		mov	r3, r0
 6306 5c48 0320A0E1 		str	r3, [fp, #-160]	@ float
 6307 5c4c 0430A0E1 		.loc 1 310 0
 6308 5c50 FEFFFFEB 		ldr	r3, .L30
 6309 5c54 0030A0E1 		sub	ip, fp, #156
 6310 5c58 0140A0E1 		ldmia	r3, {r0, r1, r2}
 6311 5c5c 0350A0E1 		stmia	ip, {r0, r1, r2}
 6312 5c60 0460A0E1 		.loc 1 311 0
 6313 5c64 30001BE5 		sub	ip, fp, #192
 6314 5c68 FEFFFFEB 		sub	r3, fp, #144
 6315 5c6c 0030A0E1 		str	r3, [sp, #0]
 6316 5c70 0140A0E1 		sub	r3, fp, #156
 6317 5c74 0300A0E1 		str	r3, [sp, #4]
 6318 5c78 0410A0E1 		mov	r0, #3
 6319 5c7c FEFFFFEB 		mov	r1, #3
 6320 5c80 0030A0E1 		mov	r2, #1
 6321 5c84 0140A0E1 		mov	r3, ip
 6322 5c88 0500A0E1 		bl	matrix_multiply
 6323 5c8c 0610A0E1 		.loc 1 312 0
 6324 5c90 0320A0E1 		ldr	r3, .L30+4
 6325 5c94 0430A0E1 		ldr	r2, [r3, #0]	@ float
 6326 5c98 FEFFFFEB 		ldr	r3, .L30+8
 6327 5c9c 0030A0E1 		ldr	r3, [r3, #0]	@ float
 6328 5ca0 0140A0E1 		mov	r0, r2
 6329 5ca4 0900A0E1 		mov	r1, r3
 6330 5ca8 0A10A0E1 		bl	__divsf3
 6331 5cac 0320A0E1 		mov	r3, r0
 6332 5cb0 0430A0E1 		mov	r0, r3
 6333 5cb4 FEFFFFEB 		bl	__extendsfdf2
 6334 5cb8 0030A0E1 		mov	r5, r0
 6335 5cbc 0140A0E1 		mov	r6, r1
 6336 5cc0 0390A0E1 		ldr	r3, [fp, #-156]	@ float
 6337 5cc4 04A0A0E1 		ldr	r2, [fp, #-156]	@ float
 6338 5cc8 30001BE5 		mov	r0, r3
 6339 5ccc FEFFFFEB 		mov	r1, r2
 6340 5cd0 0030A0E1 		bl	__mulsf3
 6341 5cd4 0140A0E1 		mov	r3, r0
 6342 5cd8 0300A0E1 		mov	r4, r3
 6343 5cdc 0410A0E1 		ldr	r3, [fp, #-152]	@ float
 6344 5ce0 FEFFFFEB 		ldr	r2, [fp, #-152]	@ float
 6345 5ce4 0050A0E1 		mov	r0, r3
 6346 5ce8 0160A0E1 		mov	r1, r2
 6347 5cec 30001BE5 		bl	__mulsf3
 6348 5cf0 FEFFFFEB 		mov	r3, r0
 6349 5cf4 0030A0E1 		mov	r0, r4
 6350 5cf8 0140A0E1 		mov	r1, r3
 6351 5cfc 0300A0E1 		bl	__addsf3
 6352 5d00 0410A0E1 		mov	r3, r0
 6353 5d04 FEFFFFEB 		mov	r4, r3
 6354 5d08 0030A0E1 		ldr	r3, [fp, #-148]	@ float
 6355 5d0c 0140A0E1 		ldr	r2, [fp, #-148]	@ float
 6356 5d10 0500A0E1 		mov	r0, r3
 6357 5d14 0610A0E1 		mov	r1, r2
 6358 5d18 0320A0E1 		bl	__mulsf3
 6359 5d1c 0430A0E1 		mov	r3, r0
 6360 5d20 FEFFFFEB 		mov	r0, r4
 6361 5d24 0030A0E1 		mov	r1, r3
 6362 5d28 0140A0E1 		bl	__addsf3
 6363 5d2c 0350A0E1 		mov	r3, r0
 6364 5d30 0460A0E1 		mov	r0, r3
 6365 5d34 2C001BE5 		bl	__extendsfdf2
 6366 5d38 FEFFFFEB 		mov	r3, r0
 6367 5d3c 0030A0E1 		mov	r4, r1
 6368 5d40 0140A0E1 		mov	r0, r3
 6369 5d44 0300A0E1 		mov	r1, r4
 6370 5d48 0410A0E1 		bl	sqrt
 6371 5d4c FEFFFFEB 		mov	r3, r0
 6372 5d50 0030A0E1 		mov	r4, r1
 6373 5d54 0140A0E1 		mov	r0, r5
 6374 5d58 0500A0E1 		mov	r1, r6
 6375 5d5c 0610A0E1 		mov	r2, r3
 6376 5d60 0320A0E1 		mov	r3, r4
 6377 5d64 0430A0E1 		bl	__muldf3
 6378 5d68 FEFFFFEB 		mov	r3, r0
 6379 5d6c 0030A0E1 		mov	r4, r1
 6380 5d70 0140A0E1 		mov	r0, r3
 6381 5d74 0350A0E1 		mov	r1, r4
 6382 5d78 0460A0E1 		bl	__truncdfsf2
 6383 5d7c 2C001BE5 		mov	r2, r0
 6384 5d80 FEFFFFEB 		ldr	r3, .L30+12
 6385 5d84 0030A0E1 		str	r2, [r3, #0]	@ float
 6386 5d88 0140A0E1 		.loc 1 315 0
 6387 5d8c 0300A0E1 		sub	ip, fp, #192
 6388 5d90 0410A0E1 		sub	r3, fp, #144
 6389 5d94 FEFFFFEB 		str	r3, [sp, #0]
 6390 5d98 0030A0E1 		ldr	r3, .L30+16
 6391 5d9c 0140A0E1 		str	r3, [sp, #4]
 6392 5da0 0500A0E1 		mov	r0, #3
 6393 5da4 0610A0E1 		mov	r1, #3
 6394 5da8 0320A0E1 		mov	r2, #1
 6395 5dac 0430A0E1 		mov	r3, ip
 6396 5db0 FEFFFFEB 		bl	matrix_multiply
 6397 5db4 0030A0E1 		.loc 1 316 0
 6398 5db8 0140A0E1 		ldr	r3, .L30+16
 6399 5dbc 0900A0E1 		ldr	r2, [r3, #0]	@ float
 6400 5dc0 0A10A0E1 		ldr	r3, .L30+4
 6401 5dc4 0320A0E1 		ldr	r3, [r3, #0]	@ float
 6402 5dc8 0430A0E1 		mov	r0, r2
 6403 5dcc FEFFFFEB 		mov	r1, r3
 6404 5dd0 0030A0E1 		bl	__mulsf3
 6405 5dd4 0140A0E1 		mov	r3, r0
 6406 5dd8 0700A0E1 		mov	r4, r3
 6407 5ddc 0810A0E1 		ldr	r3, .L30+8
 6408 5de0 0320A0E1 		ldr	r2, [r3, #0]	@ float
 6409 5de4 0430A0E1 		ldr	r3, .L30+12
 6410 5de8 FEFFFFEB 		ldr	r3, [r3, #0]	@ float
 6411 5dec 0030A0E1 		mov	r0, r2
 6412 5df0 0140A0E1 		mov	r1, r3
 6413 5df4 0300A0E1 		bl	__mulsf3
 6414 5df8 0410A0E1 		mov	r3, r0
 6415 5dfc FEFFFFEB 		mov	r0, r4
 6416 5e00 0030A0E1 		mov	r1, r3
 6417 5e04 A0300BE5 		bl	__divsf3
 309:lab.c         **** 
 310:lab.c         **** 	float tmp_result[3] = {0,0,0};
 6418              	v	r2, r3
 6419 5e08 E8359FE5 		ldr	r3, .L30+16
 6420 5e0c 9CC04BE2 		str	r2, [r3, #0]	@ float
 6421 5e10 070093E8 		.loc 1 317 0
 6422 5e14 07008CE8 		ldr	r3, .L30+16
 311:lab.c         **** 	matrix_multiply(3,3,1,Rinv,a_desired,tmp_result);
 6423              	r2, [r3, #4]	@ float
 6424 5e18 C0C04BE2 		ldr	r3, .L30+4
 6425 5e1c 90304BE2 		ldr	r3, [r3, #0]	@ float
 6426 5e20 00308DE5 		mov	r0, r2
 6427 5e24 9C304BE2 		mov	r1, r3
 6428 5e28 04308DE5 		bl	__mulsf3
 6429 5e2c 0300A0E3 		mov	r3, r0
 6430 5e30 0310A0E3 		mov	r4, r3
 6431 5e34 0120A0E3 		ldr	r3, .L30+8
 6432 5e38 0C30A0E1 		ldr	r2, [r3, #0]	@ float
 6433 5e3c FEFFFFEB 		ldr	r3, .L30+12
 312:lab.c         **** 	fsum_des = mass/nz_eq * sqrt(tmp_result[0]*tmp_result[0] + tmp_result[1]*tmp_result[1] + tmp_resul
 6434              	3, #0]	@ float
 6435 5e40 B4359FE5 		mov	r0, r2
 6436 5e44 002093E5 		mov	r1, r3
 6437 5e48 B0359FE5 		bl	__mulsf3
 6438 5e4c 003093E5 		mov	r3, r0
 6439 5e50 0200A0E1 		mov	r0, r4
 6440 5e54 0310A0E1 		mov	r1, r3
 6441 5e58 FEFFFFEB 		bl	__divsf3
 6442 5e5c 0030A0E1 		mov	r3, r0
 6443 5e60 0300A0E1 		mov	r2, r3
 6444 5e64 FEFFFFEB 		ldr	r3, .L30+16
 6445 5e68 0050A0E1 		str	r2, [r3, #4]	@ float
 6446 5e6c 0160A0E1 		.loc 1 318 0
 6447 5e70 9C301BE5 		ldr	r3, .L30+16
 6448 5e74 9C201BE5 		ldr	r2, [r3, #8]	@ float
 6449 5e78 0300A0E1 		ldr	r3, .L30+4
 6450 5e7c 0210A0E1 		ldr	r3, [r3, #0]	@ float
 6451 5e80 FEFFFFEB 		mov	r0, r2
 6452 5e84 0030A0E1 		mov	r1, r3
 6453 5e88 0340A0E1 		bl	__mulsf3
 6454 5e8c 98301BE5 		mov	r3, r0
 6455 5e90 98201BE5 		mov	r4, r3
 6456 5e94 0300A0E1 		ldr	r3, .L30+8
 6457 5e98 0210A0E1 		ldr	r2, [r3, #0]	@ float
 6458 5e9c FEFFFFEB 		ldr	r3, .L30+12
 6459 5ea0 0030A0E1 		ldr	r3, [r3, #0]	@ float
 6460 5ea4 0400A0E1 		mov	r0, r2
 6461 5ea8 0310A0E1 		mov	r1, r3
 6462 5eac FEFFFFEB 		bl	__mulsf3
 6463 5eb0 0030A0E1 		mov	r3, r0
 6464 5eb4 0340A0E1 		mov	r0, r4
 6465 5eb8 94301BE5 		mov	r1, r3
 6466 5ebc 94201BE5 		bl	__divsf3
 6467 5ec0 0300A0E1 		mov	r3, r0
 6468 5ec4 0210A0E1 		mov	r2, r3
 6469 5ec8 FEFFFFEB 		ldr	r3, .L30+16
 6470 5ecc 0030A0E1 		str	r2, [r3, #8]	@ float
 6471 5ed0 0400A0E1 	.L25:
 6472 5ed4 0310A0E1 	.LBE2:
 6473 5ed8 FEFFFFEB 		.loc 1 326 0
 6474 5edc 0030A0E1 		ldr	r3, .L30+16
 6475 5ee0 0300A0E1 		ldr	r2, [r3, #0]	@ float
 6476 5ee4 FEFFFFEB 		ldr	r3, .L30+20
 6477 5ee8 0030A0E1 		str	r2, [r3, #8]	@ float
 6478 5eec 0140A0E1 		.loc 1 327 0
 6479 5ef0 0300A0E1 		ldr	r3, .L30+16
 6480 5ef4 0410A0E1 		ldr	r2, [r3, #4]	@ float
 6481 5ef8 FEFFFFEB 		ldr	r3, .L30+20
 6482 5efc 0030A0E1 		str	r2, [r3, #12]	@ float
 6483 5f00 0140A0E1 		.loc 1 330 0
 6484 5f04 0500A0E1 		ldr	r3, .L30+24
 6485 5f08 0610A0E1 		ldr	r2, [r3, #36]	@ float
 6486 5f0c 0320A0E1 		ldr	r3, .L30+24
 6487 5f10 0430A0E1 		ldr	r1, [r3, #40]	@ float
 6488 5f14 FEFFFFEB 		ldr	r3, .L30+24
 6489 5f18 0030A0E1 		ldr	r3, [r3, #44]	@ float
 6490 5f1c 0140A0E1 		str	r2, [fp, #-80]	@ float
 6491 5f20 0300A0E1 		str	r1, [fp, #-76]	@ float
 6492 5f24 0410A0E1 		str	r3, [fp, #-72]	@ float
 6493 5f28 FEFFFFEB 		.loc 1 331 0
 6494 5f2c 0020A0E1 		ldr	r3, [fp, #-80]	@ float
 6495 5f30 CC349FE5 		ldr	r2, [fp, #-80]	@ float
 6496 5f34 002083E5 		mov	r0, r3
 313:lab.c         **** 
 314:lab.c         **** 
 315:lab.c         **** 	matrix_multiply(3,3,1,Rinv,a_desired,n_des);
 6497              	#-76]	@ float
 6498 5f38 C0C04BE2 		ldr	r2, [fp, #-76]	@ float
 6499 5f3c 90304BE2 		mov	r0, r3
 6500 5f40 00308DE5 		mov	r1, r2
 6501 5f44 BC349FE5 		bl	__mulsf3
 6502 5f48 04308DE5 		mov	r3, r0
 6503 5f4c 0300A0E3 		mov	r0, r4
 6504 5f50 0310A0E3 		mov	r1, r3
 6505 5f54 0120A0E3 		bl	__addsf3
 6506 5f58 0C30A0E1 		mov	r3, r0
 6507 5f5c FEFFFFEB 		mov	r4, r3
 316:lab.c         **** 	n_des[0] = n_des[0] *mass/(nz_eq*fsum_des);
 6508              	p, #-72]	@ float
 6509 5f60 A0349FE5 		ldr	r2, [fp, #-72]	@ float
 6510 5f64 002093E5 		mov	r0, r3
 6511 5f68 8C349FE5 		mov	r1, r2
 6512 5f6c 003093E5 		bl	__mulsf3
 6513 5f70 0200A0E1 		mov	r3, r0
 6514 5f74 0310A0E1 		mov	r0, r4
 6515 5f78 FEFFFFEB 		mov	r1, r3
 6516 5f7c 0030A0E1 		bl	__addsf3
 6517 5f80 0340A0E1 		mov	r3, r0
 6518 5f84 74349FE5 		mov	r0, r3
 6519 5f88 002093E5 		bl	__extendsfdf2
 6520 5f8c 70349FE5 		mov	r3, r0
 6521 5f90 003093E5 		mov	r4, r1
 6522 5f94 0200A0E1 		mov	r0, r3
 6523 5f98 0310A0E1 		mov	r1, r4
 6524 5f9c FEFFFFEB 		bl	sqrt
 6525 5fa0 0030A0E1 		mov	r3, r0
 6526 5fa4 0400A0E1 		mov	r4, r1
 6527 5fa8 0310A0E1 		mov	r0, r3
 6528 5fac FEFFFFEB 		mov	r1, r4
 6529 5fb0 0030A0E1 		bl	__truncdfsf2
 6530 5fb4 0320A0E1 		mov	r3, r0
 6531 5fb8 48349FE5 		str	r3, [fp, #-68]	@ float
 6532 5fbc 002083E5 		.loc 1 332 0
 317:lab.c         **** 	n_des[1] = n_des[1] *mass/(nz_eq*fsum_des);
 6533              	at
 6534 5fc0 40349FE5 		mov	r0, r3
 6535 5fc4 042093E5 		ldr	r1, [fp, #-68]	@ float
 6536 5fc8 2C349FE5 		bl	__divsf3
 6537 5fcc 003093E5 		mov	r3, r0
 6538 5fd0 0200A0E1 		mov	r5, r3
 6539 5fd4 0310A0E1 		ldr	r3, [fp, #-76]	@ float
 6540 5fd8 FEFFFFEB 		mov	r0, r3
 6541 5fdc 0030A0E1 		ldr	r1, [fp, #-68]	@ float
 6542 5fe0 0340A0E1 		bl	__divsf3
 6543 5fe4 14349FE5 		mov	r3, r0
 6544 5fe8 002093E5 		mov	r4, r3
 6545 5fec 10349FE5 		ldr	r3, [fp, #-72]	@ float
 6546 5ff0 003093E5 		mov	r0, r3
 6547 5ff4 0200A0E1 		ldr	r1, [fp, #-68]	@ float
 6548 5ff8 0310A0E1 		bl	__divsf3
 6549 5ffc FEFFFFEB 		mov	r3, r0
 6550 6000 0030A0E1 		str	r5, [fp, #-92]	@ float
 6551 6004 0400A0E1 		str	r4, [fp, #-88]	@ float
 6552 6008 0310A0E1 		str	r3, [fp, #-84]	@ float
 6553 600c FEFFFFEB 		.loc 1 333 0
 6554 6010 0030A0E1 		ldr	r3, [fp, #-80]	@ float
 6555 6014 0320A0E1 		ldr	r2, [fp, #-76]	@ float
 6556 6018 E8339FE5 		ldr	r1, [fp, #-92]	@ float
 6557 601c 042083E5 		ldr	r0, [fp, #-88]	@ float
 318:lab.c         **** 	n_des[2] = n_des[2] *mass/(nz_eq*fsum_des);
 6558              	oat
 6559 6020 E0339FE5 		str	r2, [fp, #-104]	@ float
 6560 6024 082093E5 		str	r1, [fp, #-100]	@ float
 6561 6028 CC339FE5 		str	r0, [fp, #-96]	@ float
 6562 602c 003093E5 		.loc 1 336 0
 6563 6030 0200A0E1 		ldr	r2, [fp, #-108]	@ float
 6564 6034 0310A0E1 		ldr	r3, .L30+20
 6565 6038 FEFFFFEB 		ldr	r3, [r3, #0]	@ float
 6566 603c 0030A0E1 		mov	r0, r2
 6567 6040 0340A0E1 		mov	r1, r3
 6568 6044 B4339FE5 		bl	__subsf3
 6569 6048 002093E5 		mov	r3, r0
 6570 604c B0339FE5 		str	r3, [fp, #-132]	@ float
 6571 6050 003093E5 		.loc 1 337 0
 6572 6054 0200A0E1 		ldr	r2, [fp, #-104]	@ float
 6573 6058 0310A0E1 		ldr	r3, .L30+20
 6574 605c FEFFFFEB 		ldr	r3, [r3, #4]	@ float
 6575 6060 0030A0E1 		mov	r0, r2
 6576 6064 0400A0E1 		mov	r1, r3
 6577 6068 0310A0E1 		bl	__subsf3
 6578 606c FEFFFFEB 		mov	r3, r0
 6579 6070 0030A0E1 		str	r3, [fp, #-128]	@ float
 6580 6074 0320A0E1 		.loc 1 338 0
 6581 6078 88339FE5 		ldr	r2, [fp, #-100]	@ float
 6582 607c 082083E5 		ldr	r3, .L30+20
 6583              		ldr	r3, [r3, #8]	@ float
 6584              		mov	r0, r2
 319:lab.c         **** }
 320:lab.c         **** 
 321:lab.c         **** 	/////////////////////////////////
 322:lab.c         **** 	// Begin inner loop to match the target n_des and fsum_des.
 323:lab.c         **** 	//
 324:lab.c         **** 	//
 325:lab.c         **** 	/////////////////////////////////
 326:lab.c         **** 	se[2] = n_des[0];
 6585              	ov	r3, r0
 6586 6080 80339FE5 		str	r3, [fp, #-124]	@ float
 6587 6084 002093E5 		.loc 1 339 0
 6588 6088 7C339FE5 		ldr	r2, [fp, #-96]	@ float
 6589 608c 082083E5 		ldr	r3, .L30+20
 327:lab.c         **** 	se[3] = n_des[1];
 6590              	r3, [r3, #12]	@ float
 6591 6090 70339FE5 		mov	r0, r2
 6592 6094 042093E5 		mov	r1, r3
 6593 6098 6C339FE5 		bl	__subsf3
 6594 609c 0C2083E5 		mov	r3, r0
 328:lab.c         **** 
 329:lab.c         **** 
 330:lab.c         **** 	float wB[3] = {xd[9], xd[10], xd[11]};
 6595              	r3, [fp, #-120]	@ float
 6596 60a0 68339FE5 		.loc 1 340 0
 6597 60a4 242093E5 		sub	r3, fp, #132
 6598 60a8 60339FE5 		str	r3, [sp, #0]
 6599 60ac 281093E5 		sub	r3, fp, #116
 6600 60b0 58339FE5 		str	r3, [sp, #4]
 6601 60b4 2C3093E5 		mov	r0, #2
 6602 60b8 50200BE5 		mov	r1, #4
 6603 60bc 4C100BE5 		mov	r2, #1
 6604 60c0 48300BE5 		ldr	r3, .L30+28
 331:lab.c         **** 	float wBnorm = sqrt(wB[0]*wB[0] + wB[1]*wB[1] + wB[2]*wB[2]);
 6605              	_multiply
 6606 60c4 50301BE5 		.loc 1 341 0
 6607 60c8 50201BE5 		ldr	r3, .L30+32
 6608 60cc 0300A0E1 		ldr	r3, [r3, #0]	@ float
 6609 60d0 0210A0E1 		ldr	r2, [fp, #-116]	@ float
 6610 60d4 FEFFFFEB 		mov	r0, r3
 6611 60d8 0030A0E1 		mov	r1, r2
 6612 60dc 0340A0E1 		bl	__subsf3
 6613 60e0 4C301BE5 		mov	r3, r0
 6614 60e4 4C201BE5 		str	r3, [fp, #-116]	@ float
 6615 60e8 0300A0E1 		.loc 1 342 0
 6616 60ec 0210A0E1 		ldr	r3, .L30+32
 6617 60f0 FEFFFFEB 		ldr	r3, [r3, #4]	@ float
 6618 60f4 0030A0E1 		ldr	r2, [fp, #-112]	@ float
 6619 60f8 0400A0E1 		mov	r0, r3
 6620 60fc 0310A0E1 		mov	r1, r2
 6621 6100 FEFFFFEB 		bl	__subsf3
 6622 6104 0030A0E1 		mov	r3, r0
 6623 6108 0340A0E1 		str	r3, [fp, #-112]	@ float
 6624 610c 48301BE5 		.loc 1 343 0
 6625 6110 48201BE5 		ldr	r3, [fp, #-112]	@ float
 6626 6114 0300A0E1 		str	r3, [fp, #-64]	@ float
 6627 6118 0210A0E1 		.loc 1 344 0
 6628 611c FEFFFFEB 		ldr	r2, [fp, #-116]	@ float
 6629 6120 0030A0E1 		ldr	r3, .L30+12
 6630 6124 0400A0E1 		ldr	r3, [r3, #0]	@ float
 6631 6128 0310A0E1 		mov	r0, r2
 6632 612c FEFFFFEB 		mov	r1, r3
 6633 6130 0030A0E1 		bl	__addsf3
 6634 6134 0300A0E1 		mov	r3, r0
 6635 6138 FEFFFFEB 		mov	r0, r3
 6636 613c 0030A0E1 		ldr	r1, [fp, #-60]	@ float
 6637 6140 0140A0E1 		bl	__subsf3
 6638 6144 0300A0E1 		mov	r3, r0
 6639 6148 0410A0E1 		mov	r0, r3
 6640 614c FEFFFFEB 		ldr	r1, .L30+36	@ float
 6641 6150 0030A0E1 		bl	__mulsf3
 6642 6154 0140A0E1 		mov	r3, r0
 6643 6158 0300A0E1 		str	r3, [fp, #-60]	@ float
 6644 615c 0410A0E1 		.loc 1 345 0
 6645 6160 FEFFFFEB 		ldr	r3, .L30+12
 6646 6164 0030A0E1 		ldr	r3, [r3, #0]	@ float
 6647 6168 44300BE5 		mov	r0, r3
 332:lab.c         **** 	float n[3] = {wB[0]/wBnorm, wB[1]/wBnorm, wB[2]/wBnorm}; //equilibrihum offsets messing things up?
 6648              	ov	r3, r0
 6649 616c 50301BE5 		mov	r0, r3
 6650 6170 0300A0E1 		ldr	r1, [fp, #-64]	@ float
 6651 6174 44101BE5 		bl	__subsf3
 6652 6178 FEFFFFEB 		mov	r3, r0
 6653 617c 0030A0E1 		str	r3, [fp, #-56]	@ float
 6654 6180 0350A0E1 		.loc 1 347 0
 6655 6184 4C301BE5 		ldr	r3, .L30+40
 6656 6188 0300A0E1 		ldr	r3, [r3, #0]	@ float
 6657 618c 44101BE5 		ldr	r0, [fp, #-56]	@ float
 6658 6190 FEFFFFEB 		mov	r1, r3
 6659 6194 0030A0E1 		bl	__divsf3
 6660 6198 0340A0E1 		mov	r3, r0
 6661 619c 48301BE5 		mov	r2, r3
 6662 61a0 0300A0E1 		ldr	r3, .L30+44
 6663 61a4 44101BE5 		str	r2, [r3, #0]	@ float
 6664 61a8 FEFFFFEB 		.loc 1 348 0
 6665 61ac 0030A0E1 		ldr	r3, .L30+40
 6666 61b0 5C500BE5 		ldr	r3, [r3, #0]	@ float
 6667 61b4 58400BE5 		ldr	r0, [fp, #-64]	@ float
 6668 61b8 54300BE5 		mov	r1, r3
 333:lab.c         **** 	float si[4] = {wB[0], wB[1], n[0], n[1]};
 6669              	 r0
 6670 61bc 50301BE5 		mov	r2, r3
 6671 61c0 4C201BE5 		ldr	r3, .L30+44
 6672 61c4 5C101BE5 		str	r2, [r3, #4]	@ float
 6673 61c8 58001BE5 		.loc 1 349 0
 6674 61cc 6C300BE5 		ldr	r3, .L30+40
 6675 61d0 68200BE5 		ldr	r3, [r3, #0]	@ float
 6676 61d4 64100BE5 		ldr	r0, [fp, #-60]	@ float
 6677 61d8 60000BE5 		mov	r1, r3
 334:lab.c         **** 	float u_desired[2];
 335:lab.c         **** 	float si_less_se[4];
 336:lab.c         **** 	si_less_se[0] = si[0]-se[0];
 6678              	sf3
 6679 61dc 6C201BE5 		mov	r3, r0
 6680 61e0 24329FE5 		mov	r2, r3
 6681 61e4 003093E5 		ldr	r3, .L30+44
 6682 61e8 0200A0E1 		str	r2, [r3, #8]	@ float
 6683 61ec 0310A0E1 		.loc 1 350 0
 6684 61f0 FEFFFFEB 		ldr	r2, .L30+44
 6685 61f4 0030A0E1 		ldr	r3, .L30+36	@ float
 6686 61f8 84300BE5 		str	r3, [r2, #12]	@ float
 337:lab.c         **** 	si_less_se[1] = si[1]-se[1];
 6687              	56 0
 6688 61fc 68201BE5 		ldr	r3, .L30+44
 6689 6200 04329FE5 		ldr	r2, [r3, #0]	@ float
 6690 6204 043093E5 		ldr	r3, .L30+48
 6691 6208 0200A0E1 		str	r2, [r3, #0]	@ float
 6692 620c 0310A0E1 		.loc 1 357 0
 6693 6210 FEFFFFEB 		ldr	r3, .L30+44
 6694 6214 0030A0E1 		ldr	r2, [r3, #4]	@ float
 6695 6218 80300BE5 		ldr	r3, .L30+48
 338:lab.c         **** 	si_less_se[2] = si[2]-se[2];
 6696              	[r3, #4]	@ float
 6697 621c 64201BE5 		.loc 1 358 0
 6698 6220 E4319FE5 		ldr	r3, .L30+44
 6699 6224 083093E5 		ldr	r2, [r3, #8]	@ float
 6700 6228 0200A0E1 		ldr	r3, .L30+48
 6701 622c 0310A0E1 		str	r2, [r3, #8]	@ float
 6702 6230 FEFFFFEB 		.loc 1 359 0
 6703 6234 0030A0E1 		ldr	r3, .L30+44
 6704 6238 7C300BE5 		ldr	r2, [r3, #12]	@ float
 339:lab.c         **** 	si_less_se[3] = si[3]-se[3];
 6705              	.L30+48
 6706 623c 60201BE5 		str	r2, [r3, #12]	@ float
 6707 6240 C4319FE5 		.loc 1 362 0
 6708 6244 0C3093E5 		sub	sp, fp, #40
 6709 6248 0200A0E1 		ldmfd	sp, {r4, r5, r6, r7, r8, r9, sl, fp, sp, lr}
 6710 624c 0310A0E1 		bx	lr
 6711 6250 FEFFFFEB 	.L31:
 6712 6254 0030A0E1 		.align	2
 6713 6258 78300BE5 	.L30:
 340:lab.c         **** 	matrix_multiply(2,4,1,K_i,si_less_se,u_desired);
 6714              	26.3315
 6715 625c 84304BE2 		.word	mass
 6716 6260 00308DE5 		.word	nz_eq
 6717 6264 74304BE2 		.word	fsum_des
 6718 6268 04308DE5 		.word	n_des
 6719 626c 0200A0E3 		.word	se
 6720 6270 0410A0E3 		.word	xd
 6721 6274 0120A0E3 		.word	K_i
 6722 6278 94319FE5 		.word	ue
 6723 627c FEFFFFEB 		.word	0
 341:lab.c         **** 	u_desired[0] = -u_desired[0] + ue[0];
 6724              		.word	cnt_u
 6725 6280 90319FE5 		.word	u
 6726 6284 003093E5 	.LFE4:
 6728 628c 0300A0E1 		.global	__gtsf2
 6729 6290 0210A0E1 		.global	__ltsf2
 6730 6294 FEFFFFEB 		.global	__fixunssfsi
 6731 6298 0030A0E1 		.align	2
 6732 629c 74300BE5 		.global	convert_input_to_motor_commands
 342:lab.c         **** 	u_desired[1] = -u_desired[1] + ue[1];
 6733              	nvert_input_to_motor_commands, %function
 6734 62a0 70319FE5 	convert_input_to_motor_commands:
 6735 62a4 043093E5 	.LFB5:
 6736 62a8 70201BE5 		.loc 1 368 0
 6737 62ac 0300A0E1 		@ Function supports interworking.
 6738 62b0 0210A0E1 		@ args = 0, pretend = 0, frame = 4
 6739 62b4 FEFFFFEB 		@ frame_needed = 1, uses_anonymous_args = 0
 6740 62b8 0030A0E1 		mov	ip, sp
 6741 62bc 70300BE5 	.LCFI11:
 343:lab.c         **** 	float f2 = u_desired[1];
 6742              	!, {r4, r5, fp, ip, lr, pc}
 6743 62c0 70301BE5 	.LCFI12:
 6744 62c4 40300BE5 		sub	fp, ip, #4
 344:lab.c         **** 	float f3 = 1/2 * (fsum_des + u_desired[0] - f3);
 6745              	FI13:
 6746 62c8 74201BE5 		sub	sp, sp, #4
 6747 62cc 30319FE5 	.LCFI14:
 6748 62d0 003093E5 		.loc 1 370 0
 6749 62d4 0200A0E1 		ldr	r2, .L48+16
 6750 62d8 0310A0E1 		mov	r3, #0
 6751 62dc FEFFFFEB 		strb	r3, [r2, #0]
 6752 62e0 0030A0E1 		.loc 1 376 0
 6753 62e4 0300A0E1 		ldr	r2, .L48+16
 6754 62e8 3C101BE5 		mov	r3, #1
 6755 62ec FEFFFFEB 		strb	r3, [r2, #1]
 6756 62f0 0030A0E1 		.loc 1 408 0
 6757 62f4 0300A0E1 		mov	r3, #0
 6758 62f8 1C119FE5 		str	r3, [fp, #-24]
 6759 62fc FEFFFFEB 		b	.L33
 6760 6300 0030A0E1 	.L34:
 6761 6304 3C300BE5 		.loc 1 409 0
 345:lab.c         **** 	float f1 = fsum_des - f3 - f2;
 6762              	4]
 6763 6308 F4309FE5 		ldr	r3, .L48+20
 6764 630c 003093E5 		ldr	r2, [r3, r2, asl #2]	@ float
 6765 6310 0300A0E1 		ldr	r3, .L48+24
 6766 6314 3C101BE5 		ldr	r3, [r3, #0]	@ float
 6767 6318 FEFFFFEB 		mov	r0, r2
 6768 631c 0030A0E1 		mov	r1, r3
 6769 6320 0300A0E1 		bl	__gtsf2
 6770 6324 40101BE5 		mov	r3, r0
 6771 6328 FEFFFFEB 		cmp	r3, #0
 6772 632c 0030A0E1 		bgt	.L37
 6773 6330 38300BE5 		b	.L35
 346:lab.c         **** 
 347:lab.c         **** 	cnt_u[0] = f1/kF;
 6774              	1 410 0
 6775 6334 E4309FE5 		ldr	r1, [fp, #-24]
 6776 6338 003093E5 		ldr	r3, .L48+24
 6777 633c 38001BE5 		ldr	r2, [r3, #0]	@ float
 6778 6340 0310A0E1 		ldr	r3, .L48+20
 6779 6344 FEFFFFEB 		str	r2, [r3, r1, asl #2]	@ float
 6780 6348 0030A0E1 	.L35:
 6781 634c 0320A0E1 		.loc 1 415 0
 6782 6350 CC309FE5 		ldr	r5, [fp, #-24]
 6783 6354 002083E5 		ldr	r2, [fp, #-24]
 348:lab.c         **** 	cnt_u[1] = f2/kF;
 6784              	L48+20
 6785 6358 C0309FE5 		ldr	r3, [r3, r2, asl #2]	@ float
 6786 635c 003093E5 		mov	r0, r3
 6787 6360 40001BE5 		bl	__extendsfdf2
 6788 6364 0310A0E1 		mov	r3, r0
 6789 6368 FEFFFFEB 		mov	r4, r1
 6790 636c 0030A0E1 		mov	r0, r3
 6791 6370 0320A0E1 		mov	r1, r4
 6792 6374 A8309FE5 		bl	sqrt
 6793 6378 042083E5 		mov	r3, r0
 349:lab.c         **** 	cnt_u[2] = f3/kF;
 6794              	1
 6795 637c 9C309FE5 		mov	r0, r3
 6796 6380 003093E5 		mov	r1, r4
 6797 6384 3C001BE5 		bl	__truncdfsf2
 6798 6388 0310A0E1 		mov	r2, r0
 6799 638c FEFFFFEB 		ldr	r3, .L48+28
 6800 6390 0030A0E1 		str	r2, [r3, r5, asl #2]	@ float
 6801 6394 0320A0E1 		.loc 1 418 0
 6802 6398 84309FE5 		ldr	r5, [fp, #-24]
 6803 639c 082083E5 		ldr	r2, [fp, #-24]
 350:lab.c         **** 	cnt_u[3] = 0;
 6804              	L48+28
 6805 63a0 7C209FE5 		ldr	r3, [r3, r2, asl #2]	@ float
 6806 63a4 70309FE5 		mov	r0, r3
 6807 63a8 0C3082E5 		bl	__extendsfdf2
 351:lab.c         **** 
 352:lab.c         **** 	////////////////////////
 353:lab.c         ****     // DO NOT MODIFY
 354:lab.c         ****     //
 355:lab.c         **** 	// Store result
 356:lab.c         **** 	u.u1 = cnt_u[0];
 6808              		r3, r0
 6809 63ac 70309FE5 		mov	r4, r1
 6810 63b0 002093E5 		mov	r0, r3
 6811 63b4 6C309FE5 		mov	r1, r4
 6812 63b8 002083E5 		adr	r2, .L48
 357:lab.c         **** 	u.u2 = cnt_u[1];
 6813              	a	r2, {r2-r3}
 6814 63bc 60309FE5 		bl	__muldf3
 6815 63c0 042093E5 		mov	r3, r0
 6816 63c4 5C309FE5 		mov	r4, r1
 6817 63c8 042083E5 		mov	r0, r3
 358:lab.c         **** 	u.u3 = cnt_u[2];
 6818              	r1, r4
 6819 63cc 50309FE5 		adr	r2, .L48+8
 6820 63d0 082093E5 		ldmia	r2, {r2-r3}
 6821 63d4 4C309FE5 		bl	__subdf3
 6822 63d8 082083E5 		mov	r3, r0
 359:lab.c         **** 	u.u4 = cnt_u[3];
 6823              	r4, r1
 6824 63dc 40309FE5 		mov	r0, r3
 6825 63e0 0C2093E5 		mov	r1, r4
 6826 63e4 3C309FE5 		bl	__truncdfsf2
 6827 63e8 0C2083E5 		mov	r2, r0
 360:lab.c         ****     //
 361:lab.c         ****     ////////////////////////
 362:lab.c         **** }
 6828              	r3, .L48+32
 6829 63ec 28D04BE2 		str	r2, [r3, r5, asl #2]	@ float
 6830 63f0 F06F9DE8 		.loc 1 425 0
 6831 63f4 1EFF2FE1 		ldr	r2, [fp, #-24]
 6832              		ldr	r3, .L48+32
 6833              		ldr	r3, [r3, r2, asl #2]	@ float
 6834              		mov	r0, r3
 6835 63f8 00000000 		ldr	r1, .L48+36	@ float
 6836 63fc 00000000 		bl	__ltsf2
 6837 6400 00000000 		mov	r3, r0
 6838 6404 00000000 		cmp	r3, #0
 6839 6408 00000000 		blt	.L40
 6840 640c 00000000 		b	.L38
 6841 6410 00000000 	.L40:
 6842 6414 00000000 		.loc 1 426 0
 6843 6418 00000000 		ldr	r1, [fp, #-24]
 6844 641c 00000000 		ldr	r2, .L48+32
 6845 6420 00000000 		ldr	r3, .L48+36	@ float
 6846 6424 00000000 		str	r3, [r2, r1, asl #2]	@ float
 6847 6428 00000000 		.loc 1 427 0
 6848              		ldr	r3, [fp, #-24]
 6849              		cmp	r3, #3
 6850              		bne	.L43
 6851              		.loc 1 429 0
 6852              		ldr	r1, [fp, #-24]
 6853              		ldr	r2, .L48+32
 6854              		ldr	r3, .L48+40	@ float
 6855              		str	r3, [r2, r1, asl #2]	@ float
 6856              		b	.L43
 6857              	.L38:
 363:lab.c         **** /*------------ End Lab 3 ------------*/
 364:lab.c         **** 
 365:lab.c         **** /*------------ End Controller ------------*/
 366:lab.c         **** 
 367:lab.c         **** /*---------------- Command ---------------*/
 368:lab.c         **** void convert_input_to_motor_commands() {
 6858              	24]
 6859              		ldr	r3, .L48+32
 6860              		ldr	r3, [r3, r2, asl #2]	@ float
 6861              		mov	r0, r3
 6862 642c 0DC0A0E1 		ldr	r1, .L48+44	@ float
 6863              		bl	__gtsf2
 6864 6430 30D82DE9 		mov	r3, r0
 6865              		cmp	r3, #0
 6866 6434 04B04CE2 		bgt	.L45
 6867              		b	.L43
 6868 6438 04D04DE2 	.L45:
 6869              		.loc 1 433 0
 369:lab.c         **** 	/////////////// Controller Settings ////////////
 370:lab.c         **** 	WO_SDK.ctrl_mode=0x00;  //0x00: direct individual motor control (individual commands for motors 0.
 6870              	, #-24]
 6871 643c 4C229FE5 		ldr	r2, .L48+32
 6872 6440 0030A0E3 		ldr	r3, .L48+44	@ float
 6873 6444 0030C2E5 		str	r3, [r2, r1, asl #2]	@ float
 371:lab.c         **** 				//0x01: direct motor control using standard output mapping: commands are interpreted as pitch, 
 372:lab.c         **** 				//      and thrust inputs; no attitude controller active
 373:lab.c         **** 				//0x02: attitude and throttle control: commands are input for standard attitude controller
 374:lab.c         **** 				//0x03: GPS waypoint control
 375:lab.c         **** 
 376:lab.c         **** 	WO_SDK.ctrl_enabled=1;	//0: disable control by HL processor
 6874              	:
 6875 6448 40229FE5 		.loc 1 408 0
 6876 644c 0130A0E3 		ldr	r3, [fp, #-24]
 6877 6450 0130C2E5 		add	r3, r3, #1
 377:lab.c         **** 				//1: enable control by HL processor
 378:lab.c         **** 	////////////////////////////////////////////////
 379:lab.c         **** 
 380:lab.c         **** 	//////// Translate commanded torques and thrust into rotor speed and commands ////////////
 381:lab.c         **** 	// NOTE METHOD BELOW ASSUMES THAT CG IS IN THE SAME PLANE AS THE ROTORS
 382:lab.c         **** 	/*
 383:lab.c         **** 	float twolkF = 1.0/(2.0*l*kF);
 384:lab.c         **** 	float fourkF = 1.0/(4.0*kF);
 385:lab.c         **** 	float fourkM = 1.0/(4.0*kM);
 386:lab.c         **** 
 387:lab.c         **** 
 388:lab.c         **** 	Winv[0] = 0;
 389:lab.c         **** 	Winv[1] = twolkF;
 390:lab.c         **** 	Winv[2] = -fourkM;
 391:lab.c         **** 	Winv[3] = fourkF;
 392:lab.c         **** 	Winv[1*4+0] = -twolkF;
 393:lab.c         **** 	Winv[1*4+1] = 0;
 394:lab.c         **** 	Winv[1*4+2] = fourkM;
 395:lab.c         **** 	Winv[1*4+3] = fourkF;
 396:lab.c         **** 	Winv[2*4+0] = 0;
 397:lab.c         **** 	Winv[2*4+1] = -twolkF;
 398:lab.c         **** 	Winv[2*4+2] = -fourkM;
 399:lab.c         **** 	Winv[2*4+3] = fourkF;
 400:lab.c         **** 	Winv[3*4+0] = twolkF;
 401:lab.c         **** 	Winv[3*4+1] = 0;
 402:lab.c         **** 	Winv[3*4+2] = fourkM;
 403:lab.c         **** 	Winv[3*4+3] = fourkF;
 404:lab.c         **** 
 405:lab.c         **** 	matrix_multiply(4,4,1,Winv,cnt_u,omega_cmd2);
 406:lab.c         **** 	 */
 407:lab.c         **** 	int i;
 408:lab.c         **** 	for (i=0; i<4; i++) {
 6878              		r3, [fp, #-24]
 6879 6454 0030A0E3 	.L33:
 6880 6458 18300BE5 		ldr	r3, [fp, #-24]
 6881 645c 660000EA 		cmp	r3, #3
 6882              		ble	.L34
 409:lab.c         **** 		if (omega_cmd2[i] > MAXPHI2) {
 6883              	 1 439 0
 6884 6460 18201BE5 		ldr	r3, .L48+32
 6885 6464 28329FE5 		ldr	r3, [r3, #0]	@ float
 6886 6468 022193E7 		mov	r0, r3
 6887 646c 24329FE5 		bl	__fixunssfsi
 6888 6470 003093E5 		mov	r3, r0
 6889 6474 0200A0E1 		and	r3, r3, #255
 6890 6478 0310A0E1 		ldr	r2, .L48+48
 6891 647c FEFFFFEB 		strb	r3, [r2, #0]
 6892 6480 0030A0E1 		.loc 1 440 0
 6893 6484 000053E3 		ldr	r3, .L48+32
 6894 6488 000000CA 		ldr	r3, [r3, #4]	@ float
 6895 648c 040000EA 		mov	r0, r3
 6896              		bl	__fixunssfsi
 410:lab.c         **** 			omega_cmd2[i] = MAXPHI2;
 6897              	nd	r3, r3, #255
 6898 6490 18101BE5 		ldr	r2, .L48+48
 6899 6494 FC319FE5 		strb	r3, [r2, #3]
 6900 6498 002093E5 		.loc 1 441 0
 6901 649c F0319FE5 		ldr	r3, .L48+32
 6902 64a0 012183E7 		ldr	r3, [r3, #8]	@ float
 6903              		mov	r0, r3
 411:lab.c         **** 		}
 412:lab.c         **** 		//else if (omega_cmd2[i] < MINPHI2) {
 413:lab.c         **** 		//	omega_cmd2[i] = MINPHI2;
 414:lab.c         **** 		//}
 415:lab.c         **** 		omega_cmd[i] = sqrt(omega_cmd2[i]);
 6904              	ixunssfsi
 6905 64a4 18501BE5 		mov	r3, r0
 6906 64a8 18201BE5 		and	r3, r3, #255
 6907 64ac E0319FE5 		ldr	r2, .L48+48
 6908 64b0 023193E7 		strb	r3, [r2, #1]
 6909 64b4 0300A0E1 		.loc 1 442 0
 6910 64b8 FEFFFFEB 		ldr	r2, .L48+48
 6911 64bc 0030A0E1 		mov	r3, #0
 6912 64c0 0140A0E1 		strb	r3, [r2, #2]
 6913 64c4 0300A0E1 		.loc 1 444 0
 6914 64c8 0410A0E1 		sub	sp, fp, #20
 6915 64cc FEFFFFEB 		ldmfd	sp, {r4, r5, fp, sp, lr}
 6916 64d0 0030A0E1 		bx	lr
 6917 64d4 0140A0E1 	.L49:
 6918 64d8 0300A0E1 		.align	2
 6919 64dc 0410A0E1 	.L48:
 6920 64e0 FEFFFFEB 		.word	1070499056
 6921 64e4 0020A0E1 		.word	-1792478831
 6922 64e8 AC319FE5 		.word	1077534565
 6923 64ec 052183E7 		.word	2001935796
 416:lab.c         **** 		// Translate Desired Rotor Speed into Motor Commands
 417:lab.c         **** 		// NOTE: THIS IS FOR THE PELICAN
 418:lab.c         **** 		cmd[i] = 0.238432*omega_cmd[i] - 25.872642;	// Verify
 6924              		omega_cmd2
 6925 64f0 18501BE5 		.word	MAXPHI2
 6926 64f4 18201BE5 		.word	omega_cmd
 6927 64f8 9C319FE5 		.word	cmd
 6928 64fc 023193E7 		.word	1065353216
 6929 6500 0300A0E1 		.word	0
 6930 6504 FEFFFFEB 		.word	1128792064
 6931 6508 0030A0E1 		.word	WO_Direct_Individual_Motor_Control
 6932 650c 0140A0E1 	.LFE5:
 6934 6514 0410A0E1 		.comm	GPS_timeout,4,4
 6935 6518 162E8FE2 		.comm	SYSTEM_initialized,1,1
 6936 651c 0C0092E8 		.comm	imusensor,68,4
 6937 6520 FEFFFFEB 		.comm	mocap,44,4
 6938 6524 0030A0E1 		.comm	takeoff2,4,4
 6939 6528 0140A0E1 		.comm	initialize,4,4
 6940 652c 0300A0E1 		.comm	velocityEstHolder,4,4
 6941 6530 0410A0E1 		.comm	VelEstX,4,4
 6942 6534 532F8FE2 		.comm	VelEstY,4,4
 6943 6538 0C0092E8 		.comm	VelEstZ,4,4
 6944 653c FEFFFFEB 		.comm	previousXMeas,4,4
 6945 6540 0030A0E1 		.comm	previousYMeas,4,4
 6946 6544 0140A0E1 		.comm	previousZMeas,4,4
 6947 6548 0300A0E1 		.comm	errorcum,12,4
 6948 654c 0410A0E1 		.comm	IntegralHolder,4,4
 6949 6550 FEFFFFEB 		.comm	u,16,4
 6950 6554 0020A0E1 		.comm	goalposyaw,16,4
 6951 6558 40319FE5 		.comm	cnt_u,16,4
 6952 655c 052183E7 		.comm	o_desired,12,4
 419:lab.c         **** 
 420:lab.c         **** 		// Below is a safety measure. We want to make sure the motor
 421:lab.c         **** 		// commands are never 0 so that the motors will always keep
 422:lab.c         **** 		// spinning. Also makes sure that motor commands stay within range.
 423:lab.c         **** 		// NOTE: THIS SHOULD BE UNNECESSARY. I IMPLEMENTED THIS AS AN EXTRA
 424:lab.c         **** 		// SAFETY MEASURE
 425:lab.c         **** 		if (cmd[i] < 1.0) {
 6953              		xd,48,4
 6954 6560 18201BE5 		.comm	xe,48,4
 6955 6564 34319FE5 		.comm	fsum_des,4,4
 6956 6568 023193E7 		.comm	n_des,12,4
 6957 656c 0300A0E1 		.comm	Winv,64,4
 6958 6570 2C119FE5 		.comm	omega_cmd2,16,4
 6959 6574 FEFFFFEB 		.comm	omega_cmd,16,4
 6960 6578 0030A0E1 		.comm	cmd,16,4
 6961 657c 000053E3 		.section	.debug_frame,"",%progbits
 6962 6580 000000BA 	.Lframe0:
 6963 6584 0B0000EA 		.4byte	.LECIE0-.LSCIE0
 6964              	.LSCIE0:
 426:lab.c         **** 			cmd[i] = 1.0;
 6965              	ffffff
 6966 6588 18101BE5 		.byte	0x1
 6967 658c 0C219FE5 		.ascii	"\000"
 6968 6590 0C319FE5 		.uleb128 0x1
 6969 6594 013182E7 		.sleb128 -4
 427:lab.c         **** 			if(i==3)
 6970              	e	0xe
 6971 6598 18301BE5 		.byte	0xc
 6972 659c 030053E3 		.uleb128 0xd
 6973 65a0 1200001A 		.uleb128 0x0
 428:lab.c         **** 			{
 429:lab.c         **** 				cmd[i] = 0;
 6974              	ign	2
 6975 65a4 18101BE5 	.LECIE0:
 6976 65a8 F0209FE5 	.LSFDE0:
 6977 65ac F4309FE5 		.4byte	.LEFDE0-.LASFDE0
 6978 65b0 013182E7 	.LASFDE0:
 6979 65b4 0D0000EA 		.4byte	.Lframe0
 6980              		.4byte	.LFB2
 430:lab.c         **** 			}
 431:lab.c         **** 		}
 432:lab.c         **** 		else if (cmd[i] > 200.0) {
 6981              		.LFE2-.LFB2
 6982 65b8 18201BE5 		.byte	0x4
 6983 65bc DC309FE5 		.4byte	.LCFI0-.LFB2
 6984 65c0 023193E7 		.byte	0xd
 6985 65c4 0300A0E1 		.uleb128 0xc
 6986 65c8 DC109FE5 		.byte	0x4
 6987 65cc FEFFFFEB 		.4byte	.LCFI1-.LCFI0
 6988 65d0 0030A0E1 		.byte	0x8e
 6989 65d4 000053E3 		.uleb128 0x2
 6990 65d8 000000CA 		.byte	0x8d
 6991 65dc 030000EA 		.uleb128 0x3
 6992              		.byte	0x8b
 433:lab.c         **** 			cmd[i] = 200.0;
 6993              	4
 6994 65e0 18101BE5 		.byte	0x4
 6995 65e4 B4209FE5 		.4byte	.LCFI2-.LCFI1
 6996 65e8 BC309FE5 		.byte	0xc
 6997 65ec 013182E7 		.uleb128 0xb
 6998              		.uleb128 0x4
 6999              		.align	2
 7000 65f0 18301BE5 	.LEFDE0:
 7001 65f4 013083E2 	.LSFDE2:
 7002 65f8 18300BE5 		.4byte	.LEFDE2-.LASFDE2
 7003              	.LASFDE2:
 7004 65fc 18301BE5 		.4byte	.Lframe0
 7005 6600 030053E3 		.4byte	.LFB3
 7006 6604 95FFFFDA 		.4byte	.LFE3-.LFB3
 434:lab.c         **** 		}
 435:lab.c         **** 	}
 436:lab.c         **** 	/////////////////////////////////////////////////////////////////////////////////////////////
 437:lab.c         **** 
 438:lab.c         **** 	/////// Send Motor Commands ///////////
 439:lab.c         **** 	WO_Direct_Individual_Motor_Control.motor[0] = cmd[0];
 7007              	byte	.LCFI3-.LFB3
 7008 6608 90309FE5 		.byte	0xd
 7009 660c 003093E5 		.uleb128 0xc
 7010 6610 0300A0E1 		.byte	0x4
 7011 6614 FEFFFFEB 		.4byte	.LCFI4-.LCFI3
 7012 6618 0030A0E1 		.byte	0x8e
 7013 661c FF3003E2 		.uleb128 0x2
 7014 6620 88209FE5 		.byte	0x8d
 7015 6624 0030C2E5 		.uleb128 0x3
 440:lab.c         **** 	WO_Direct_Individual_Motor_Control.motor[3] = cmd[1];
 7016              	8b
 7017 6628 70309FE5 		.uleb128 0x4
 7018 662c 043093E5 		.byte	0x84
 7019 6630 0300A0E1 		.uleb128 0x5
 7020 6634 FEFFFFEB 		.byte	0x4
 7021 6638 0030A0E1 		.4byte	.LCFI5-.LCFI4
 7022 663c FF3003E2 		.byte	0xc
 7023 6640 68209FE5 		.uleb128 0xb
 7024 6644 0330C2E5 		.uleb128 0x4
 441:lab.c         **** 	WO_Direct_Individual_Motor_Control.motor[1] = cmd[2];
 7025              	
 7026 6648 50309FE5 	.LEFDE2:
 7027 664c 083093E5 	.LSFDE4:
 7028 6650 0300A0E1 		.4byte	.LEFDE4-.LASFDE4
 7029 6654 FEFFFFEB 	.LASFDE4:
 7030 6658 0030A0E1 		.4byte	.Lframe0
 7031 665c FF3003E2 		.4byte	.LFB4
 7032 6660 48209FE5 		.4byte	.LFE4-.LFB4
 7033 6664 0130C2E5 		.byte	0x4
 442:lab.c         **** 	WO_Direct_Individual_Motor_Control.motor[2] = 0;//cmd[3];
 7034              	.LCFI7-.LFB4
 7035 6668 40209FE5 		.byte	0xd
 7036 666c 0030A0E3 		.uleb128 0xc
 7037 6670 0230C2E5 		.byte	0x4
 443:lab.c         **** 	///////////////////////////////////////
 444:lab.c         **** }
 7038              	yte	.LCFI8-.LCFI7
 7039 6674 14D04BE2 		.byte	0x8e
 7040 6678 30689DE8 		.uleb128 0x2
 7041 667c 1EFF2FE1 		.byte	0x8d
 7042              		.uleb128 0x3
 7043              		.byte	0x8b
 7044              		.uleb128 0x4
 7045 6680 F084CE3F 		.byte	0x8a
 7046 6684 91F12895 		.uleb128 0x5
 7047 6688 65DF3940 		.byte	0x89
 7048 668c B41D5377 		.uleb128 0x6
 7049 6690 00000000 		.byte	0x88
 7050 6694 00000000 		.uleb128 0x7
 7051 6698 00000000 		.byte	0x87
 7052 669c 00000000 		.uleb128 0x8
 7053 66a0 00000000 		.byte	0x86
 7054 66a4 0000803F 		.uleb128 0x9
 7055 66a8 00000000 		.byte	0x85
 7056 66ac 00004843 		.uleb128 0xa
 7057 66b0 00000000 		.byte	0x84
 7058              		.uleb128 0xb
 7059              		.byte	0x4
 7060              		.4byte	.LCFI9-.LCFI8
 7061              		.byte	0xc
 7062              		.uleb128 0xb
 7063              		.uleb128 0x4
 7064              		.align	2
 7065              	.LEFDE4:
 7066              	.LSFDE6:
 7067              		.4byte	.LEFDE6-.LASFDE6
 7068              	.LASFDE6:
 7069              		.4byte	.Lframe0
 7070              		.4byte	.LFB5
 7071              		.4byte	.LFE5-.LFB5
 7072              		.byte	0x4
 7073              		.4byte	.LCFI11-.LFB5
 7074              		.byte	0xd
 7075              		.uleb128 0xc
 7076              		.byte	0x4
 7077              		.4byte	.LCFI12-.LCFI11
 7078              		.byte	0x8e
 7079              		.uleb128 0x2
 7080              		.byte	0x8d
 7081              		.uleb128 0x3
 7082              		.byte	0x8b
 7083              		.uleb128 0x4
 7084              		.byte	0x85
 7085              		.uleb128 0x5
 7086              		.byte	0x84
 7087              		.uleb128 0x6
 7228              		.ascii	"unsigned char\000"
DEFINED SYMBOLS
                            *ABS*:00000000 lab.c
C:\Users\atnguye2\AppData\Local\Temp/cc2Zdaaa.s:15     .data:00000000 mass
C:\Users\atnguye2\AppData\Local\Temp/cc2Zdaaa.s:16     .data:00000000 $d
C:\Users\atnguye2\AppData\Local\Temp/cc2Zdaaa.s:21     .data:00000004 kF
C:\Users\atnguye2\AppData\Local\Temp/cc2Zdaaa.s:27     .data:00000008 kM
C:\Users\atnguye2\AppData\Local\Temp/cc2Zdaaa.s:33     .data:0000000c l
C:\Users\atnguye2\AppData\Local\Temp/cc2Zdaaa.s:39     .data:00000010 MAXPHI2
C:\Users\atnguye2\AppData\Local\Temp/cc2Zdaaa.s:45     .data:00000014 MINPHI2
C:\Users\atnguye2\AppData\Local\Temp/cc2Zdaaa.s:51     .data:00000018 K_d
C:\Users\atnguye2\AppData\Local\Temp/cc2Zdaaa.s:57     .data:0000001c K_p
C:\Users\atnguye2\AppData\Local\Temp/cc2Zdaaa.s:63     .data:00000020 K_i
C:\Users\atnguye2\AppData\Local\Temp/cc2Zdaaa.s:77     .bss:00000000 v_desired
C:\Users\atnguye2\AppData\Local\Temp/cc2Zdaaa.s:84     .data:00000040 g
C:\Users\atnguye2\AppData\Local\Temp/cc2Zdaaa.s:91     .bss:0000000c outter_count
C:\Users\atnguye2\AppData\Local\Temp/cc2Zdaaa.s:98     .data:00000044 epsilon_eq
C:\Users\atnguye2\AppData\Local\Temp/cc2Zdaaa.s:104    .data:00000048 nx_eq
C:\Users\atnguye2\AppData\Local\Temp/cc2Zdaaa.s:111    .bss:00000010 ny_eq
C:\Users\atnguye2\AppData\Local\Temp/cc2Zdaaa.s:118    .data:0000004c nz_eq
C:\Users\atnguye2\AppData\Local\Temp/cc2Zdaaa.s:124    .data:00000050 p_eq
C:\Users\atnguye2\AppData\Local\Temp/cc2Zdaaa.s:131    .bss:00000014 q_eq
C:\Users\atnguye2\AppData\Local\Temp/cc2Zdaaa.s:138    .data:00000054 r_eq
C:\Users\atnguye2\AppData\Local\Temp/cc2Zdaaa.s:145    .bss:00000018 pd_eq
C:\Users\atnguye2\AppData\Local\Temp/cc2Zdaaa.s:151    .bss:0000001c qd_eq
C:\Users\atnguye2\AppData\Local\Temp/cc2Zdaaa.s:157    .bss:00000020 rd_eq
C:\Users\atnguye2\AppData\Local\Temp/cc2Zdaaa.s:164    .data:00000058 w1_eq
C:\Users\atnguye2\AppData\Local\Temp/cc2Zdaaa.s:170    .data:0000005c w2_eq
C:\Users\atnguye2\AppData\Local\Temp/cc2Zdaaa.s:176    .data:00000060 w3_eq
C:\Users\atnguye2\AppData\Local\Temp/cc2Zdaaa.s:183    .bss:00000024 w4_eq
C:\Users\atnguye2\AppData\Local\Temp/cc2Zdaaa.s:190    .data:00000064 se
C:\Users\atnguye2\AppData\Local\Temp/cc2Zdaaa.s:199    .data:00000074 ue
C:\Users\atnguye2\AppData\Local\Temp/cc2Zdaaa.s:206    .text:00000000 lab
C:\Users\atnguye2\AppData\Local\Temp/cc2Zdaaa.s:213    .text:00000000 $a
C:\Users\atnguye2\AppData\Local\Temp/cc2Zdaaa.s:288    .text:00000070 do_sensor_fusion
C:\Users\atnguye2\AppData\Local\Temp/cc2Zdaaa.s:601    .text:00000428 lab3
C:\Users\atnguye2\AppData\Local\Temp/cc2Zdaaa.s:6856   .text:0000642c convert_input_to_motor_commands
C:\Users\atnguye2\AppData\Local\Temp/cc2Zdaaa.s:252    .text:00000064 $d
                            *COM*:00000010 goalposyaw
                            *COM*:0000000c o_desired
                            *COM*:00000004 yaw_desired
C:\Users\atnguye2\AppData\Local\Temp/cc2Zdaaa.s:262    .bss:00000028 LED1toggle
C:\Users\atnguye2\AppData\Local\Temp/cc2Zdaaa.s:268    .bss:0000002c LED1count
C:\Users\atnguye2\AppData\Local\Temp/cc2Zdaaa.s:274    .bss:00000030 numCMDs
C:\Users\atnguye2\AppData\Local\Temp/cc2Zdaaa.s:294    .text:00000070 $a
C:\Users\atnguye2\AppData\Local\Temp/cc2Zdaaa.s:559    .text:000003f8 $d
                            *COM*:0000002c mocap
                            *COM*:00000004 previousXMeas
                            *COM*:00000004 previousYMeas
                            *COM*:00000004 previousZMeas
                            *COM*:00000004 initialize
C:\Users\atnguye2\AppData\Local\Temp/cc2Zdaaa.s:578    .bss:00000034 LED0timeCount
C:\Users\atnguye2\AppData\Local\Temp/cc2Zdaaa.s:584    .bss:00000038 LED0toggle
C:\Users\atnguye2\AppData\Local\Temp/cc2Zdaaa.s:590    .rodata:00000000 C.26.3315
C:\Users\atnguye2\AppData\Local\Temp/cc2Zdaaa.s:607    .text:00000428 $a
C:\Users\atnguye2\AppData\Local\Temp/cc2Zdaaa.s:641    .text:00000480 $d
                            *COM*:00000044 imusensor
                            *COM*:00000030 xe
                            *COM*:00000030 xd
C:\Users\atnguye2\AppData\Local\Temp/cc2Zdaaa.s:659    .text:000004c0 $a
C:\Users\atnguye2\AppData\Local\Temp/cc2Zdaaa.s:6835   .text:000063f8 $d
                            *COM*:00000004 fsum_des
                            *COM*:0000000c n_des
                            *COM*:00000010 cnt_u
                            *COM*:00000010 u
C:\Users\atnguye2\AppData\Local\Temp/cc2Zdaaa.s:6862   .text:0000642c $a
C:\Users\atnguye2\AppData\Local\Temp/cc2Zdaaa.s:7045   .text:00006680 $d
                            *COM*:00000010 omega_cmd2
                            *COM*:00000010 omega_cmd
                            *COM*:00000010 cmd
                            *COM*:00000004 GPS_timeout
                            *COM*:00000001 SYSTEM_initialized
                            *COM*:00000004 takeoff2
                            *COM*:00000004 velocityEstHolder
                            *COM*:00000004 VelEstX
                            *COM*:00000004 VelEstY
                            *COM*:00000004 VelEstZ
                            *COM*:0000000c errorcum
                            *COM*:00000004 IntegralHolder
                            *COM*:00000040 Winv

UNDEFINED SYMBOLS
__nesf2
__floatsidf
__adddf3
__fixdfsi
__subsf3
__extendsfdf2
__divdf3
__truncdfsf2
LED
__mulsf3
__muldf3
__subdf3
__divsf3
__addsf3
cos
sin
matrix_multiply
sqrt
__gtsf2
__ltsf2
__fixunssfsi
WO_SDK
WO_Direct_Individual_Motor_Control
