   1              		.file	"adc.c"
   9              	.Ltext0:
  10              		.global	ADC0IntDone
  11              		.bss
  12              		.align	2
  15              	ADC0IntDone:
  16 0000 00000000 		.space	4
  17              		.global	ADC1IntDone
  18              		.align	2
  21              	ADC1IntDone:
  22 0004 00000000 		.space	4
  23              		.global	__udivsi3
  24              		.text
  25              		.align	2
  26              		.global	ADCInit
  28              	ADCInit:
  29              	.LFB2:
  30              		.file 1 "adc.c"
   1:adc.c         **** /*****************************************************************************
   2:adc.c         ****  *   adc.c:  ADC module file for Philips LPC214x Family Microprocessors
   3:adc.c         ****  *
   4:adc.c         ****  *   Copyright(C) 2006, Philips Semiconductor
   5:adc.c         ****  *   All rights reserved.
   6:adc.c         ****  *
   7:adc.c         ****  *   History
   8:adc.c         ****  *   2005.10.01  ver 1.00    Prelimnary version, first Release
   9:adc.c         ****  *
  10:adc.c         **** ******************************************************************************/
  11:adc.c         **** #include "LPC214x.h"                        /* LPC21xx definitions */
  12:adc.c         **** #include "type.h"
  13:adc.c         **** #include "irq.h"
  14:adc.c         **** #include "target.h"
  15:adc.c         **** #include "adc.h"
  16:adc.c         **** 
  17:adc.c         **** volatile unsigned int ADC0Value[ADC_NUM], ADC1Value[ADC_NUM];
  18:adc.c         **** volatile unsigned int ADC0IntDone = 0, ADC1IntDone = 0;
  19:adc.c         **** unsigned int adcChannelValues[8];
  20:adc.c         **** 
  21:adc.c         **** #if ADC_INTERRUPT_FLAG
  22:adc.c         **** /******************************************************************************
  23:adc.c         **** ** Function name:		ADC0Handler
  24:adc.c         **** **
  25:adc.c         **** ** Descriptions:		ADC0 interrupt handler
  26:adc.c         **** **
  27:adc.c         **** ** parameters:			None
  28:adc.c         **** ** Returned value:		None
  29:adc.c         **** **
  30:adc.c         **** ******************************************************************************/
  31:adc.c         **** void ADC0Handler (void) __irq
  32:adc.c         **** {
  33:adc.c         ****     unsigned int regVal;
  34:adc.c         **** 
  35:adc.c         ****     IENABLE;			/* handles nested interrupt */
  36:adc.c         **** 
  37:adc.c         ****     regVal = AD0STAT;		/* Read ADC will clear the interrupt */
  38:adc.c         ****     if ( regVal & 0x0000FF00 )	/* check OVERRUN error first */
  39:adc.c         ****     {
  40:adc.c         **** 	regVal = (regVal & 0x0000FF00) >> 0x08;
  41:adc.c         **** 				/* if overrun, just read ADDR to clear */
  42:adc.c         **** 				/* regVal variable has been reused. */
  43:adc.c         **** 	switch ( regVal )
  44:adc.c         **** 	{
  45:adc.c         **** 	    case 0x01:
  46:adc.c         **** 		regVal = AD0DR0;
  47:adc.c         **** 		break;
  48:adc.c         **** 	    case 0x02:
  49:adc.c         **** 		regVal = AD0DR1;
  50:adc.c         **** 		break;
  51:adc.c         **** 	    case 0x04:
  52:adc.c         **** 		regVal = AD0DR2;
  53:adc.c         **** 		break;
  54:adc.c         **** 	    case 0x08:
  55:adc.c         **** 		regVal = AD0DR3;
  56:adc.c         **** 		break;
  57:adc.c         **** 	    case 0x10:
  58:adc.c         **** 		regVal = AD0DR4;
  59:adc.c         **** 		break;
  60:adc.c         **** 	    case 0x20:
  61:adc.c         **** 		regVal = AD0DR5;
  62:adc.c         **** 		break;
  63:adc.c         **** 	    case 0x40:
  64:adc.c         **** 		regVal = AD0DR6;
  65:adc.c         **** 		break;
  66:adc.c         **** 	    case 0x80:
  67:adc.c         **** 		regVal = AD0DR7;
  68:adc.c         **** 		break;
  69:adc.c         **** 	    default:
  70:adc.c         **** 		break;
  71:adc.c         **** 	}
  72:adc.c         **** 	AD0CR &= 0xF8FFFFFF;	/* stop ADC now */
  73:adc.c         **** 	ADC0IntDone = 1;
  74:adc.c         **** 	return;
  75:adc.c         ****     }
  76:adc.c         **** 
  77:adc.c         ****     if ( regVal & ADC_ADINT )
  78:adc.c         ****     {
  79:adc.c         **** 	switch ( regVal & 0xFF )	/* check DONE bit */
  80:adc.c         **** 	{
  81:adc.c         **** 	    case 0x01:
  82:adc.c         **** 		ADC0Value[0] = ( AD0DR0 >> 6 ) & 0x3FF;
  83:adc.c         **** 		break;
  84:adc.c         **** 	    case 0x02:
  85:adc.c         **** 		ADC0Value[1] = ( AD0DR1 >> 6 ) & 0x3FF;
  86:adc.c         **** 		break;
  87:adc.c         **** 	    case 0x04:
  88:adc.c         **** 		ADC0Value[2] = ( AD0DR2 >> 6 ) & 0x3FF;
  89:adc.c         **** 		break;
  90:adc.c         **** 	    case 0x08:
  91:adc.c         **** 		ADC0Value[3] = ( AD0DR3 >> 6 ) & 0x3FF;
  92:adc.c         **** 		break;
  93:adc.c         **** 	    case 0x10:
  94:adc.c         **** 		ADC0Value[4] = ( AD0DR4 >> 6 ) & 0x3FF;
  95:adc.c         **** 		break;
  96:adc.c         **** 	    case 0x20:
  97:adc.c         **** 		ADC0Value[5] = ( AD0DR5 >> 6 ) & 0x3FF;
  98:adc.c         **** 		break;
  99:adc.c         **** 	    case 0x40:
 100:adc.c         **** 		ADC0Value[6] = ( AD0DR6 >> 6 ) & 0x3FF;
 101:adc.c         **** 		break;
 102:adc.c         **** 	    case 0x80:
 103:adc.c         **** 		ADC0Value[7] = ( AD0DR7 >> 6 ) & 0x3FF;
 104:adc.c         **** 		break;
 105:adc.c         **** 	    default:
 106:adc.c         **** 		break;
 107:adc.c         **** 	}
 108:adc.c         **** 	AD0CR &= 0xF8FFFFFF;	/* stop ADC now */
 109:adc.c         **** 	ADC0IntDone = 1;
 110:adc.c         ****     }
 111:adc.c         **** 
 112:adc.c         ****     IDISABLE;
 113:adc.c         ****     VICVectAddr = 0;		/* Acknowledge Interrupt */
 114:adc.c         **** }
 115:adc.c         **** 
 116:adc.c         **** /******************************************************************************
 117:adc.c         **** ** Function name:		ADC1Handler
 118:adc.c         **** **
 119:adc.c         **** ** Descriptions:		ADC1 interrupt handler
 120:adc.c         **** **
 121:adc.c         **** ** parameters:			None
 122:adc.c         **** ** Returned value:		None
 123:adc.c         **** **
 124:adc.c         **** ******************************************************************************/
 125:adc.c         **** void ADC1Handler (void) __irq
 126:adc.c         **** {
 127:adc.c         ****     unsigned int regVal;
 128:adc.c         **** 
 129:adc.c         ****     IENABLE;			/* handles nested interrupt */
 130:adc.c         **** 
 131:adc.c         ****     regVal = AD1STAT;		/* Read ADC will clear the interrupt */
 132:adc.c         ****     if ( regVal & 0x0000FF00 )	/* check OVERRUN error first */
 133:adc.c         ****     {
 134:adc.c         **** 	regVal = (regVal & 0x0000FF00) >> 0x08;
 135:adc.c         **** 				/* if overrun, just read AD1DRx to clear */
 136:adc.c         **** 				/* regVal variable has been reused. */
 137:adc.c         **** 	switch ( regVal )
 138:adc.c         **** 	{
 139:adc.c         **** 	    case 0x01:
 140:adc.c         **** 		regVal = AD1DR0;
 141:adc.c         **** 		break;
 142:adc.c         **** 	    case 0x02:
 143:adc.c         **** 		regVal = AD1DR1;
 144:adc.c         **** 		break;
 145:adc.c         **** 	    case 0x04:
 146:adc.c         **** 		regVal = AD1DR2;
 147:adc.c         **** 		break;
 148:adc.c         **** 	    case 0x08:
 149:adc.c         **** 		regVal = AD1DR3;
 150:adc.c         **** 		break;
 151:adc.c         **** 	    case 0x10:
 152:adc.c         **** 		regVal = AD1DR4;
 153:adc.c         **** 		break;
 154:adc.c         **** 	    case 0x20:
 155:adc.c         **** 		regVal = AD1DR5;
 156:adc.c         **** 		break;
 157:adc.c         **** 	    case 0x40:
 158:adc.c         **** 		regVal = AD1DR6;
 159:adc.c         **** 		break;
 160:adc.c         **** 	    case 0x80:
 161:adc.c         **** 		regVal = AD1DR7;
 162:adc.c         **** 		break;
 163:adc.c         **** 	    default:
 164:adc.c         **** 		break;
 165:adc.c         **** 	}
 166:adc.c         **** 	AD1CR &= 0xF8FFFFFF;	/* stop ADC now */
 167:adc.c         **** 	ADC1IntDone = 1;
 168:adc.c         **** 	return;
 169:adc.c         ****     }
 170:adc.c         **** 
 171:adc.c         ****     if ( regVal & ADC_ADINT )
 172:adc.c         ****     {
 173:adc.c         **** 	switch ( regVal & 0xFF )	/* check DONE bit */
 174:adc.c         **** 	{
 175:adc.c         **** 	    case 0x01:
 176:adc.c         **** 		ADC1Value[0] = ( AD1DR0 >> 6 ) & 0x3FF;
 177:adc.c         **** 		break;
 178:adc.c         **** 	    case 0x02:
 179:adc.c         **** 		ADC1Value[1] = ( AD1DR1 >> 6 ) & 0x3FF;
 180:adc.c         **** 		break;
 181:adc.c         **** 	    case 0x04:
 182:adc.c         **** 		ADC1Value[2] = ( AD1DR2 >> 6 ) & 0x3FF;
 183:adc.c         **** 		break;
 184:adc.c         **** 	    case 0x08:
 185:adc.c         **** 		ADC1Value[3] = ( AD1DR3 >> 6 ) & 0x3FF;
 186:adc.c         **** 		break;
 187:adc.c         **** 	    case 0x10:
 188:adc.c         **** 		ADC1Value[4] = ( AD1DR4 >> 6 ) & 0x3FF;
 189:adc.c         **** 		break;
 190:adc.c         **** 	    case 0x20:
 191:adc.c         **** 		ADC1Value[5] = ( AD1DR5 >> 6 ) & 0x3FF;
 192:adc.c         **** 		break;
 193:adc.c         **** 	    case 0x40:
 194:adc.c         **** 		ADC1Value[6] = ( AD1DR6 >> 6 ) & 0x3FF;
 195:adc.c         **** 		break;
 196:adc.c         **** 	    case 0x80:
 197:adc.c         **** 		ADC1Value[7] = ( AD1DR7 >> 6 ) & 0x3FF;
 198:adc.c         **** 		break;
 199:adc.c         **** 	    default:
 200:adc.c         **** 		break;
 201:adc.c         **** 	}
 202:adc.c         **** 	AD1CR &= 0xF8FFFFFF;	/* stop ADC now */
 203:adc.c         **** 	ADC1IntDone = 1;
 204:adc.c         ****     }
 205:adc.c         **** 
 206:adc.c         ****     IDISABLE;
 207:adc.c         ****     VICVectAddr = 0;		/* Acknowledge Interrupt */
 208:adc.c         **** }
 209:adc.c         **** #endif
 210:adc.c         **** 
 211:adc.c         **** /*****************************************************************************
 212:adc.c         **** ** Function name:		ADCInit
 213:adc.c         **** **
 214:adc.c         **** ** Descriptions:		initialize ADC channel
 215:adc.c         **** **
 216:adc.c         **** ** parameters:			ADC clock rate
 217:adc.c         **** ** Returned value:		true or false
 218:adc.c         **** **
 219:adc.c         **** *****************************************************************************/
 220:adc.c         **** unsigned int ADCInit( unsigned int ADC_Clk )
 221:adc.c         **** {
  31              	orts interworking.
  32              		@ args = 0, pretend = 0, frame = 4
  33              		@ frame_needed = 1, uses_anonymous_args = 0
  34              		mov	ip, sp
  35 0000 0DC0A0E1 	.LCFI0:
  36              		stmfd	sp!, {r4, fp, ip, lr, pc}
  37 0004 10D82DE9 	.LCFI1:
  38              		sub	fp, ip, #4
  39 0008 04B04CE2 	.LCFI2:
  40              		sub	sp, sp, #4
  41 000c 04D04DE2 	.LCFI3:
  42              		str	r0, [fp, #-20]
  43 0010 14000BE5 		.loc 1 222 0
 222:adc.c         **** 	   AD0CR = ( 0x01 ) | 	// SEL=1,select channel 0, 1 to 4 on ADC0
  44              	6870912
  45 0014 0E42A0E3 		add	r4, r4, #212992
  46 0018 0D4984E2 		mov	r0, #15007744
  47 001c E508A0E3 		sub	r0, r0, #7744
  48 0020 790D40E2 		ldr	r1, [fp, #-20]
  49 0024 14101BE5 		bl	__udivsi3
  50 0028 FEFFFFEB 		mov	r3, r0
  51 002c 0030A0E1 		sub	r3, r3, #1
  52 0030 013043E2 		mov	r3, r3, asl #8
  53 0034 0334A0E1 		orr	r3, r3, #2162688
  54 0038 213883E3 		orr	r3, r3, #1
  55 003c 013083E3 		str	r3, [r4, #0]
  56 0040 003084E5 		.loc 1 244 0
 223:adc.c         **** 		( ( Fpclk / ADC_Clk - 1 ) << 8 ) |  // CLKDIV = Fpclk / 1000000 - 1
 224:adc.c         **** 		( 1 << 16 ) | 		// BURST = 0, no BURST, software controlled
 225:adc.c         **** 		( 0 << 17 ) |  		// CLKS = 0, 11 clocks/10 bits
 226:adc.c         **** 		( 1 << 21 ) |  		// PDN = 1, normal operation
 227:adc.c         **** 		( 0 << 22 ) |  		// TEST1:0 = 00
 228:adc.c         **** 		( 0 << 24 ) |  		// START = 0 A/D conversion stops
 229:adc.c         **** 		( 0 << 27 );		/* EDGE = 0 (CAP/MAT singal falling,trigger A/D
 230:adc.c         **** 					conversion) */
 231:adc.c         **** 
 232:adc.c         **** 
 233:adc.c         ****       /*
 234:adc.c         **** 	AD0CR = ( 0x01 << 0 ) | 	// SEL=1,select channel 0, 1 to 4 on ADC0
 235:adc.c         **** 	( ( Fpclk / ADC_Clk - 1 ) << 8 ) |  // CLKDIV = Fpclk / 1000000 - 1
 236:adc.c         **** 	( 0 << 16 ) | 		// BURST = 0, no BURST, software controlled
 237:adc.c         **** 	( 0 << 17 ) |  		// CLKS = 0, 11 clocks/10 bits
 238:adc.c         **** 	( 1 << 21 ) |  		// PDN = 1, normal operation
 239:adc.c         **** 	( 0 << 22 ) |  		// TEST1:0 = 00
 240:adc.c         **** 	( 0 << 24 ) |  		// START = 0 A/D conversion stops
 241:adc.c         **** 	( 0 << 27 );		// EDGE = 0 (CAP/MAT singal falling,trigger A/D
 242:adc.c         **** 				conversion) */
 243:adc.c         **** 
 244:adc.c         ****     AD1CR = ( 0x01 << 0 ) | 	// SEL=1,select channel 0, 0 to 7 on ADC1
  57              	6870912
  58 0044 0E42A0E3 		add	r4, r4, #393216
  59 0048 064884E2 		mov	r0, #15007744
  60 004c E508A0E3 		sub	r0, r0, #7744
  61 0050 790D40E2 		ldr	r1, [fp, #-20]
  62 0054 14101BE5 		bl	__udivsi3
  63 0058 FEFFFFEB 		mov	r3, r0
  64 005c 0030A0E1 		sub	r3, r3, #1
  65 0060 013043E2 		mov	r3, r3, asl #8
  66 0064 0334A0E1 		orr	r3, r3, #2097152
  67 0068 023683E3 		orr	r3, r3, #1
  68 006c 013083E3 		str	r3, [r4, #0]
  69 0070 003084E5 		.loc 1 269 0
 245:adc.c         **** 	( ( Fpclk / ADC_Clk - 1 ) << 8 ) |  // CLKDIV = Fpclk / 1000000 - 1
 246:adc.c         **** 	( 0 << 16 ) | 		// BURST = 0, no BURST, software controlled
 247:adc.c         **** 	( 0 << 17 ) |  		// CLKS = 0, 11 clocks/10 bits
 248:adc.c         **** 	( 1 << 21 ) |  		// PDN = 1, normal operation
 249:adc.c         **** 	( 0 << 22 ) |  		// TEST1:0 = 00
 250:adc.c         **** 	( 0 << 24 ) |  		// START = 0 A/D conversion stops
 251:adc.c         **** 	( 0 << 27 );		/* EDGE = 0 (CAP/MAT singal falling,trigger A/D
 252:adc.c         **** 				conversion) */
 253:adc.c         **** 
 254:adc.c         ****     /* If POLLING, no need to do the following */
 255:adc.c         **** #if ADC_INTERRUPT_FLAG
 256:adc.c         ****     AD0INTEN = 0x11E;		// Enable all interrupts
 257:adc.c         ****     AD1INTEN = 0x1FF;
 258:adc.c         **** 
 259:adc.c         ****     if ( install_irq( ADC0_INT, (void *)ADC0Handler ) == FALSE )
 260:adc.c         ****     {
 261:adc.c         **** 	return (FALSE);
 262:adc.c         ****     }
 263:adc.c         ****     if ( install_irq( ADC1_INT, (void *)ADC1Handler ) == FALSE )
 264:adc.c         ****     {
 265:adc.c         **** 	return (FALSE);
 266:adc.c         ****     }
 267:adc.c         **** #endif
 268:adc.c         **** 
 269:adc.c         ****     return (TRUE);
  70              	.loc 1 270 0
  71 0074 0130A0E3 		mov	r0, r3
 270:adc.c         **** }
  72              	ub	sp, fp, #16
  73 0078 0300A0E1 		ldmfd	sp, {r4, fp, sp, lr}
  74 007c 10D04BE2 		bx	lr
  75 0080 10689DE8 	.LFE2:
  77              		.align	2
  78              		.global	ADC0Read
  80              	ADC0Read:
  81              	.LFB3:
  82              		.loc 1 282 0
  83              		@ Function supports interworking.
 271:adc.c         **** 
 272:adc.c         **** /*****************************************************************************
 273:adc.c         **** ** Function name:		ADC0Read
 274:adc.c         **** **
 275:adc.c         **** ** Descriptions:		Read ADC0 channel
 276:adc.c         **** **
 277:adc.c         **** ** parameters:			Channel number
 278:adc.c         **** ** Returned value:		Value read, if interrupt driven, return channel #
 279:adc.c         **** **
 280:adc.c         **** *****************************************************************************/
 281:adc.c         **** unsigned int ADC0Read( unsigned char channelNum )
 282:adc.c         **** {
  84              	 pretend = 0, frame = 20
  85              		@ frame_needed = 1, uses_anonymous_args = 0
  86              		mov	ip, sp
  87              	.LCFI4:
  88 0088 0DC0A0E1 		stmfd	sp!, {fp, ip, lr, pc}
  89              	.LCFI5:
  90 008c 00D82DE9 		sub	fp, ip, #4
  91              	.LCFI6:
  92 0090 04B04CE2 		sub	sp, sp, #20
  93              	.LCFI7:
  94 0094 14D04DE2 		mov	r3, r0
  95              		strb	r3, [fp, #-28]
  96 0098 0030A0E1 		.loc 1 285 0
  97 009c 1C304BE5 		mov	r3, #0
 283:adc.c         **** #if !ADC_INTERRUPT_FLAG
 284:adc.c         ****     unsigned int regVal, ADC_Data;
 285:adc.c         ****     volatile unsigned int timeout=0;
  98              	#-24]
  99 00a0 0030A0E3 		.loc 1 289 0
 100 00a4 18300BE5 		ldrb	r3, [fp, #-28]	@ zero_extendqisi2
 286:adc.c         **** #endif
 287:adc.c         **** 
 288:adc.c         ****     /* channel number is 0 through 7 */
 289:adc.c         ****     if ( channelNum >= ADC_NUM )
 101              	p	r3, #7
 102 00a8 1C305BE5 		bls	.L4
 103 00ac 070053E3 		.loc 1 291 0
 104 00b0 0100009A 		mov	r3, #0
 290:adc.c         ****     {
 291:adc.c         **** 	channelNum = 0;		/* reset channel number to 0 */
 105              	b	r3, [fp, #-28]
 106 00b4 0030A0E3 	.L4:
 107 00b8 1C304BE5 		.loc 1 293 0
 108              		mov	r2, #-536870912
 292:adc.c         ****     }
 293:adc.c         ****     AD0CR &= 0xFFFFFF00;
 109              		r2, r2, #212992
 110 00bc 0E22A0E3 		mov	r3, #-536870912
 111 00c0 0D2982E2 		add	r3, r3, #212992
 112 00c4 0E32A0E3 		ldr	r3, [r3, #0]
 113 00c8 0D3983E2 		bic	r3, r3, #255
 114 00cc 003093E5 		str	r3, [r2, #0]
 115 00d0 FF30C3E3 		.loc 1 294 0
 116 00d4 003082E5 		mov	r1, #-536870912
 294:adc.c         ****     AD0CR |= (1 << 24) | (1 << channelNum);
 117              	 r1, #212992
 118 00d8 0E12A0E3 		mov	r3, #-536870912
 119 00dc 0D1981E2 		add	r3, r3, #212992
 120 00e0 0E32A0E3 		ldr	r0, [r3, #0]
 121 00e4 0D3983E2 		ldrb	r2, [fp, #-28]	@ zero_extendqisi2
 122 00e8 000093E5 		mov	r3, #1
 123 00ec 1C205BE5 		mov	r3, r3, asl r2
 124 00f0 0130A0E3 		orr	r3, r0, r3
 125 00f4 1332A0E1 		orr	r3, r3, #16777216
 126 00f8 033080E1 		str	r3, [r1, #0]
 127 00fc 013483E3 		.loc 1 297 0
 128 0100 003081E5 		b	.L6
 295:adc.c         **** 				/* switch channel,start A/D convert */
 296:adc.c         **** #if !ADC_INTERRUPT_FLAG
 297:adc.c         ****     while ( timeout++<5000 )			/* wait until end of A/D convert */
 129              	 299 0
 130 0104 090000EA 		ldrb	r3, [fp, #-28]	@ zero_extendqisi2
 131              		mov	r3, r3, asl #2
 298:adc.c         ****     {
 299:adc.c         **** 	regVal = *(volatile unsigned long *)(AD0_BASE_ADDR
 132              	d	r3, r3, #-536870912
 133 0108 1C305BE5 		add	r3, r3, #212992
 134 010c 0331A0E1 		add	r3, r3, #16
 135 0110 0E3283E2 		ldr	r3, [r3, #0]
 136 0114 0D3983E2 		str	r3, [fp, #-20]
 137 0118 103083E2 		.loc 1 302 0
 138 011c 003093E5 		ldr	r3, [fp, #-20]
 139 0120 14300BE5 		cmp	r3, #0
 300:adc.c         **** 			+ ADC_OFFSET + ADC_INDEX * channelNum);
 301:adc.c         **** 				/* read result of A/D conversion */
 302:adc.c         **** 	if ( regVal & ADC_DONE )
 140              	
 141 0124 14301BE5 	.L6:
 142 0128 000053E3 		.loc 1 297 0
 143 012c 0A0000BA 		ldr	r1, [fp, #-24]
 144              		mov	r3, #4992
 145              		add	r3, r3, #7
 146 0130 18101BE5 		cmp	r1, r3
 147 0134 4E3DA0E3 		movhi	r3, #0
 148 0138 073083E2 		movls	r3, #1
 149 013c 030051E1 		and	r2, r3, #255
 150 0140 0030A083 		add	r3, r1, #1
 151 0144 0130A093 		str	r3, [fp, #-24]
 152 0148 FF2003E2 		cmp	r2, #0
 153 014c 013081E2 		bne	.L7
 154 0150 18300BE5 	.L8:
 155 0154 000052E3 		.loc 1 308 0
 156 0158 EAFFFF1A 		mov	r2, #-536870912
 157              		add	r2, r2, #212992
 303:adc.c         **** 	{
 304:adc.c         **** 	    break;
 305:adc.c         **** 	}
 306:adc.c         ****     }
 307:adc.c         **** 
 308:adc.c         ****     AD0CR &= 0xF8FFFFFF;	/* stop ADC now */
 158              	912
 159 015c 0E22A0E3 		add	r3, r3, #212992
 160 0160 0D2982E2 		ldr	r3, [r3, #0]
 161 0164 0E32A0E3 		bic	r3, r3, #117440512
 162 0168 0D3983E2 		str	r3, [r2, #0]
 163 016c 003093E5 		.loc 1 309 0
 164 0170 0734C3E3 		ldr	r3, [fp, #-20]
 165 0174 003082E5 		and	r3, r3, #1073741824
 309:adc.c         ****     if ( regVal & ADC_OVERRUN )	/* save data when it's not overrun
 166              	 #0
 167 0178 14301BE5 		beq	.L9
 168 017c 013103E2 		.loc 1 312 0
 169 0180 000053E3 		mov	r3, #0
 170 0184 0200000A 		str	r3, [fp, #-32]
 310:adc.c         **** 				otherwise, return zero */
 311:adc.c         ****     {
 312:adc.c         **** 	return ( 0 );
 171              	11
 172 0188 0030A0E3 	.L9:
 173 018c 20300BE5 		.loc 1 314 0
 174 0190 060000EA 		ldr	r3, [fp, #-20]
 175              		mov	r3, r3, lsr #6
 313:adc.c         ****     }
 314:adc.c         ****     ADC_Data = ( regVal >> 6 ) & 0x3FF;
 176              	r3, r3, asl #22
 177 0194 14301BE5 		mov	r3, r3, lsr #22
 178 0198 2333A0E1 		str	r3, [fp, #-16]
 179 019c 033BA0E1 		.loc 1 315 0
 180 01a0 233BA0E1 		ldr	r3, [fp, #-16]
 181 01a4 10300BE5 		str	r3, [fp, #-32]
 315:adc.c         ****     return ( ADC_Data );	/* return A/D conversion value */
 182              		ldr	r3, [fp, #-32]
 183 01a8 10301BE5 		.loc 1 321 0
 184 01ac 20300BE5 		mov	r0, r3
 185              		sub	sp, fp, #12
 186 01b0 20301BE5 		ldmfd	sp, {fp, sp, lr}
 316:adc.c         **** #else
 317:adc.c         ****     return ( channelNum );	/* if it's interrupt driven, the
 318:adc.c         **** 				ADC reading is done inside the handler.
 319:adc.c         **** 				so, return channel number */
 320:adc.c         **** #endif
 321:adc.c         **** }
 187              	r
 188 01b4 0300A0E1 	.LFE3:
 190 01bc 00689DE8 		.align	2
 191 01c0 1EFF2FE1 		.global	ADC1Read
 193              	ADC1Read:
 194              	.LFB4:
 195              		.loc 1 333 0
 196              		@ Function supports interworking.
 197              		@ args = 0, pretend = 0, frame = 16
 198              		@ frame_needed = 1, uses_anonymous_args = 0
 322:adc.c         **** 
 323:adc.c         **** /*****************************************************************************
 324:adc.c         **** ** Function name:		ADC1Read
 325:adc.c         **** **
 326:adc.c         **** ** Descriptions:		Read ADC1 channel
 327:adc.c         **** **
 328:adc.c         **** ** parameters:			Channel number
 329:adc.c         **** ** Returned value:		Value read, if interrupt driven, return channel #
 330:adc.c         **** **
 331:adc.c         **** *****************************************************************************/
 332:adc.c         **** unsigned int ADC1Read( unsigned char channelNum )
 333:adc.c         **** {
 199              	.LCFI8:
 200              		stmfd	sp!, {fp, ip, lr, pc}
 201              	.LCFI9:
 202              		sub	fp, ip, #4
 203 01c4 0DC0A0E1 	.LCFI10:
 204              		sub	sp, sp, #16
 205 01c8 00D82DE9 	.LCFI11:
 206              		mov	r3, r0
 207 01cc 04B04CE2 		strb	r3, [fp, #-24]
 208              		.loc 1 340 0
 209 01d0 10D04DE2 		ldrb	r3, [fp, #-24]	@ zero_extendqisi2
 210              		cmp	r3, #7
 211 01d4 0030A0E1 		bls	.L14
 212 01d8 18304BE5 		.loc 1 342 0
 334:adc.c         **** #if !ADC_INTERRUPT_FLAG
 335:adc.c         ****     unsigned int regVal;
 336:adc.c         **** 	unsigned int ADC_Data;
 337:adc.c         **** #endif
 338:adc.c         **** 
 339:adc.c         ****     /* channel number is 0 through 7 */
 340:adc.c         ****     if ( channelNum >= ADC_NUM )
 213              	trb	r3, [fp, #-24]
 214 01dc 18305BE5 	.L14:
 215 01e0 070053E3 		.loc 1 344 0
 216 01e4 0100009A 		mov	r2, #-536870912
 341:adc.c         ****     {
 342:adc.c         **** 	channelNum = 0;		/* reset channel number to 0 */
 217              		r2, r2, #393216
 218 01e8 0030A0E3 		mov	r3, #-536870912
 219 01ec 18304BE5 		add	r3, r3, #393216
 220              		ldr	r3, [r3, #0]
 343:adc.c         ****     }
 344:adc.c         ****     AD1CR &= 0xFFFFFF00;
 221              		r3, r3, #255
 222 01f0 0E22A0E3 		str	r3, [r2, #0]
 223 01f4 062882E2 		.loc 1 345 0
 224 01f8 0E32A0E3 		mov	r1, #-536870912
 225 01fc 063883E2 		add	r1, r1, #393216
 226 0200 003093E5 		mov	r3, #-536870912
 227 0204 FF30C3E3 		add	r3, r3, #393216
 228 0208 003082E5 		ldr	r0, [r3, #0]
 345:adc.c         ****     AD1CR |= (1 << 24) | (1 << channelNum);
 229              	, [fp, #-24]	@ zero_extendqisi2
 230 020c 0E12A0E3 		mov	r3, #1
 231 0210 061881E2 		mov	r3, r3, asl r2
 232 0214 0E32A0E3 		orr	r3, r0, r3
 233 0218 063883E2 		orr	r3, r3, #16777216
 234 021c 000093E5 		str	r3, [r1, #0]
 235 0220 18205BE5 	.L16:
 236 0224 0130A0E3 		.loc 1 350 0
 237 0228 1332A0E1 		ldrb	r3, [fp, #-24]	@ zero_extendqisi2
 238 022c 033080E1 		mov	r3, r3, asl #2
 239 0230 013483E3 		add	r3, r3, #-536870912
 240 0234 003081E5 		add	r3, r3, #393216
 241              		add	r3, r3, #16
 346:adc.c         **** 				/* switch channel,start A/D convert */
 347:adc.c         **** #if !ADC_INTERRUPT_FLAG
 348:adc.c         ****     while ( 1 )			/* wait until end of A/D convert */
 349:adc.c         ****     {
 350:adc.c         **** 	regVal = *(volatile unsigned long *)(AD1_BASE_ADDR
 242              	 #0]
 243 0238 18305BE5 		str	r3, [fp, #-20]
 244 023c 0331A0E1 		.loc 1 353 0
 245 0240 0E3283E2 		ldr	r3, [fp, #-20]
 246 0244 063883E2 		cmp	r3, #0
 247 0248 103083E2 		blt	.L17
 248 024c 003093E5 		.loc 1 357 0
 249 0250 14300BE5 		b	.L16
 351:adc.c         **** 			+ ADC_OFFSET + ADC_INDEX * channelNum);
 352:adc.c         **** 				/* read result of A/D conversion */
 353:adc.c         **** 	if ( regVal & ADC_DONE )
 250              	loc 1 359 0
 251 0254 14301BE5 		mov	r2, #-536870912
 252 0258 000053E3 		add	r2, r2, #393216
 253 025c 000000BA 		mov	r3, #-536870912
 354:adc.c         **** 	{
 355:adc.c         **** 	    break;
 356:adc.c         **** 	}
 357:adc.c         ****     }
 254              		r3, r3, #393216
 255 0260 F4FFFFEA 		ldr	r3, [r3, #0]
 256              		bic	r3, r3, #117440512
 358:adc.c         **** 
 359:adc.c         ****     AD1CR &= 0xF8FFFFFF;	/* stop ADC now */
 257              	r	r3, [r2, #0]
 258 0264 0E22A0E3 		.loc 1 360 0
 259 0268 062882E2 		ldr	r3, [fp, #-20]
 260 026c 0E32A0E3 		and	r3, r3, #1073741824
 261 0270 063883E2 		cmp	r3, #0
 262 0274 003093E5 		beq	.L19
 263 0278 0734C3E3 		.loc 1 363 0
 264 027c 003082E5 		mov	r3, #0
 360:adc.c         ****     if ( regVal & ADC_OVERRUN )	/* save data when it's not overrun
 265              	 [fp, #-28]
 266 0280 14301BE5 		b	.L21
 267 0284 013103E2 	.L19:
 268 0288 000053E3 		.loc 1 366 0
 269 028c 0200000A 		ldr	r3, [fp, #-20]
 361:adc.c         **** 				otherwise, return zero */
 362:adc.c         ****     {
 363:adc.c         **** 	return ( 0 );
 270              	r3, r3, lsr #6
 271 0290 0030A0E3 		mov	r3, r3, asl #22
 272 0294 1C300BE5 		mov	r3, r3, lsr #22
 273 0298 060000EA 		str	r3, [fp, #-16]
 274              		.loc 1 367 0
 364:adc.c         ****     }
 365:adc.c         **** 
 366:adc.c         ****     ADC_Data = ( regVal >> 6 ) & 0x3FF;
 275              	r3, [fp, #-16]
 276 029c 14301BE5 		str	r3, [fp, #-28]
 277 02a0 2333A0E1 	.L21:
 278 02a4 033BA0E1 		ldr	r3, [fp, #-28]
 279 02a8 233BA0E1 		.loc 1 371 0
 280 02ac 10300BE5 		mov	r0, r3
 367:adc.c         ****     return ( ADC_Data );	/* return A/D conversion value */
 281              	p, fp, #12
 282 02b0 10301BE5 		ldmfd	sp, {fp, sp, lr}
 283 02b4 1C300BE5 		bx	lr
 284              	.LFE4:
 368:adc.c         **** #else
 369:adc.c         ****     return ( channelNum );
 370:adc.c         **** #endif
 371:adc.c         **** }
 286              	gn	2
 287 02bc 0300A0E1 		.global	ADC0triggerSampling
 289 02c4 00689DE8 	ADC0triggerSampling:
 290 02c8 1EFF2FE1 	.LFB5:
 291              		.loc 1 374 0
 292              		@ Function supports interworking.
 293              		@ args = 0, pretend = 0, frame = 4
 294              		@ frame_needed = 1, uses_anonymous_args = 0
 295              		mov	ip, sp
 296              	.LCFI12:
 297              		stmfd	sp!, {fp, ip, lr, pc}
 372:adc.c         **** 
 373:adc.c         **** void ADC0triggerSampling(unsigned char selectChannels)
 374:adc.c         **** {
 298              	b	fp, ip, #4
 299              	.LCFI14:
 300              		sub	sp, sp, #4
 301              	.LCFI15:
 302 02cc 0DC0A0E1 		mov	r3, r0
 303              		strb	r3, [fp, #-16]
 304 02d0 00D82DE9 		.loc 1 375 0
 305              		mov	r2, #-536870912
 306 02d4 04B04CE2 		add	r2, r2, #212992
 307              		mov	r3, #-536870912
 308 02d8 04D04DE2 		add	r3, r3, #212992
 309              		ldr	r1, [r3, #0]
 310 02dc 0030A0E1 		ldrb	r3, [fp, #-16]	@ zero_extendqisi2
 311 02e0 10304BE5 		orr	r3, r1, r3
 375:adc.c         **** 	AD0CR |= (selectChannels);
 312              	#0]
 313 02e4 0E22A0E3 		.loc 1 377 0
 314 02e8 0D2982E2 		sub	sp, fp, #12
 315 02ec 0E32A0E3 		ldmfd	sp, {fp, sp, lr}
 316 02f0 0D3983E2 		bx	lr
 317 02f4 001093E5 	.LFE5:
 319 02fc 033081E1 		.align	2
 320 0300 003082E5 		.global	ADC0getSamplingResults
 376:adc.c         **** 
 377:adc.c         **** }
 321              	C0getSamplingResults, %function
 322 0304 0CD04BE2 	ADC0getSamplingResults:
 323 0308 00689DE8 	.LFB6:
 324 030c 1EFF2FE1 		.loc 1 380 0
 325              		@ Function supports interworking.
 326              		@ args = 0, pretend = 0, frame = 16
 327              		@ frame_needed = 1, uses_anonymous_args = 0
 328              		mov	ip, sp
 329              	.LCFI16:
 330              		stmfd	sp!, {fp, ip, lr, pc}
 331              	.LCFI17:
 378:adc.c         **** 
 379:adc.c         **** void ADC0getSamplingResults(unsigned char selectChannels, unsigned int * channelValues)
 380:adc.c         **** {
 332              	, #4
 333              	.LCFI18:
 334              		sub	sp, sp, #16
 335              	.LCFI19:
 336 0310 0DC0A0E1 		mov	r3, r0
 337              		str	r1, [fp, #-28]
 338 0314 00D82DE9 		strb	r3, [fp, #-24]
 339              		.loc 1 383 0
 340 0318 04B04CE2 		mov	r3, #0
 341              		str	r3, [fp, #-20]
 342 031c 10D04DE2 		b	.L26
 343              	.L27:
 344 0320 0030A0E1 		.loc 1 384 0
 345 0324 1C100BE5 		ldrb	r2, [fp, #-24]	@ zero_extendqisi2
 346 0328 18304BE5 		ldr	r3, [fp, #-20]
 381:adc.c         **** 	int i;
 382:adc.c         **** 	//get last result from all selected channels
 383:adc.c         **** 	for (i=0;i<8;i++)
 347              	r r3
 348 032c 0030A0E3 		and	r3, r3, #1
 349 0330 14300BE5 		and	r3, r3, #255
 350 0334 260000EA 		cmp	r3, #0
 351              		beq	.L28
 384:adc.c         **** 		if (selectChannels&(1<<i))
 352              	:
 353 0338 18205BE5 		.loc 1 388 0
 354 033c 14301BE5 		ldr	r3, [fp, #-20]
 355 0340 5233A0E1 		mov	r3, r3, asl #2
 356 0344 013003E2 		add	r3, r3, #-536870912
 357 0348 FF3003E2 		add	r3, r3, #212992
 358 034c 000053E3 		add	r3, r3, #16
 359 0350 1C00000A 		ldr	r3, [r3, #0]
 360              		str	r3, [fp, #-16]
 385:adc.c         **** 		{
 386:adc.c         **** 		    unsigned int regVal;
 387:adc.c         **** 
 388:adc.c         **** 			regVal=*(volatile unsigned long *)(AD0_BASE_ADDR
 361              	91 0
 362 0354 14301BE5 		ldr	r3, [fp, #-16]
 363 0358 0331A0E1 		and	r3, r3, #-1073741824
 364 035c 0E3283E2 		cmp	r3, #0
 365 0360 0D3983E2 		bne	.L30
 366 0364 103083E2 		.loc 1 392 0
 367 0368 003093E5 		ldr	r3, [fp, #-20]
 368 036c 10300BE5 		mov	r3, r3, asl #2
 389:adc.c         **** 					+ ADC_OFFSET + ADC_INDEX * i);
 390:adc.c         **** 
 391:adc.c         **** 			if ((regVal&(ADC_OVERRUN|ADC_DONE))==0)
 369              	 r3
 370 0370 10301BE5 		ldr	r3, [fp, #-28]
 371 0374 033103E2 		add	r2, r2, r3
 372 0378 000053E3 		mov	r3, #0
 373 037c 0700001A 		str	r3, [r2, #0]
 392:adc.c         **** 					channelValues[i]=0;
 374              	28
 375 0380 14301BE5 	.L30:
 376 0384 0331A0E1 		.loc 1 394 0
 377 0388 0320A0E1 		ldr	r3, [fp, #-20]
 378 038c 1C301BE5 		mov	r3, r3, asl #2
 379 0390 032082E0 		mov	r2, r3
 380 0394 0030A0E3 		ldr	r3, [fp, #-28]
 381 0398 003082E5 		add	r2, r2, r3
 382 039c 090000EA 		ldr	r3, [fp, #-16]
 383              		mov	r3, r3, lsr #6
 393:adc.c         **** 			else
 394:adc.c         **** 					channelValues[i]=( regVal >> 6 ) & 0x3FF;
 384              	3, asl #22
 385 03a0 14301BE5 		mov	r3, r3, lsr #22
 386 03a4 0331A0E1 		str	r3, [r2, #0]
 387 03a8 0320A0E1 	.L28:
 388 03ac 1C301BE5 	.LBE2:
 389 03b0 032082E0 		.loc 1 383 0
 390 03b4 10301BE5 		ldr	r3, [fp, #-20]
 391 03b8 2333A0E1 		add	r3, r3, #1
 392 03bc 033BA0E1 		str	r3, [fp, #-20]
 393 03c0 233BA0E1 	.L26:
 394 03c4 003082E5 		ldr	r3, [fp, #-20]
 395              		cmp	r3, #7
 396              		ble	.L27
 397              		.loc 1 396 0
 398 03c8 14301BE5 		sub	sp, fp, #12
 399 03cc 013083E2 		ldmfd	sp, {fp, sp, lr}
 400 03d0 14300BE5 		bx	lr
 401              	.LFE6:
 403 03d8 070053E3 		.comm	ADC0Value,32,4
 404 03dc D5FFFFDA 		.comm	ADC1Value,32,4
 395:adc.c         **** 		}
 396:adc.c         **** }
 405              	es,32,4
 406 03e0 0CD04BE2 		.section	.debug_frame,"",%progbits
 407 03e4 00689DE8 	.Lframe0:
 408 03e8 1EFF2FE1 		.4byte	.LECIE0-.LSCIE0
 409              	.LSCIE0:
 410              		.4byte	0xffffffff
 411              		.byte	0x1
 412              		.ascii	"\000"
 413              		.uleb128 0x1
 557              		.4byte	.LCFI0-.Ltext0