   1              		.file	"lab.c"
   9              	.Ltext0:
  10              		.global	mass
  11              		.data
  12              		.align	2
  15              	mass:
  16 0000 3D0A373F 		.word	1060571709
  17              		.global	kF
  18              		.align	2
  21              	kF:
  22 0004 E950FA36 		.word	922374377
  23              		.global	kM
  24              		.align	2
  27              	kM:
  28 0008 FC110434 		.word	872681980
  29              		.global	l
  30              		.align	2
  33              	l:
  34 000c 7B142E3E 		.word	1043207291
  35              		.global	MAXPHI2
  36              		.align	2
  39              	MAXPHI2:
  40 0010 7B5E1449 		.word	1226071675
  41              		.global	MINPHI2
  42              		.align	2
  45              	MINPHI2:
  46 0014 757A4646 		.word	1179023989
  47              		.global	K_d
  48              		.align	2
  51              	K_d:
  52 0018 0000803F 		.word	1065353216
  53              		.global	K_p
  54              		.align	2
  57              	K_p:
  58 001c 3333B33F 		.word	1068708659
  59              		.global	K_i
  60              		.align	2
  63              	K_i:
  64 0020 C7BA90BF 		.word	-1081034041
  65 0024 B6F37D3C 		.word	1014887350
  66 0028 61C3DF40 		.word	1088406369
  67 002c 2041DBC0 		.word	-1059372768
  68 0030 ED0D3E3B 		.word	993922541
  69 0034 8CDB903F 		.word	1066457996
  70 0038 AAF1DCC0 		.word	-1059262038
  71 003c AB3EDBC0 		.word	-1059373397
  72              		.global	v_desired
  73              		.bss
  74              		.align	2
  77              	v_desired:
  78 0000 00000000 		.space	12
  78      00000000 
  78      00000000 
  79              		.global	g
  80              		.data
  81              		.align	2
  84              	g:
  85 0040 0AE81C41 		.word	1092413450
  86              		.global	outter_count
  87              		.bss
  88              		.align	2
  91              	outter_count:
  92 000c 00000000 		.space	4
  93              		.global	epsilon_eq
  94              		.data
  95              		.align	2
  98              	epsilon_eq:
  99 0044 9983203D 		.word	1025541017
 100              		.global	nx_eq
 101              		.align	2
 104              	nx_eq:
 105 0048 34B9D8BD 		.word	-1109870284
 106              		.global	ny_eq
 107              		.bss
 108              		.align	2
 111              	ny_eq:
 112 0010 00000000 		.space	4
 113              		.global	nz_eq
 114              		.data
 115              		.align	2
 118              	nz_eq:
 119 004c 04907E3F 		.word	1065259012
 120              		.global	p_eq
 121              		.align	2
 124              	p_eq:
 125 0050 20D32CC0 		.word	-1070804192
 126              		.global	q_eq
 127              		.bss
 128              		.align	2
 131              	q_eq:
 132 0014 00000000 		.space	4
 133              		.global	r_eq
 134              		.data
 135              		.align	2
 138              	r_eq:
 139 0054 E8FFCA41 		.word	1103822824
 140              		.global	pd_eq
 141              		.bss
 142              		.align	2
 145              	pd_eq:
 146 0018 00000000 		.space	4
 147              		.global	qd_eq
 148              		.align	2
 151              	qd_eq:
 152 001c 00000000 		.space	4
 153              		.global	rd_eq
 154              		.align	2
 157              	rd_eq:
 158 0020 00000000 		.space	4
 159              		.global	w1_eq
 160              		.data
 161              		.align	2
 164              	w1_eq:
 165 0058 9CBF1944 		.word	1142538140
 166              		.global	w2_eq
 167              		.align	2
 170              	w2_eq:
 171 005c 9CBF1944 		.word	1142538140
 172              		.global	w3_eq
 173              		.align	2
 176              	w3_eq:
 177 0060 E56ED943 		.word	1138323173
 178              		.global	w4_eq
 179              		.bss
 180              		.align	2
 183              	w4_eq:
 184 0024 00000000 		.space	4
 185              		.global	se
 186              		.data
 187              		.align	2
 190              	se:
 191 0064 20D32CC0 		.word	-1070804192
 192 0068 00000000 		.word	0
 193 006c 34B9D8BD 		.word	-1109870284
 194 0070 00000000 		.word	0
 195              		.global	ue
 196              		.align	2
 199              	ue:
 200 0074 00000000 		.word	0
 201 0078 7F93B43F 		.word	1068798847
 202              		.text
 203              		.align	2
 204              		.global	lab
 206              	lab:
 207              	.LFB2:
 208              		.file 1 "lab.c"
   1:lab.c         **** /*
   2:lab.c         ****  * lab.c
   3:lab.c         ****  *
   4:lab.c         ****  *  Created on: Jan 26, 2015
   5:lab.c         ****  *      Author: hanley6
   6:lab.c         ****  */
   7:lab.c         **** 
   8:lab.c         **** /*----------------------------------------------------------------------*/
   9:lab.c         **** /*------------------------------ Preamble ------------------------------*/
  10:lab.c         **** /*----------------------------------------------------------------------*/
  11:lab.c         **** 
  12:lab.c         **** /*--------------- Includes ---------------*/
  13:lab.c         **** #include "lab.h"
  14:lab.c         **** #include "math.h"
  15:lab.c         **** /*------------- End Includes -------------*/
  16:lab.c         **** 
  17:lab.c         **** /*---------- Function Prototypes ---------*/
  18:lab.c         **** void lab3(void);
  19:lab.c         **** void convert_input_to_motor_commands(void);
  20:lab.c         **** void do_sensor_fusion(void);
  21:lab.c         **** /*-------- End Function Prototypes -------*/
  22:lab.c         **** 
  23:lab.c         **** /*--------------- Globals ----------------*/
  24:lab.c         **** struct imuSensor imusensor;
  25:lab.c         **** struct U u;
  26:lab.c         **** struct MOCAP mocap;
  27:lab.c         **** struct GoalPosYaw goalposyaw;
  28:lab.c         **** 
  29:lab.c         **** /////////// HUMMINGBIRD PARAMETERS /////////////
  30:lab.c         **** float mass = 0.715;
  31:lab.c         **** float kF = 7.46e-6;
  32:lab.c         **** float kM = 1.23e-7;
  33:lab.c         **** float l = 0.17;
  34:lab.c         **** float MAXPHI2 = 779.5638*779.5638;
  35:lab.c         **** float MINPHI2 = 112.705875*112.705875;
  36:lab.c         **** ////////////////////////////////////////////
  37:lab.c         **** 
  38:lab.c         **** /////////// CONTROLLER PARAMETERS /////////////
  39:lab.c         **** // The gain matrix has size 4x12 but is represented in C as an array
  40:lab.c         **** // with 48 elements. The first 12 elements are in the first row of the
  41:lab.c         **** // matrix, the second 12 in the second row, and so forth.
  42:lab.c         **** //float K[48] = {   0.000000000000014 ,  1.875007700503404 ,  0.000000000000054 ,  0.00000000000000
  43:lab.c         **** //				 -1.850925589056405 , -0.000000000000002 ,  0.000000000000061 ,  0.000000000000002 ,  2.03773
  44:lab.c         **** //				 -0.000000000000018 , -0.000000000000015 ,  0.000000000000027 ,  1.649473343767278 ,  0.00000
  45:lab.c         **** //				  0.000000000000044 , -0.000000000000062 , -6.492988611013611 , -0.000000000000000 , -0.00000
  46:lab.c         **** 
  47:lab.c         **** float K_d = 1;
  48:lab.c         **** float K_p = 1.4;
  49:lab.c         **** float K_i[8] = {-1.1307, 0.0155, 6.9926, -6.8517,
  50:lab.c         **** 				0.0029, 1.1317, -6.9045, -6.8514};
  51:lab.c         **** //-6.5 whatever
  52:lab.c         **** ////////////////////////////////////////////
  53:lab.c         **** 
  54:lab.c         **** 
  55:lab.c         **** // Other variables you'll need to work with
  56:lab.c         **** float cnt_u[4];
  57:lab.c         **** float o_desired[3];
  58:lab.c         **** float v_desired[3] = {0,0,0};
  59:lab.c         **** float yaw_desired;
  60:lab.c         **** float g = 9.80665;	// Standard Gravity m/s^2
  61:lab.c         **** float xd[12];   // discrete state (i.e., state error)
  62:lab.c         **** 
  63:lab.c         **** float fsum_des;
  64:lab.c         **** float n_des[3];
  65:lab.c         **** // Other variables you can ignore for now
  66:lab.c         **** float Winv[4*4];
  67:lab.c         **** float omega_cmd2[4];
  68:lab.c         **** float omega_cmd[4];
  69:lab.c         **** float cmd[4];
  70:lab.c         **** int outter_count=0;
  71:lab.c         **** float epsilon_eq=0.039188;
  72:lab.c         **** float nx_eq=-0.105822;
  73:lab.c         **** float ny_eq=0.000000 ;
  74:lab.c         **** float nz_eq=0.994385 ;
  75:lab.c         **** float p_eq=-2.700386 ;
  76:lab.c         **** float q_eq=0.000000 ;
  77:lab.c         **** float r_eq=25.374955 ;
  78:lab.c         **** float  pd_eq=0.000000 ;
  79:lab.c         **** float qd_eq=0.000000 ;
  80:lab.c         **** float rd_eq=0.000000 ;
  81:lab.c         **** float w1_eq=614.993890 ;
  82:lab.c         **** float w2_eq=614.993890 ;
  83:lab.c         **** float w3_eq=434.866350 ;
  84:lab.c         **** float w4_eq=0.000000;
  85:lab.c         **** float se[4] = {-2.700386, 0, -0.105822, 0};
  86:lab.c         **** float ue[2] = {0, (7.46e-6)*(434.866350)*(434.866350)};
  87:lab.c         **** 
  88:lab.c         **** 
  89:lab.c         **** 
  90:lab.c         **** /*------------- End Globals --------------*/
  91:lab.c         **** 
  92:lab.c         **** /*----------------------------------------------------------------------*/
  93:lab.c         **** /*---------------------------- End Preamble ----------------------------*/
  94:lab.c         **** /*----------------------------------------------------------------------*/
  95:lab.c         **** 
  96:lab.c         **** 
  97:lab.c         **** /*----------------------------------------------------------------------*/
  98:lab.c         **** /*------------------ Main Loop (called at 1 kHz) -----------------------*/
  99:lab.c         **** /*----------------------------------------------------------------------*/
 100:lab.c         **** void lab(void)
 101:lab.c         **** {
 209              	2:
 210              		.loc 1 103 0
 211              		ldr	r3, .L3
 212              		ldr	r2, [r3, #0]	@ float
 213 0000 0DC0A0E1 		ldr	r3, .L3+4
 214              		str	r2, [r3, #0]	@ float
 215 0004 00D82DE9 		.loc 1 104 0
 216              		ldr	r3, .L3
 217 0008 04B04CE2 		ldr	r2, [r3, #4]	@ float
 218              		ldr	r3, .L3+4
 102:lab.c         **** 	// Desired Position
 103:lab.c         **** 	o_desired[0] = goalposyaw.x;	// x/North (m)
 219              	r3, #4]	@ float
 220 000c 50309FE5 		.loc 1 105 0
 221 0010 002093E5 		ldr	r3, .L3
 222 0014 4C309FE5 		ldr	r2, [r3, #8]	@ float
 223 0018 002083E5 		ldr	r3, .L3+4
 104:lab.c         **** 	o_desired[1] = goalposyaw.y;	// y/East (m)
 224              	r2, [r3, #8]	@ float
 225 001c 40309FE5 		.loc 1 106 0
 226 0020 042093E5 		ldr	r3, .L3
 227 0024 3C309FE5 		ldr	r2, [r3, #12]	@ float
 228 0028 042083E5 		ldr	r3, .L3+8
 105:lab.c         **** 	o_desired[2] = goalposyaw.z;	// z/Down (m)
 229              	r2, [r3, #0]	@ float
 230 002c 30309FE5 		.loc 1 111 0
 231 0030 082093E5 		bl	do_sensor_fusion
 232 0034 2C309FE5 		.loc 1 114 0
 233 0038 082083E5 		bl	lab3
 106:lab.c         **** 	yaw_desired = goalposyaw.yaw;	// yaw (rad)
 234              	 1 117 0
 235 003c 20309FE5 		bl	convert_input_to_motor_commands
 236 0040 0C2093E5 		.loc 1 118 0
 237 0044 20309FE5 		sub	sp, fp, #12
 238 0048 002083E5 		ldmfd	sp, {fp, sp, lr}
 107:lab.c         **** 	//float v_desired[0] = 0;
 108:lab.c         **** 	//float v_desired[1] = 0;
 109:lab.c         **** 	//float v_desired[2] = 0;
 110:lab.c         **** 	// Fuse mocap measurements with IMU measurements
 111:lab.c         **** 	do_sensor_fusion();
 239              	r
 240 004c FEFFFFEB 	.L4:
 112:lab.c         **** 
 113:lab.c         **** 	// Run controller to choose inputs (modify struct u)
 114:lab.c         **** 	lab3();
 241              	align	2
 242 0050 FEFFFFEB 	.L3:
 115:lab.c         **** 
 116:lab.c         **** 	// Convert inputs to motor commands
 117:lab.c         **** 	convert_input_to_motor_commands();
 243              	word	goalposyaw
 244 0054 FEFFFFEB 		.word	o_desired
 118:lab.c         **** }
 245              	word	yaw_desired
 246 0058 0CD04BE2 	.LFE2:
 248 0060 1EFF2FE1 		.global	LED1toggle
 249              		.bss
 250              		.align	2
 253 0068 00000000 	LED1toggle:
 254 006c 00000000 		.space	4
 255              		.global	LED1count
 256              		.align	2
 259              	LED1count:
 260              		.space	4
 261              		.global	numCMDs
 262              		.align	2
 265              	numCMDs:
 266              		.space	4
 267              		.global	__nesf2
 268              		.global	__floatsidf
 269 002c 00000000 		.global	__adddf3
 270              		.global	__fixdfsi
 271              		.global	__subsf3
 272              		.global	__extendsfdf2
 273              		.global	__divdf3
 274              		.global	__truncdfsf2
 275 0030 00000000 		.text
 276              		.align	2
 277              		.global	do_sensor_fusion
 279              	do_sensor_fusion:
 280              	.LFB3:
 281              		.loc 1 131 0
 282              		@ Function supports interworking.
 283              		@ args = 0, pretend = 0, frame = 4
 284              		@ frame_needed = 1, uses_anonymous_args = 0
 285              		mov	ip, sp
 286              	.LCFI3:
 287              		stmfd	sp!, {r4, fp, ip, lr, pc}
 288              	.LCFI4:
 289              		sub	fp, ip, #4
 119:lab.c         **** /*----------------------------------------------------------------------*/
 120:lab.c         **** /*---------------- End Main Loop (called at 1 kHz) ---------------------*/
 121:lab.c         **** /*----------------------------------------------------------------------*/
 122:lab.c         **** 
 123:lab.c         **** /*----------------------------------------------------------------------*/
 124:lab.c         **** /*------------------------------ Helpers -------------------------------*/
 125:lab.c         **** /*----------------------------------------------------------------------*/
 126:lab.c         **** /*---------- Velocity Estimator ----------*/
 127:lab.c         **** int LED1toggle = 0;
 128:lab.c         **** int LED1count = 0;
 129:lab.c         **** int numCMDs = 0.0;
 130:lab.c         **** 
 131:lab.c         **** void do_sensor_fusion() {
 290              	
 291              		ldr	r3, .L18+8
 292              		ldr	r2, [r3, #8]	@ float
 293              		ldr	r3, .L18+12
 294 0070 0DC0A0E1 		ldr	r3, [r3, #0]	@ float
 295              		mov	r0, r2
 296 0074 10D82DE9 		mov	r1, r3
 297              		bl	__nesf2
 298 0078 04B04CE2 		mov	r3, r0
 299              		cmp	r3, #0
 300 007c 04D04DE2 		bne	.L6
 301              		ldr	r3, .L18+8
 132:lab.c         **** 
 133:lab.c         ****     // Only proceed if the mocap measurements have changed
 134:lab.c         **** 	if ( (previousXMeas != mocap.dX) || (previousYMeas != mocap.dY) || (previousZMeas != mocap.dZ) ) {
 302              	3, #12]	@ float
 303 0080 78339FE5 		ldr	r3, .L18+16
 304 0084 082093E5 		ldr	r3, [r3, #0]	@ float
 305 0088 74339FE5 		mov	r0, r2
 306 008c 003093E5 		mov	r1, r3
 307 0090 0200A0E1 		bl	__nesf2
 308 0094 0310A0E1 		mov	r3, r0
 309 0098 FEFFFFEB 		cmp	r3, #0
 310 009c 0030A0E1 		bne	.L6
 311 00a0 000053E3 		ldr	r3, .L18+8
 312 00a4 1400001A 		ldr	r2, [r3, #16]	@ float
 313 00a8 50339FE5 		ldr	r3, .L18+20
 314 00ac 0C2093E5 		ldr	r3, [r3, #0]	@ float
 315 00b0 50339FE5 		mov	r0, r2
 316 00b4 003093E5 		mov	r1, r3
 317 00b8 0200A0E1 		bl	__nesf2
 318 00bc 0310A0E1 		mov	r3, r0
 319 00c0 FEFFFFEB 		cmp	r3, #0
 320 00c4 0030A0E1 		bne	.L6
 321 00c8 000053E3 		b	.L9
 322 00cc 0A00001A 	.L6:
 323 00d0 28339FE5 		.loc 1 135 0
 324 00d4 102093E5 		ldr	r3, .L18+24
 325 00d8 2C339FE5 		ldr	r3, [r3, #0]
 326 00dc 003093E5 		mov	r0, r3
 327 00e0 0200A0E1 		bl	__floatsidf
 328 00e4 0310A0E1 		mov	r3, r0
 329 00e8 FEFFFFEB 		mov	r4, r1
 330 00ec 0030A0E1 		mov	r0, r3
 331 00f0 000053E3 		mov	r1, r4
 332 00f4 0000001A 		mov	r2, #1069547520
 333 00f8 AF0000EA 		add	r2, r2, #3145728
 334              		mov	r3, #0
 135:lab.c         **** 		numCMDs = numCMDs + 1.0;
 335              	 r1
 336 00fc 0C339FE5 		mov	r0, r3
 337 0100 003093E5 		mov	r1, r4
 338 0104 0300A0E1 		bl	__fixdfsi
 339 0108 FEFFFFEB 		mov	r2, r0
 340 010c 0030A0E1 		ldr	r3, .L18+24
 341 0110 0140A0E1 		str	r2, [r3, #0]
 342 0114 0300A0E1 		.loc 1 136 0
 343 0118 0410A0E1 		ldr	r3, .L18+28
 344 011c FF25A0E3 		ldr	r3, [r3, #0]
 345 0120 032682E2 		add	r2, r3, #1
 346 0124 0030A0E3 		ldr	r3, .L18+28
 347 0128 FEFFFFEB 		str	r2, [r3, #0]
 348 012c 0030A0E1 		.loc 1 137 0
 349 0130 0140A0E1 		ldr	r3, .L18+28
 350 0134 0300A0E1 		ldr	r1, [r3, #0]
 351 0138 0410A0E1 		ldr	r3, .L18+32
 352 013c FEFFFFEB 		smull	r2, r3, r1, r3
 353 0140 0020A0E1 		mov	r2, r3, asr #2
 354 0144 C4329FE5 		mov	r3, r1, asr #31
 355 0148 002083E5 		rsb	r2, r3, r2
 136:lab.c         **** 		LED1count++;
 356              	ldr	r3, [fp, #-20]
 357 014c C0329FE5 		mov	r3, r3, asl #2
 358 0150 003093E5 		ldr	r2, [fp, #-20]
 359 0154 012083E2 		add	r3, r3, r2
 360 0158 B4329FE5 		mov	r3, r3, asl #1
 361 015c 002083E5 		rsb	r1, r3, r1
 137:lab.c         **** 		if (0==(LED1count%10)) {
 362              	1, [fp, #-20]
 363 0160 AC329FE5 		ldr	r3, [fp, #-20]
 364 0164 001093E5 		cmp	r3, #0
 365 0168 A8329FE5 		bne	.L11
 366 016c 9123C3E0 		.loc 1 138 0
 367 0170 4321A0E1 		ldr	r3, .L18+36
 368 0174 C13FA0E1 		ldr	r3, [r3, #0]
 369 0178 022063E0 		cmp	r3, #0
 370 017c 14200BE5 		bne	.L13
 371 0180 14301BE5 		.loc 1 139 0
 372 0184 0331A0E1 		mov	r0, #1
 373 0188 14201BE5 		mov	r1, #0
 374 018c 023083E0 		bl	LED
 375 0190 8330A0E1 		.loc 1 140 0
 376 0194 011063E0 		ldr	r2, .L18+36
 377 0198 14100BE5 		mov	r3, #1
 378 019c 14301BE5 		str	r3, [r2, #0]
 379 01a0 000053E3 		b	.L11
 380 01a4 1000001A 	.L13:
 138:lab.c         **** 			if (LED1toggle == 0) {
 381              	r0, #1
 382 01a8 6C329FE5 		mov	r1, #1
 383 01ac 003093E5 		bl	LED
 384 01b0 000053E3 		.loc 1 143 0
 385 01b4 0600001A 		ldr	r2, .L18+36
 139:lab.c         **** 				LED(1,OFF);
 386              	r3, #0
 387 01b8 0100A0E3 		str	r3, [r2, #0]
 388 01bc 0010A0E3 	.L11:
 389 01c0 FEFFFFEB 		.loc 1 147 0
 140:lab.c         **** 				LED1toggle = 1;
 390              		r3, .L18+40
 391 01c4 50229FE5 		ldr	r3, [r3, #0]
 392 01c8 0130A0E3 		cmp	r3, #0
 393 01cc 003082E5 		bne	.L15
 394 01d0 050000EA 		.loc 1 150 0
 395              		ldr	r3, .L18+8
 141:lab.c         **** 			} else {
 142:lab.c         **** 				LED(1,ON);
 396              	2, [r3, #8]	@ float
 397 01d4 0100A0E3 		ldr	r3, .L18+8
 398 01d8 0110A0E3 		str	r2, [r3, #8]	@ float
 399 01dc FEFFFFEB 		.loc 1 151 0
 143:lab.c         **** 				LED1toggle = 0;
 400              		r3, .L18+8
 401 01e0 34229FE5 		ldr	r2, [r3, #12]	@ float
 402 01e4 0030A0E3 		ldr	r3, .L18+8
 403 01e8 003082E5 		str	r2, [r3, #12]	@ float
 404              		.loc 1 152 0
 144:lab.c         **** 			}
 145:lab.c         **** 		}
 146:lab.c         ****  		// Velocity Estimation
 147:lab.c         **** 		if (initialize == 0)
 405              	r3, .L18+8
 406 01ec 2C329FE5 		ldr	r2, [r3, #16]	@ float
 407 01f0 003093E5 		ldr	r3, .L18+8
 408 01f4 000053E3 		str	r2, [r3, #16]	@ float
 409 01f8 1800001A 		.loc 1 153 0
 148:lab.c         **** 		{
 149:lab.c         **** 			// Initialization
 150:lab.c         **** 			mocap.dX = mocap.dX;
 410              	r2, .L18+8
 411 01fc FC319FE5 		ldr	r3, .L18+44	@ float
 412 0200 082093E5 		str	r3, [r2, #32]	@ float
 413 0204 F4319FE5 		.loc 1 154 0
 414 0208 082083E5 		ldr	r2, .L18+8
 151:lab.c         **** 			mocap.dY = mocap.dY;
 415              	r3, .L18+44	@ float
 416 020c EC319FE5 		str	r3, [r2, #36]	@ float
 417 0210 0C2093E5 		.loc 1 155 0
 418 0214 E4319FE5 		ldr	r2, .L18+8
 419 0218 0C2083E5 		ldr	r3, .L18+44	@ float
 152:lab.c         **** 			mocap.dZ = mocap.dZ;
 420              	r3, [r2, #40]	@ float
 421 021c DC319FE5 		.loc 1 157 0
 422 0220 102093E5 		ldr	r2, .L18+40
 423 0224 D4319FE5 		mov	r3, #1
 424 0228 102083E5 		str	r3, [r2, #0]
 153:lab.c         **** 			mocap.dVx = 0.0;
 425              	9
 426 022c CC219FE5 	.L15:
 427 0230 EC319FE5 		.loc 1 162 0
 428 0234 203082E5 		ldr	r3, .L18+8
 154:lab.c         **** 			mocap.dVy = 0.0;
 429              		r2, [r3, #8]	@ float
 430 0238 C0219FE5 		ldr	r3, .L18+12
 431 023c E0319FE5 		ldr	r3, [r3, #0]	@ float
 432 0240 243082E5 		mov	r0, r2
 155:lab.c         **** 			mocap.dVz = 0.0;
 433              		r1, r3
 434 0244 B4219FE5 		bl	__subsf3
 435 0248 D4319FE5 		mov	r3, r0
 436 024c 283082E5 		mov	r0, r3
 156:lab.c         **** 
 157:lab.c         **** 			initialize = 1;
 437              	__extendsfdf2
 438 0250 C8219FE5 		mov	r3, r0
 439 0254 0130A0E3 		mov	r4, r1
 440 0258 003082E5 		mov	r0, r3
 441 025c 560000EA 		mov	r1, r4
 442              		adr	r2, .L18
 158:lab.c         **** 		}
 159:lab.c         **** 		else
 160:lab.c         **** 		{
 161:lab.c         **** 
 162:lab.c         **** 			mocap.dVx = (mocap.dX - previousXMeas)/0.02;
 443              		r2, {r2-r3}
 444 0260 98319FE5 		bl	__divdf3
 445 0264 082093E5 		mov	r3, r0
 446 0268 94319FE5 		mov	r4, r1
 447 026c 003093E5 		mov	r0, r3
 448 0270 0200A0E1 		mov	r1, r4
 449 0274 0310A0E1 		bl	__truncdfsf2
 450 0278 FEFFFFEB 		mov	r2, r0
 451 027c 0030A0E1 		ldr	r3, .L18+8
 452 0280 0300A0E1 		str	r2, [r3, #32]	@ float
 453 0284 FEFFFFEB 		.loc 1 163 0
 454 0288 0030A0E1 		ldr	r3, .L18+8
 455 028c 0140A0E1 		ldr	r2, [r3, #12]	@ float
 456 0290 0300A0E1 		ldr	r3, .L18+16
 457 0294 0410A0E1 		ldr	r3, [r3, #0]	@ float
 458 0298 562F8FE2 		mov	r0, r2
 459 029c 0C0092E8 		mov	r1, r3
 460 02a0 FEFFFFEB 		bl	__subsf3
 461 02a4 0030A0E1 		mov	r3, r0
 462 02a8 0140A0E1 		mov	r0, r3
 463 02ac 0300A0E1 		bl	__extendsfdf2
 464 02b0 0410A0E1 		mov	r3, r0
 465 02b4 FEFFFFEB 		mov	r4, r1
 466 02b8 0020A0E1 		mov	r0, r3
 467 02bc 3C319FE5 		mov	r1, r4
 468 02c0 202083E5 		adr	r2, .L18
 163:lab.c         **** 			mocap.dVy = (mocap.dY - previousYMeas)/0.02;
 469              	ivdf3
 470 02c4 34319FE5 		mov	r3, r0
 471 02c8 0C2093E5 		mov	r4, r1
 472 02cc 34319FE5 		mov	r0, r3
 473 02d0 003093E5 		mov	r1, r4
 474 02d4 0200A0E1 		bl	__truncdfsf2
 475 02d8 0310A0E1 		mov	r2, r0
 476 02dc FEFFFFEB 		ldr	r3, .L18+8
 477 02e0 0030A0E1 		str	r2, [r3, #36]	@ float
 478 02e4 0300A0E1 		.loc 1 164 0
 479 02e8 FEFFFFEB 		ldr	r3, .L18+8
 480 02ec 0030A0E1 		ldr	r2, [r3, #16]	@ float
 481 02f0 0140A0E1 		ldr	r3, .L18+20
 482 02f4 0300A0E1 		ldr	r3, [r3, #0]	@ float
 483 02f8 0410A0E1 		mov	r0, r2
 484 02fc F4208FE2 		mov	r1, r3
 485 0300 0C0092E8 		bl	__subsf3
 486 0304 FEFFFFEB 		mov	r3, r0
 487 0308 0030A0E1 		mov	r0, r3
 488 030c 0140A0E1 		bl	__extendsfdf2
 489 0310 0300A0E1 		mov	r3, r0
 490 0314 0410A0E1 		mov	r4, r1
 491 0318 FEFFFFEB 		mov	r0, r3
 492 031c 0020A0E1 		mov	r1, r4
 493 0320 D8309FE5 		adr	r2, .L18
 494 0324 242083E5 		ldmia	r2, {r2-r3}
 164:lab.c         **** 			mocap.dVz = (mocap.dZ - previousZMeas)/0.02;
 495              	mov	r4, r1
 496 0328 D0309FE5 		mov	r0, r3
 497 032c 102093E5 		mov	r1, r4
 498 0330 D4309FE5 		bl	__truncdfsf2
 499 0334 003093E5 		mov	r2, r0
 500 0338 0200A0E1 		ldr	r3, .L18+8
 501 033c 0310A0E1 		str	r2, [r3, #40]	@ float
 502 0340 FEFFFFEB 		.loc 1 167 0
 503 0344 0030A0E1 		ldr	r3, .L18+8
 504 0348 0300A0E1 		ldr	r2, [r3, #8]	@ float
 505 034c FEFFFFEB 		ldr	r3, .L18+8
 506 0350 0030A0E1 		str	r2, [r3, #8]	@ float
 507 0354 0140A0E1 		.loc 1 168 0
 508 0358 0300A0E1 		ldr	r3, .L18+8
 509 035c 0410A0E1 		ldr	r2, [r3, #12]	@ float
 510 0360 90208FE2 		ldr	r3, .L18+8
 511 0364 0C0092E8 		str	r2, [r3, #12]	@ float
 512 0368 FEFFFFEB 		.loc 1 169 0
 513 036c 0030A0E1 		ldr	r3, .L18+8
 514 0370 0140A0E1 		ldr	r2, [r3, #16]	@ float
 515 0374 0300A0E1 		ldr	r3, .L18+8
 516 0378 0410A0E1 		str	r2, [r3, #16]	@ float
 517 037c FEFFFFEB 	.L9:
 518 0380 0020A0E1 		.loc 1 175 0
 519 0384 74309FE5 		ldr	r3, .L18+8
 520 0388 282083E5 		ldr	r2, [r3, #8]	@ float
 165:lab.c         **** 
 166:lab.c         **** 			// Set Position
 167:lab.c         **** 			mocap.dX = mocap.dX;
 521              	[r3, #0]	@ float
 522 038c 6C309FE5 		.loc 1 176 0
 523 0390 082093E5 		ldr	r3, .L18+8
 524 0394 64309FE5 		ldr	r2, [r3, #12]	@ float
 525 0398 082083E5 		ldr	r3, .L18+16
 168:lab.c         **** 			mocap.dY = mocap.dY;
 526              	r2, [r3, #0]	@ float
 527 039c 5C309FE5 		.loc 1 177 0
 528 03a0 0C2093E5 		ldr	r3, .L18+8
 529 03a4 54309FE5 		ldr	r2, [r3, #16]	@ float
 530 03a8 0C2083E5 		ldr	r3, .L18+20
 169:lab.c         **** 			mocap.dZ = mocap.dZ;
 531              	r2, [r3, #0]	@ float
 532 03ac 4C309FE5 		.loc 1 179 0
 533 03b0 102093E5 		sub	sp, fp, #16
 534 03b4 44309FE5 		ldmfd	sp, {r4, fp, sp, lr}
 535 03b8 102083E5 		bx	lr
 536              	.L19:
 170:lab.c         **** 
 171:lab.c         **** 			/*--- End Low Pass Filtering ---*/
 172:lab.c         **** 		}
 173:lab.c         **** 	}
 174:lab.c         **** 	// Save Current MoCap Measurement as Previous Measurement
 175:lab.c         **** 	previousXMeas = mocap.dX;
 537              	n	2
 538 03bc 3C309FE5 	.L18:
 539 03c0 082093E5 		.word	1066695393
 540 03c4 38309FE5 		.word	1202590843
 541 03c8 002083E5 		.word	mocap
 176:lab.c         **** 	previousYMeas = mocap.dY;
 542              	d	previousXMeas
 543 03cc 2C309FE5 		.word	previousYMeas
 544 03d0 0C2093E5 		.word	previousZMeas
 545 03d4 2C309FE5 		.word	numCMDs
 546 03d8 002083E5 		.word	LED1count
 177:lab.c         **** 	previousZMeas = mocap.dZ;
 547              	d	1717986919
 548 03dc 1C309FE5 		.word	LED1toggle
 549 03e0 102093E5 		.word	initialize
 550 03e4 20309FE5 		.word	0
 551 03e8 002083E5 	.LFE3:
 178:lab.c         **** 
 179:lab.c         **** }
 552              	e	do_sensor_fusion, .-do_sensor_fusion
 553 03ec 10D04BE2 		.global	LED0timeCount
 554 03f0 10689DE8 		.bss
 555 03f4 1EFF2FE1 		.align	2
 558              	LED0timeCount:
 559 03f8 E17A943F 		.space	4
 560 03fc 7B14AE47 		.global	LED0toggle
 561 0400 00000000 		.align	2
 564 040c 00000000 	LED0toggle:
 565 0410 00000000 		.space	4
 566 0414 00000000 		.section	.rodata
 567 0418 67666666 		.align	2
 570 0424 00000000 	C.23.3776:
 571              		.space	12
 572              		.global	__mulsf3
 573              		.global	__muldf3
 574              		.global	__subdf3
 575              		.global	__divsf3
 576              		.global	__addsf3
 577              		.text
 578              		.align	2
 579 0034 00000000 		.global	lab3
 581              	lab3:
 582              	.LFB4:
 583              		.loc 1 189 0
 584              		@ Function supports interworking.
 585 0038 00000000 		@ args = 0, pretend = 0, frame = 128
 586              		@ frame_needed = 1, uses_anonymous_args = 0
 587              		mov	ip, sp
 588              	.LCFI7:
 589              		stmfd	sp!, {r4, r5, r6, r7, r8, r9, sl, fp, ip, lr, pc}
 590              	.LCFI8:
 591 0000 00000000 		sub	fp, ip, #4
 591      00000000 
 591      00000000 
 592              	.LCFI9:
 593              		sub	sp, sp, #136
 594              	.LCFI10:
 595              		.loc 1 195 0
 596              		ldr	r3, .L28+4
 597              		ldr	r3, [r3, #0]
 598              		cmp	r3, #250
 599              		bne	.L21
 600              		.loc 1 196 0
 601              		ldr	r2, .L28+4
 602              		mov	r3, #0
 180:lab.c         **** 
 181:lab.c         **** /*-------- End Velocity Estimator --------*/
 182:lab.c         **** 
 183:lab.c         **** 
 184:lab.c         **** 
 185:lab.c         **** /*-------------- Controller --------------*/
 186:lab.c         **** int LED0timeCount = 0;
 187:lab.c         **** int LED0toggle = 0;
 188:lab.c         **** 
 189:lab.c         **** void lab3() {
 603              	r3, [r3, #0]
 604              		cmp	r3, #0
 605              		bne	.L23
 606              		.loc 1 198 0
 607 0428 0DC0A0E1 		mov	r0, #0
 608              		mov	r1, #0
 609 042c F0DF2DE9 		bl	LED
 610              		.loc 1 199 0
 611 0430 04B04CE2 		ldr	r2, .L28
 612              		mov	r3, #1
 613 0434 88D04DE2 		str	r3, [r2, #0]
 614              		b	.L21
 190:lab.c         **** 
 191:lab.c         ****     ////////////////////////
 192:lab.c         ****     // DO NOT MODIFY
 193:lab.c         ****     //
 194:lab.c         ****     // Turn LEDs on and off for diagnostics
 195:lab.c         **** 	if (LED0timeCount == 250) {
 615              	n	2
 616 0438 44309FE5 	.L28:
 617 043c 003093E5 		.word	LED0toggle
 618 0440 FA0053E3 		.word	LED0timeCount
 619 0444 1E00001A 		.word	goalposyaw
 196:lab.c         **** 		LED0timeCount = 0;
 620              	d	mocap
 621 0448 34209FE5 		.word	imusensor
 622 044c 0030A0E3 		.word	outter_count
 623 0450 003082E5 		.word	1717986919
 197:lab.c         **** 		if (LED0toggle == 0) {
 624              	rd	K_d
 625 0454 24309FE5 		.word	K_p
 626 0458 003093E5 		.word	g
 627 045c 000053E3 		.word	xd
 628 0460 1100001A 	.L23:
 198:lab.c         **** 			LED(0,OFF);
 629              	 1 201 0
 630 0464 0000A0E3 		mov	r0, #0
 631 0468 0010A0E3 		mov	r1, #1
 632 046c FEFFFFEB 		bl	LED
 199:lab.c         **** 			LED0toggle = 1;
 633              	c 1 202 0
 634 0470 08209FE5 		ldr	r2, .L28
 635 0474 0130A0E3 		mov	r3, #0
 636 0478 003082E5 		str	r3, [r2, #0]
 637 047c 100000EA 	.L21:
 638              		.loc 1 205 0
 639              		ldr	r3, .L28+4
 640              		ldr	r3, [r3, #0]
 641 0480 00000000 		add	r2, r3, #1
 642 0484 00000000 		ldr	r3, .L28+4
 643 0488 00000000 		str	r2, [r3, #0]
 644 048c 00000000 		.loc 1 230 0
 645 0490 00000000 		ldr	r3, .L28+12
 646 0494 00000000 		ldr	r2, [r3, #8]	@ float
 647 0498 67666666 		ldr	r3, .L28+8
 648 049c 00000000 		ldr	r3, [r3, #0]	@ float
 649 04a0 00000000 		mov	r0, r2
 650 04a4 00000000 		mov	r1, r3
 651 04a8 00000000 		bl	__subsf3
 652              		mov	r3, r0
 200:lab.c         **** 		} else {
 201:lab.c         **** 			LED(0,ON);
 653              	 .L28+40
 654 04ac 0000A0E3 		str	r2, [r3, #0]	@ float
 655 04b0 0110A0E3 		.loc 1 231 0
 656 04b4 FEFFFFEB 		ldr	r3, .L28+12
 202:lab.c         **** 			LED0toggle = 0;
 657              		r2, [r3, #12]	@ float
 658 04b8 40201FE5 		ldr	r3, .L28+8
 659 04bc 0030A0E3 		ldr	r3, [r3, #4]	@ float
 660 04c0 003082E5 		mov	r0, r2
 661              		mov	r1, r3
 203:lab.c         **** 		}
 204:lab.c         **** 	}
 205:lab.c         **** 	LED0timeCount++;
 662              	_subsf3
 663 04c4 48301FE5 		mov	r3, r0
 664 04c8 003093E5 		mov	r2, r3
 665 04cc 012083E2 		ldr	r3, .L28+40
 666 04d0 54301FE5 		str	r2, [r3, #4]	@ float
 667 04d4 002083E5 		.loc 1 232 0
 206:lab.c         ****     //
 207:lab.c         ****     ////////////////////////
 208:lab.c         **** 
 209:lab.c         ****     // Compute: xd = x - xe
 210:lab.c         ****     //
 211:lab.c         ****     //  xd, a 12x1 matrix, is represented in C code as a float array of length 12
 212:lab.c         ****     //  If you order states as o, theta, v, w, then:
 213:lab.c         ****     //      xd[0] is o1 - o1e
 214:lab.c         ****     //      xd[1] is o2 - o2e
 215:lab.c         ****     //      ...
 216:lab.c         ****     //      xd[11] is w3 - w3e
 217:lab.c         ****     //
 218:lab.c         ****     //  measurement of o:
 219:lab.c         ****     //      mocap.dX, mocap.dY, mocap.dZ
 220:lab.c         ****     //  measurement of theta:
 221:lab.c         ****     //      mocap.dThetaz, imusensor.dThetay, imusensor.dThetax
 222:lab.c         ****     //  measurement of v:
 223:lab.c         ****     //      mocap.dVx, mocap.dVy, mocap.dVz
 224:lab.c         ****     //  measurement of w:
 225:lab.c         ****     //      imusensor.dOmegax, imusensor.dOmegay, imusensor.dOmegaz
 226:lab.c         ****     //
 227:lab.c         ****     // CHANGE!!!
 228:lab.c         **** 
 229:lab.c         **** 
 230:lab.c         ****     xd[0] = mocap.dX - goalposyaw.x;
 668              	3, .L28+12
 669 04d8 54301FE5 		ldr	r2, [r3, #16]	@ float
 670 04dc 082093E5 		ldr	r3, .L28+8
 671 04e0 60301FE5 		ldr	r3, [r3, #8]	@ float
 672 04e4 003093E5 		mov	r0, r2
 673 04e8 0200A0E1 		mov	r1, r3
 674 04ec 0310A0E1 		bl	__subsf3
 675 04f0 FEFFFFEB 		mov	r3, r0
 676 04f4 0030A0E1 		mov	r2, r3
 677 04f8 0320A0E1 		ldr	r3, .L28+40
 678 04fc 5C301FE5 		str	r2, [r3, #8]	@ float
 679 0500 002083E5 		.loc 1 233 0
 231:lab.c         ****     xd[1] = mocap.dY - goalposyaw.y;
 680              	8+12
 681 0504 80301FE5 		ldr	r2, [r3, #28]	@ float
 682 0508 0C2093E5 		ldr	r3, .L28+40
 683 050c 8C301FE5 		str	r2, [r3, #12]	@ float
 684 0510 043093E5 		.loc 1 234 0
 685 0514 0200A0E1 		ldr	r3, .L28+16
 686 0518 0310A0E1 		ldr	r2, [r3, #8]	@ float
 687 051c FEFFFFEB 		ldr	r3, .L28+40
 688 0520 0030A0E1 		str	r2, [r3, #16]	@ float
 689 0524 0320A0E1 		.loc 1 235 0
 690 0528 88301FE5 		ldr	r3, .L28+16
 691 052c 042083E5 		ldr	r2, [r3, #4]	@ float
 232:lab.c         ****     xd[2] = mocap.dZ - goalposyaw.z;
 692              	8+40
 693 0530 AC301FE5 		str	r2, [r3, #20]	@ float
 694 0534 102093E5 		.loc 1 236 0
 695 0538 B8301FE5 		ldr	r3, .L28+12
 696 053c 083093E5 		ldr	r2, [r3, #32]	@ float
 697 0540 0200A0E1 		ldr	r3, .L28+40
 698 0544 0310A0E1 		str	r2, [r3, #24]	@ float
 699 0548 FEFFFFEB 		.loc 1 237 0
 700 054c 0030A0E1 		ldr	r3, .L28+12
 701 0550 0320A0E1 		ldr	r2, [r3, #36]	@ float
 702 0554 B4301FE5 		ldr	r3, .L28+40
 703 0558 082083E5 		str	r2, [r3, #28]	@ float
 233:lab.c         ****     xd[3] =  mocap.dThetaz - 0.0;
 704              	0
 705 055c D8301FE5 		ldr	r3, .L28+12
 706 0560 1C2093E5 		ldr	r2, [r3, #40]	@ float
 707 0564 C4301FE5 		ldr	r3, .L28+40
 708 0568 0C2083E5 		str	r2, [r3, #32]	@ float
 234:lab.c         ****     xd[4] =  imusensor.dThetay - 0.0;
 709              	 1 239 0
 710 056c E4301FE5 		ldr	r3, .L28+16
 711 0570 082093E5 		ldr	r2, [r3, #28]	@ float
 712 0574 D4301FE5 		ldr	r3, .L28+40
 713 0578 102083E5 		str	r2, [r3, #36]	@ float
 235:lab.c         ****     xd[5] =  imusensor.dThetax - 0.0;
 714              	 1 240 0
 715 057c F4301FE5 		ldr	r3, .L28+16
 716 0580 042093E5 		ldr	r2, [r3, #32]	@ float
 717 0584 E4301FE5 		ldr	r3, .L28+40
 718 0588 142083E5 		str	r2, [r3, #40]	@ float
 236:lab.c         ****     xd[6] = mocap.dVx - 0.0;
 719              	 1 241 0
 720 058c 08311FE5 		ldr	r3, .L28+16
 721 0590 202093E5 		ldr	r2, [r3, #36]	@ float
 722 0594 F4301FE5 		ldr	r3, .L28+40
 723 0598 182083E5 		str	r2, [r3, #44]	@ float
 237:lab.c         ****     xd[7] = mocap.dVy - 0.0;
 724              	 1 257 0
 725 059c 18311FE5 		ldr	r3, .L28+20
 726 05a0 242093E5 		ldr	r3, [r3, #0]
 727 05a4 04311FE5 		add	r2, r3, #1
 728 05a8 1C2083E5 		ldr	r3, .L28+20
 238:lab.c         ****     xd[8] = mocap.dVz - 0.0;
 729              	r2, [r3, #0]
 730 05ac 28311FE5 		.loc 1 258 0
 731 05b0 282093E5 		ldr	r3, .L28+20
 732 05b4 14311FE5 		ldr	r1, [r3, #0]
 733 05b8 202083E5 		ldr	r3, .L28+24
 239:lab.c         ****     xd[9] = imusensor.dOmegax - 0.0;
 734              	l	r2, r3, r1, r3
 735 05bc 34311FE5 		mov	r2, r3, asr #3
 736 05c0 1C2093E5 		mov	r3, r1, asr #31
 737 05c4 24311FE5 		rsb	r2, r3, r2
 738 05c8 242083E5 		str	r2, [fp, #-168]
 240:lab.c         ****     xd[10] = imusensor.dOmegay - 0.0;
 739              	r3, [fp, #-168]
 740 05cc 44311FE5 		mov	r3, r3, asl #2
 741 05d0 202093E5 		ldr	r2, [fp, #-168]
 742 05d4 34311FE5 		add	r3, r3, r2
 743 05d8 282083E5 		mov	r3, r3, asl #2
 241:lab.c         ****     xd[11] = imusensor.dOmegaz - 0.0;
 744              	r1, r3, r1
 745 05dc 54311FE5 		str	r1, [fp, #-168]
 746 05e0 242093E5 		ldr	r3, [fp, #-168]
 747 05e4 44311FE5 		cmp	r3, #0
 748 05e8 2C2083E5 		bne	.L25
 242:lab.c         **** 
 243:lab.c         ****     //////////////////////////////////////////////////////
 244:lab.c         ****     // Start the outer loop this defines 2 parameters from
 245:lab.c         ****     // state variables that the inner loop seeks to match.
 246:lab.c         ****     //
 247:lab.c         ****     // Target orientation vector defined in
 248:lab.c         ****     // room frame and rotated to body frame:
 249:lab.c         ****     // n_des = [nx ny nz];
 250:lab.c         ****     //
 251:lab.c         ****     // Target total force:
 252:lab.c         ****     // fsum_des
 253:lab.c         ****     //
 254:lab.c         ****     // Pass to inner loop to control the quadcopter
 255:lab.c         ****     //
 256:lab.c         ****     //////////////////////////////////////////////////////
 257:lab.c         ****     outter_count++;
 749              	:
 750 05ec 60311FE5 		.loc 1 260 0
 751 05f0 003093E5 		ldr	r3, .L28+28
 752 05f4 012083E2 		ldr	r3, [r3, #0]	@ float
 753 05f8 6C311FE5 		eor	r2, r3, #-2147483648
 754 05fc 002083E5 		ldr	r3, .L28+40
 258:lab.c         **** if (outter_count%20==0) {
 755              	3, [r3, #24]	@ float
 756 0600 74311FE5 		mov	r0, r2
 757 0604 001093E5 		mov	r1, r3
 758 0608 78311FE5 		bl	__mulsf3
 759 060c 9123C3E0 		mov	r3, r0
 760 0610 C321A0E1 		mov	r4, r3
 761 0614 C13FA0E1 		ldr	r3, .L28+40
 762 0618 022063E0 		ldr	r2, [r3, #0]	@ float
 763 061c A8200BE5 		ldr	r3, .L28+32
 764 0620 A8301BE5 		ldr	r3, [r3, #0]	@ float
 765 0624 0331A0E1 		mov	r0, r2
 766 0628 A8201BE5 		mov	r1, r3
 767 062c 023083E0 		bl	__mulsf3
 768 0630 0331A0E1 		mov	r3, r0
 769 0634 011063E0 		mov	r0, r4
 770 0638 A8100BE5 		mov	r1, r3
 771 063c A8301BE5 		bl	__subsf3
 772 0640 000053E3 		mov	r3, r0
 773 0644 EC1B001A 		str	r3, [fp, #-116]	@ float
 774              		.loc 1 261 0
 259:lab.c         ****     float a_desired[3];
 260:lab.c         ****     a_desired[0] = -K_d*(xd[6]) -K_p*(xd[0]);
 775              	r	r3, [r3, #0]	@ float
 776 0648 B4311FE5 		eor	r2, r3, #-2147483648
 777 064c 003093E5 		ldr	r3, .L28+40
 778 0650 022123E2 		ldr	r3, [r3, #28]	@ float
 779 0654 B4311FE5 		mov	r0, r2
 780 0658 183093E5 		mov	r1, r3
 781 065c 0200A0E1 		bl	__mulsf3
 782 0660 0310A0E1 		mov	r3, r0
 783 0664 FEFFFFEB 		mov	r4, r3
 784 0668 0030A0E1 		ldr	r3, .L28+40
 785 066c 0340A0E1 		ldr	r2, [r3, #4]	@ float
 786 0670 D0311FE5 		ldr	r3, .L28+32
 787 0674 002093E5 		ldr	r3, [r3, #0]	@ float
 788 0678 E0311FE5 		mov	r0, r2
 789 067c 003093E5 		mov	r1, r3
 790 0680 0200A0E1 		bl	__mulsf3
 791 0684 0310A0E1 		mov	r3, r0
 792 0688 FEFFFFEB 		mov	r0, r4
 793 068c 0030A0E1 		mov	r1, r3
 794 0690 0400A0E1 		bl	__subsf3
 795 0694 0310A0E1 		mov	r3, r0
 796 0698 FEFFFFEB 		str	r3, [fp, #-112]	@ float
 797 069c 0030A0E1 		.loc 1 262 0
 798 06a0 74300BE5 		ldr	r3, .L28+28
 261:lab.c         **** 	a_desired[1] = -K_d*(xd[7]) -K_p*(xd[1]);
 799              	t
 800 06a4 10321FE5 		eor	r2, r3, #-2147483648
 801 06a8 003093E5 		ldr	r3, .L28+40
 802 06ac 022123E2 		ldr	r3, [r3, #32]	@ float
 803 06b0 10321FE5 		mov	r0, r2
 804 06b4 1C3093E5 		mov	r1, r3
 805 06b8 0200A0E1 		bl	__mulsf3
 806 06bc 0310A0E1 		mov	r3, r0
 807 06c0 FEFFFFEB 		mov	r4, r3
 808 06c4 0030A0E1 		ldr	r3, .L28+40
 809 06c8 0340A0E1 		ldr	r2, [r3, #8]	@ float
 810 06cc 2C321FE5 		ldr	r3, .L28+32
 811 06d0 042093E5 		ldr	r3, [r3, #0]	@ float
 812 06d4 3C321FE5 		mov	r0, r2
 813 06d8 003093E5 		mov	r1, r3
 814 06dc 0200A0E1 		bl	__mulsf3
 815 06e0 0310A0E1 		mov	r3, r0
 816 06e4 FEFFFFEB 		mov	r0, r4
 817 06e8 0030A0E1 		mov	r1, r3
 818 06ec 0400A0E1 		bl	__subsf3
 819 06f0 0310A0E1 		mov	r3, r0
 820 06f4 FEFFFFEB 		mov	r2, r3
 821 06f8 0030A0E1 		ldr	r3, .L28+36
 822 06fc 70300BE5 		ldr	r3, [r3, #0]	@ float
 262:lab.c         **** 	a_desired[2] = -K_d*(xd[8]) -K_p*(xd[2])-g;
 823              		bl	__subsf3
 824 0700 6C321FE5 		mov	r3, r0
 825 0704 003093E5 		str	r3, [fp, #-108]	@ float
 826 0708 022123E2 		.loc 1 265 0
 827 070c 6C321FE5 		ldr	r3, .L28+40
 828 0710 203093E5 		ldr	r3, [r3, #12]	@ float
 829 0714 0200A0E1 		mov	r0, r3
 830 0718 0310A0E1 		bl	__extendsfdf2
 831 071c FEFFFFEB 		mov	r3, r0
 832 0720 0030A0E1 		mov	r4, r1
 833 0724 0340A0E1 		mov	r0, r3
 834 0728 88321FE5 		mov	r1, r4
 835 072c 082093E5 		bl	cos
 836 0730 98321FE5 		mov	r5, r0
 837 0734 003093E5 		mov	r6, r1
 838 0738 0200A0E1 		ldr	r3, .L28+40
 839 073c 0310A0E1 		ldr	r3, [r3, #16]	@ float
 840 0740 FEFFFFEB 		mov	r0, r3
 841 0744 0030A0E1 		bl	__extendsfdf2
 842 0748 0400A0E1 		mov	r3, r0
 843 074c 0310A0E1 		mov	r4, r1
 844 0750 FEFFFFEB 		mov	r0, r3
 845 0754 0030A0E1 		mov	r1, r4
 846 0758 0320A0E1 		bl	cos
 847 075c C0321FE5 		mov	r3, r0
 848 0760 003093E5 		mov	r4, r1
 849 0764 0200A0E1 		mov	r0, r5
 850 0768 0310A0E1 		mov	r1, r6
 851 076c FEFFFFEB 		mov	r2, r3
 852 0770 0030A0E1 		mov	r3, r4
 853 0774 6C300BE5 		bl	__muldf3
 263:lab.c         **** 
 264:lab.c         **** 	float Rinv[9];
 265:lab.c         **** 	Rinv[0] = (cos(xd[3])*cos(xd[4]))/(cos(xd[3])*cos(xd[3])*cos(xd[4])*cos(xd[4]) + cos(xd[3])*cos(xd
 854              	, r3
 855 0778 D8321FE5 		mov	r8, r4
 856 077c 0C3093E5 		ldr	r3, .L28+40
 857 0780 0300A0E1 		ldr	r3, [r3, #12]	@ float
 858 0784 FEFFFFEB 		mov	r0, r3
 859 0788 0030A0E1 		bl	__extendsfdf2
 860 078c 0140A0E1 		mov	r3, r0
 861 0790 0300A0E1 		mov	r4, r1
 862 0794 0410A0E1 		mov	r0, r3
 863 0798 FEFFFFEB 		mov	r1, r4
 864 079c 0050A0E1 		bl	cos
 865 07a0 0160A0E1 		mov	r5, r0
 866 07a4 04331FE5 		mov	r6, r1
 867 07a8 103093E5 		ldr	r3, .L28+40
 868 07ac 0300A0E1 		ldr	r3, [r3, #12]	@ float
 869 07b0 FEFFFFEB 		mov	r0, r3
 870 07b4 0030A0E1 		bl	__extendsfdf2
 871 07b8 0140A0E1 		mov	r3, r0
 872 07bc 0300A0E1 		mov	r4, r1
 873 07c0 0410A0E1 		mov	r0, r3
 874 07c4 FEFFFFEB 		mov	r1, r4
 875 07c8 0030A0E1 		bl	cos
 876 07cc 0140A0E1 		mov	r3, r0
 877 07d0 0500A0E1 		mov	r4, r1
 878 07d4 0610A0E1 		mov	r0, r5
 879 07d8 0320A0E1 		mov	r1, r6
 880 07dc 0430A0E1 		mov	r2, r3
 881 07e0 FEFFFFEB 		mov	r3, r4
 882 07e4 0030A0E1 		bl	__muldf3
 883 07e8 0140A0E1 		mov	r3, r0
 884 07ec 0370A0E1 		mov	r4, r1
 885 07f0 0480A0E1 		mov	r5, r3
 886 07f4 54331FE5 		mov	r6, r4
 887 07f8 0C3093E5 		ldr	r3, .L28+40
 888 07fc 0300A0E1 		ldr	r3, [r3, #16]	@ float
 889 0800 FEFFFFEB 		mov	r0, r3
 890 0804 0030A0E1 		bl	__extendsfdf2
 891 0808 0140A0E1 		mov	r3, r0
 892 080c 0300A0E1 		mov	r4, r1
 893 0810 0410A0E1 		mov	r0, r3
 894 0814 FEFFFFEB 		mov	r1, r4
 895 0818 0050A0E1 		bl	cos
 896 081c 0160A0E1 		mov	r3, r0
 897 0820 80331FE5 		mov	r4, r1
 898 0824 0C3093E5 		mov	r0, r5
 899 0828 0300A0E1 		mov	r1, r6
 900 082c FEFFFFEB 		mov	r2, r3
 901 0830 0030A0E1 		mov	r3, r4
 902 0834 0140A0E1 		bl	__muldf3
 903 0838 0300A0E1 		mov	r3, r0
 904 083c 0410A0E1 		mov	r4, r1
 905 0840 FEFFFFEB 		mov	r5, r3
 906 0844 0030A0E1 		mov	r6, r4
 907 0848 0140A0E1 		ldr	r3, .L28+40
 908 084c 0500A0E1 		ldr	r3, [r3, #16]	@ float
 909 0850 0610A0E1 		mov	r0, r3
 910 0854 0320A0E1 		bl	__extendsfdf2
 911 0858 0430A0E1 		mov	r3, r0
 912 085c FEFFFFEB 		mov	r4, r1
 913 0860 0030A0E1 		mov	r0, r3
 914 0864 0140A0E1 		mov	r1, r4
 915 0868 0350A0E1 		bl	cos
 916 086c 0460A0E1 		mov	r3, r0
 917 0870 D0331FE5 		mov	r4, r1
 918 0874 103093E5 		mov	r0, r5
 919 0878 0300A0E1 		mov	r1, r6
 920 087c FEFFFFEB 		mov	r2, r3
 921 0880 0030A0E1 		mov	r3, r4
 922 0884 0140A0E1 		bl	__muldf3
 923 0888 0300A0E1 		mov	r3, r0
 924 088c 0410A0E1 		mov	r4, r1
 925 0890 FEFFFFEB 		mov	r9, r3
 926 0894 0030A0E1 		mov	sl, r4
 927 0898 0140A0E1 		ldr	r3, .L28+40
 928 089c 0500A0E1 		ldr	r3, [r3, #12]	@ float
 929 08a0 0610A0E1 		mov	r0, r3
 930 08a4 0320A0E1 		bl	__extendsfdf2
 931 08a8 0430A0E1 		mov	r3, r0
 932 08ac FEFFFFEB 		mov	r4, r1
 933 08b0 0030A0E1 		mov	r0, r3
 934 08b4 0140A0E1 		mov	r1, r4
 935 08b8 0350A0E1 		bl	cos
 936 08bc 0460A0E1 		mov	r5, r0
 937 08c0 20341FE5 		mov	r6, r1
 938 08c4 103093E5 		ldr	r3, .L28+40
 939 08c8 0300A0E1 		ldr	r3, [r3, #12]	@ float
 940 08cc FEFFFFEB 		mov	r0, r3
 941 08d0 0030A0E1 		bl	__extendsfdf2
 942 08d4 0140A0E1 		mov	r3, r0
 943 08d8 0300A0E1 		mov	r4, r1
 944 08dc 0410A0E1 		mov	r0, r3
 945 08e0 FEFFFFEB 		mov	r1, r4
 946 08e4 0030A0E1 		bl	cos
 947 08e8 0140A0E1 		mov	r3, r0
 948 08ec 0500A0E1 		mov	r4, r1
 949 08f0 0610A0E1 		mov	r0, r5
 950 08f4 0320A0E1 		mov	r1, r6
 951 08f8 0430A0E1 		mov	r2, r3
 952 08fc FEFFFFEB 		mov	r3, r4
 953 0900 0030A0E1 		bl	__muldf3
 954 0904 0140A0E1 		mov	r3, r0
 955 0908 0390A0E1 		mov	r4, r1
 956 090c 04A0A0E1 		mov	r5, r3
 957 0910 70341FE5 		mov	r6, r4
 958 0914 0C3093E5 		ldr	r3, .L28+40
 959 0918 0300A0E1 		ldr	r3, [r3, #16]	@ float
 960 091c FEFFFFEB 		mov	r0, r3
 961 0920 0030A0E1 		bl	__extendsfdf2
 962 0924 0140A0E1 		mov	r3, r0
 963 0928 0300A0E1 		mov	r4, r1
 964 092c 0410A0E1 		mov	r0, r3
 965 0930 FEFFFFEB 		mov	r1, r4
 966 0934 0050A0E1 		bl	sin
 967 0938 0160A0E1 		mov	r3, r0
 968 093c 9C341FE5 		mov	r4, r1
 969 0940 0C3093E5 		mov	r0, r5
 970 0944 0300A0E1 		mov	r1, r6
 971 0948 FEFFFFEB 		mov	r2, r3
 972 094c 0030A0E1 		mov	r3, r4
 973 0950 0140A0E1 		bl	__muldf3
 974 0954 0300A0E1 		mov	r3, r0
 975 0958 0410A0E1 		mov	r4, r1
 976 095c FEFFFFEB 		mov	r5, r3
 977 0960 0030A0E1 		mov	r6, r4
 978 0964 0140A0E1 		ldr	r3, .L28+40
 979 0968 0500A0E1 		ldr	r3, [r3, #16]	@ float
 980 096c 0610A0E1 		mov	r0, r3
 981 0970 0320A0E1 		bl	__extendsfdf2
 982 0974 0430A0E1 		mov	r3, r0
 983 0978 FEFFFFEB 		mov	r4, r1
 984 097c 0030A0E1 		mov	r0, r3
 985 0980 0140A0E1 		mov	r1, r4
 986 0984 0350A0E1 		bl	sin
 987 0988 0460A0E1 		mov	r3, r0
 988 098c EC341FE5 		mov	r4, r1
 989 0990 103093E5 		mov	r0, r5
 990 0994 0300A0E1 		mov	r1, r6
 991 0998 FEFFFFEB 		mov	r2, r3
 992 099c 0030A0E1 		mov	r3, r4
 993 09a0 0140A0E1 		bl	__muldf3
 994 09a4 0300A0E1 		mov	r3, r0
 995 09a8 0410A0E1 		mov	r4, r1
 996 09ac FEFFFFEB 		mov	r0, r9
 997 09b0 0030A0E1 		mov	r1, sl
 998 09b4 0140A0E1 		mov	r2, r3
 999 09b8 0500A0E1 		mov	r3, r4
 1000 09bc 0610A0E1 		bl	__adddf3
 1001 09c0 0320A0E1 		mov	r3, r0
 1002 09c4 0430A0E1 		mov	r4, r1
 1003 09c8 FEFFFFEB 		mov	r9, r3
 1004 09cc 0030A0E1 		mov	sl, r4
 1005 09d0 0140A0E1 		ldr	r3, .L28+40
 1006 09d4 0350A0E1 		ldr	r3, [r3, #16]	@ float
 1007 09d8 0460A0E1 		mov	r0, r3
 1008 09dc 3C351FE5 		bl	__extendsfdf2
 1009 09e0 103093E5 		mov	r3, r0
 1010 09e4 0300A0E1 		mov	r4, r1
 1011 09e8 FEFFFFEB 		mov	r0, r3
 1012 09ec 0030A0E1 		mov	r1, r4
 1013 09f0 0140A0E1 		bl	cos
 1014 09f4 0300A0E1 		mov	r5, r0
 1015 09f8 0410A0E1 		mov	r6, r1
 1016 09fc FEFFFFEB 		ldr	r3, .L28+40
 1017 0a00 0030A0E1 		ldr	r3, [r3, #16]	@ float
 1018 0a04 0140A0E1 		mov	r0, r3
 1019 0a08 0500A0E1 		bl	__extendsfdf2
 1020 0a0c 0610A0E1 		mov	r3, r0
 1021 0a10 0320A0E1 		mov	r4, r1
 1022 0a14 0430A0E1 		mov	r0, r3
 1023 0a18 FEFFFFEB 		mov	r1, r4
 1024 0a1c 0030A0E1 		bl	cos
 1025 0a20 0140A0E1 		mov	r3, r0
 1026 0a24 0900A0E1 		mov	r4, r1
 1027 0a28 0A10A0E1 		mov	r0, r5
 1028 0a2c 0320A0E1 		mov	r1, r6
 1029 0a30 0430A0E1 		mov	r2, r3
 1030 0a34 FEFFFFEB 		mov	r3, r4
 1031 0a38 0030A0E1 		bl	__muldf3
 1032 0a3c 0140A0E1 		mov	r3, r0
 1033 0a40 0390A0E1 		mov	r4, r1
 1034 0a44 04A0A0E1 		mov	r5, r3
 1035 0a48 A8351FE5 		mov	r6, r4
 1036 0a4c 103093E5 		ldr	r3, .L28+40
 1037 0a50 0300A0E1 		ldr	r3, [r3, #12]	@ float
 1038 0a54 FEFFFFEB 		mov	r0, r3
 1039 0a58 0030A0E1 		bl	__extendsfdf2
 1040 0a5c 0140A0E1 		mov	r3, r0
 1041 0a60 0300A0E1 		mov	r4, r1
 1042 0a64 0410A0E1 		mov	r0, r3
 1043 0a68 FEFFFFEB 		mov	r1, r4
 1044 0a6c 0050A0E1 		bl	sin
 1045 0a70 0160A0E1 		mov	r3, r0
 1046 0a74 D4351FE5 		mov	r4, r1
 1047 0a78 103093E5 		mov	r0, r5
 1048 0a7c 0300A0E1 		mov	r1, r6
 1049 0a80 FEFFFFEB 		mov	r2, r3
 1050 0a84 0030A0E1 		mov	r3, r4
 1051 0a88 0140A0E1 		bl	__muldf3
 1052 0a8c 0300A0E1 		mov	r3, r0
 1053 0a90 0410A0E1 		mov	r4, r1
 1054 0a94 FEFFFFEB 		mov	r5, r3
 1055 0a98 0030A0E1 		mov	r6, r4
 1056 0a9c 0140A0E1 		ldr	r3, .L28+40
 1057 0aa0 0500A0E1 		ldr	r3, [r3, #12]	@ float
 1058 0aa4 0610A0E1 		mov	r0, r3
 1059 0aa8 0320A0E1 		bl	__extendsfdf2
 1060 0aac 0430A0E1 		mov	r3, r0
 1061 0ab0 FEFFFFEB 		mov	r4, r1
 1062 0ab4 0030A0E1 		mov	r0, r3
 1063 0ab8 0140A0E1 		mov	r1, r4
 1064 0abc 0350A0E1 		bl	sin
 1065 0ac0 0460A0E1 		mov	r3, r0
 1066 0ac4 24361FE5 		mov	r4, r1
 1067 0ac8 0C3093E5 		mov	r0, r5
 1068 0acc 0300A0E1 		mov	r1, r6
 1069 0ad0 FEFFFFEB 		mov	r2, r3
 1070 0ad4 0030A0E1 		mov	r3, r4
 1071 0ad8 0140A0E1 		bl	__muldf3
 1072 0adc 0300A0E1 		mov	r3, r0
 1073 0ae0 0410A0E1 		mov	r4, r1
 1074 0ae4 FEFFFFEB 		mov	r0, r9
 1075 0ae8 0030A0E1 		mov	r1, sl
 1076 0aec 0140A0E1 		mov	r2, r3
 1077 0af0 0500A0E1 		mov	r3, r4
 1078 0af4 0610A0E1 		bl	__adddf3
 1079 0af8 0320A0E1 		mov	r3, r0
 1080 0afc 0430A0E1 		mov	r4, r1
 1081 0b00 FEFFFFEB 		mov	r9, r3
 1082 0b04 0030A0E1 		mov	sl, r4
 1083 0b08 0140A0E1 		ldr	r3, .L28+40
 1084 0b0c 0350A0E1 		ldr	r3, [r3, #12]	@ float
 1085 0b10 0460A0E1 		mov	r0, r3
 1086 0b14 74361FE5 		bl	__extendsfdf2
 1087 0b18 0C3093E5 		mov	r3, r0
 1088 0b1c 0300A0E1 		mov	r4, r1
 1089 0b20 FEFFFFEB 		mov	r0, r3
 1090 0b24 0030A0E1 		mov	r1, r4
 1091 0b28 0140A0E1 		bl	sin
 1092 0b2c 0300A0E1 		mov	r5, r0
 1093 0b30 0410A0E1 		mov	r6, r1
 1094 0b34 FEFFFFEB 		ldr	r3, .L28+40
 1095 0b38 0030A0E1 		ldr	r3, [r3, #12]	@ float
 1096 0b3c 0140A0E1 		mov	r0, r3
 1097 0b40 0500A0E1 		bl	__extendsfdf2
 1098 0b44 0610A0E1 		mov	r3, r0
 1099 0b48 0320A0E1 		mov	r4, r1
 1100 0b4c 0430A0E1 		mov	r0, r3
 1101 0b50 FEFFFFEB 		mov	r1, r4
 1102 0b54 0030A0E1 		bl	sin
 1103 0b58 0140A0E1 		mov	r3, r0
 1104 0b5c 0900A0E1 		mov	r4, r1
 1105 0b60 0A10A0E1 		mov	r0, r5
 1106 0b64 0320A0E1 		mov	r1, r6
 1107 0b68 0430A0E1 		mov	r2, r3
 1108 0b6c FEFFFFEB 		mov	r3, r4
 1109 0b70 0030A0E1 		bl	__muldf3
 1110 0b74 0140A0E1 		mov	r3, r0
 1111 0b78 0390A0E1 		mov	r4, r1
 1112 0b7c 04A0A0E1 		mov	r5, r3
 1113 0b80 E0361FE5 		mov	r6, r4
 1114 0b84 0C3093E5 		ldr	r3, .L28+40
 1115 0b88 0300A0E1 		ldr	r3, [r3, #16]	@ float
 1116 0b8c FEFFFFEB 		mov	r0, r3
 1117 0b90 0030A0E1 		bl	__extendsfdf2
 1118 0b94 0140A0E1 		mov	r3, r0
 1119 0b98 0300A0E1 		mov	r4, r1
 1120 0b9c 0410A0E1 		mov	r0, r3
 1121 0ba0 FEFFFFEB 		mov	r1, r4
 1122 0ba4 0050A0E1 		bl	sin
 1123 0ba8 0160A0E1 		mov	r3, r0
 1124 0bac 0C371FE5 		mov	r4, r1
 1125 0bb0 0C3093E5 		mov	r0, r5
 1126 0bb4 0300A0E1 		mov	r1, r6
 1127 0bb8 FEFFFFEB 		mov	r2, r3
 1128 0bbc 0030A0E1 		mov	r3, r4
 1129 0bc0 0140A0E1 		bl	__muldf3
 1130 0bc4 0300A0E1 		mov	r3, r0
 1131 0bc8 0410A0E1 		mov	r4, r1
 1132 0bcc FEFFFFEB 		mov	r5, r3
 1133 0bd0 0030A0E1 		mov	r6, r4
 1134 0bd4 0140A0E1 		ldr	r3, .L28+40
 1135 0bd8 0500A0E1 		ldr	r3, [r3, #16]	@ float
 1136 0bdc 0610A0E1 		mov	r0, r3
 1137 0be0 0320A0E1 		bl	__extendsfdf2
 1138 0be4 0430A0E1 		mov	r3, r0
 1139 0be8 FEFFFFEB 		mov	r4, r1
 1140 0bec 0030A0E1 		mov	r0, r3
 1141 0bf0 0140A0E1 		mov	r1, r4
 1142 0bf4 0350A0E1 		bl	sin
 1143 0bf8 0460A0E1 		mov	r3, r0
 1144 0bfc 5C371FE5 		mov	r4, r1
 1145 0c00 103093E5 		mov	r0, r5
 1146 0c04 0300A0E1 		mov	r1, r6
 1147 0c08 FEFFFFEB 		mov	r2, r3
 1148 0c0c 0030A0E1 		mov	r3, r4
 1149 0c10 0140A0E1 		bl	__muldf3
 1150 0c14 0300A0E1 		mov	r3, r0
 1151 0c18 0410A0E1 		mov	r4, r1
 1152 0c1c FEFFFFEB 		mov	r0, r9
 1153 0c20 0030A0E1 		mov	r1, sl
 1154 0c24 0140A0E1 		mov	r2, r3
 1155 0c28 0500A0E1 		mov	r3, r4
 1156 0c2c 0610A0E1 		bl	__adddf3
 1157 0c30 0320A0E1 		mov	r3, r0
 1158 0c34 0430A0E1 		mov	r4, r1
 1159 0c38 FEFFFFEB 		mov	r0, r7
 1160 0c3c 0030A0E1 		mov	r1, r8
 1161 0c40 0140A0E1 		mov	r2, r3
 1162 0c44 0350A0E1 		mov	r3, r4
 1163 0c48 0460A0E1 		bl	__divdf3
 1164 0c4c AC371FE5 		mov	r3, r0
 1165 0c50 103093E5 		mov	r4, r1
 1166 0c54 0300A0E1 		mov	r0, r3
 1167 0c58 FEFFFFEB 		mov	r1, r4
 1168 0c5c 0030A0E1 		bl	__truncdfsf2
 1169 0c60 0140A0E1 		mov	r3, r0
 1170 0c64 0300A0E1 		str	r3, [fp, #-164]	@ float
 1171 0c68 0410A0E1 		.loc 1 266 0
 1172 0c6c FEFFFFEB 		ldr	r3, .L28+40
 1173 0c70 0030A0E1 		ldr	r3, [r3, #16]	@ float
 1174 0c74 0140A0E1 		mov	r0, r3
 1175 0c78 0500A0E1 		bl	__extendsfdf2
 1176 0c7c 0610A0E1 		mov	r3, r0
 1177 0c80 0320A0E1 		mov	r4, r1
 1178 0c84 0430A0E1 		mov	r0, r3
 1179 0c88 FEFFFFEB 		mov	r1, r4
 1180 0c8c 0030A0E1 		bl	cos
 1181 0c90 0140A0E1 		mov	r5, r0
 1182 0c94 0900A0E1 		mov	r6, r1
 1183 0c98 0A10A0E1 		ldr	r3, .L28+40
 1184 0c9c 0320A0E1 		ldr	r3, [r3, #12]	@ float
 1185 0ca0 0430A0E1 		mov	r0, r3
 1186 0ca4 FEFFFFEB 		bl	__extendsfdf2
 1187 0ca8 0030A0E1 		mov	r3, r0
 1188 0cac 0140A0E1 		mov	r4, r1
 1189 0cb0 0700A0E1 		mov	r0, r3
 1190 0cb4 0810A0E1 		mov	r1, r4
 1191 0cb8 0320A0E1 		bl	sin
 1192 0cbc 0430A0E1 		mov	r3, r0
 1193 0cc0 FEFFFFEB 		mov	r4, r1
 1194 0cc4 0030A0E1 		mov	r0, r5
 1195 0cc8 0140A0E1 		mov	r1, r6
 1196 0ccc 0300A0E1 		mov	r2, r3
 1197 0cd0 0410A0E1 		mov	r3, r4
 1198 0cd4 FEFFFFEB 		bl	__muldf3
 1199 0cd8 0030A0E1 		mov	r3, r0
 1200 0cdc A4300BE5 		mov	r4, r1
 266:lab.c         **** 	Rinv[1] = (cos(xd[4])*sin(xd[3]))/(cos(xd[3])*cos(xd[3])*cos(xd[4])*cos(xd[4]) + cos(xd[3])*cos(xd
 1201              	8+40
 1202 0ce0 40381FE5 		ldr	r3, [r3, #12]	@ float
 1203 0ce4 103093E5 		mov	r0, r3
 1204 0ce8 0300A0E1 		bl	__extendsfdf2
 1205 0cec FEFFFFEB 		mov	r3, r0
 1206 0cf0 0030A0E1 		mov	r4, r1
 1207 0cf4 0140A0E1 		mov	r0, r3
 1208 0cf8 0300A0E1 		mov	r1, r4
 1209 0cfc 0410A0E1 		bl	cos
 1210 0d00 FEFFFFEB 		mov	r5, r0
 1211 0d04 0050A0E1 		mov	r6, r1
 1212 0d08 0160A0E1 		ldr	r3, .L28+40
 1213 0d0c 6C381FE5 		ldr	r3, [r3, #12]	@ float
 1214 0d10 0C3093E5 		mov	r0, r3
 1215 0d14 0300A0E1 		bl	__extendsfdf2
 1216 0d18 FEFFFFEB 		mov	r3, r0
 1217 0d1c 0030A0E1 		mov	r4, r1
 1218 0d20 0140A0E1 		mov	r0, r3
 1219 0d24 0300A0E1 		mov	r1, r4
 1220 0d28 0410A0E1 		bl	cos
 1221 0d2c FEFFFFEB 		mov	r3, r0
 1222 0d30 0030A0E1 		mov	r4, r1
 1223 0d34 0140A0E1 		mov	r0, r5
 1224 0d38 0500A0E1 		mov	r1, r6
 1225 0d3c 0610A0E1 		mov	r2, r3
 1226 0d40 0320A0E1 		mov	r3, r4
 1227 0d44 0430A0E1 		bl	__muldf3
 1228 0d48 FEFFFFEB 		mov	r3, r0
 1229 0d4c 0030A0E1 		mov	r4, r1
 1230 0d50 0140A0E1 		mov	r5, r3
 1231 0d54 0370A0E1 		mov	r6, r4
 1232 0d58 0480A0E1 		ldr	r3, .L28+40
 1233 0d5c BC381FE5 		ldr	r3, [r3, #16]	@ float
 1234 0d60 0C3093E5 		mov	r0, r3
 1235 0d64 0300A0E1 		bl	__extendsfdf2
 1236 0d68 FEFFFFEB 		mov	r3, r0
 1237 0d6c 0030A0E1 		mov	r4, r1
 1238 0d70 0140A0E1 		mov	r0, r3
 1239 0d74 0300A0E1 		mov	r1, r4
 1240 0d78 0410A0E1 		bl	cos
 1241 0d7c FEFFFFEB 		mov	r3, r0
 1242 0d80 0050A0E1 		mov	r4, r1
 1243 0d84 0160A0E1 		mov	r0, r5
 1244 0d88 E8381FE5 		mov	r1, r6
 1245 0d8c 0C3093E5 		mov	r2, r3
 1246 0d90 0300A0E1 		mov	r3, r4
 1247 0d94 FEFFFFEB 		bl	__muldf3
 1248 0d98 0030A0E1 		mov	r3, r0
 1249 0d9c 0140A0E1 		mov	r4, r1
 1250 0da0 0300A0E1 		mov	r5, r3
 1251 0da4 0410A0E1 		mov	r6, r4
 1252 0da8 FEFFFFEB 		ldr	r3, .L28+40
 1253 0dac 0030A0E1 		ldr	r3, [r3, #16]	@ float
 1254 0db0 0140A0E1 		mov	r0, r3
 1255 0db4 0500A0E1 		bl	__extendsfdf2
 1256 0db8 0610A0E1 		mov	r3, r0
 1257 0dbc 0320A0E1 		mov	r4, r1
 1258 0dc0 0430A0E1 		mov	r0, r3
 1259 0dc4 FEFFFFEB 		mov	r1, r4
 1260 0dc8 0030A0E1 		bl	cos
 1261 0dcc 0140A0E1 		mov	r3, r0
 1262 0dd0 0350A0E1 		mov	r4, r1
 1263 0dd4 0460A0E1 		mov	r0, r5
 1264 0dd8 38391FE5 		mov	r1, r6
 1265 0ddc 103093E5 		mov	r2, r3
 1266 0de0 0300A0E1 		mov	r3, r4
 1267 0de4 FEFFFFEB 		bl	__muldf3
 1268 0de8 0030A0E1 		mov	r3, r0
 1269 0dec 0140A0E1 		mov	r4, r1
 1270 0df0 0300A0E1 		mov	r9, r3
 1271 0df4 0410A0E1 		mov	sl, r4
 1272 0df8 FEFFFFEB 		ldr	r3, .L28+40
 1273 0dfc 0030A0E1 		ldr	r3, [r3, #12]	@ float
 1274 0e00 0140A0E1 		mov	r0, r3
 1275 0e04 0500A0E1 		bl	__extendsfdf2
 1276 0e08 0610A0E1 		mov	r3, r0
 1277 0e0c 0320A0E1 		mov	r4, r1
 1278 0e10 0430A0E1 		mov	r0, r3
 1279 0e14 FEFFFFEB 		mov	r1, r4
 1280 0e18 0030A0E1 		bl	cos
 1281 0e1c 0140A0E1 		mov	r5, r0
 1282 0e20 0350A0E1 		mov	r6, r1
 1283 0e24 0460A0E1 		ldr	r3, .L28+40
 1284 0e28 88391FE5 		ldr	r3, [r3, #12]	@ float
 1285 0e2c 103093E5 		mov	r0, r3
 1286 0e30 0300A0E1 		bl	__extendsfdf2
 1287 0e34 FEFFFFEB 		mov	r3, r0
 1288 0e38 0030A0E1 		mov	r4, r1
 1289 0e3c 0140A0E1 		mov	r0, r3
 1290 0e40 0300A0E1 		mov	r1, r4
 1291 0e44 0410A0E1 		bl	cos
 1292 0e48 FEFFFFEB 		mov	r3, r0
 1293 0e4c 0030A0E1 		mov	r4, r1
 1294 0e50 0140A0E1 		mov	r0, r5
 1295 0e54 0500A0E1 		mov	r1, r6
 1296 0e58 0610A0E1 		mov	r2, r3
 1297 0e5c 0320A0E1 		mov	r3, r4
 1298 0e60 0430A0E1 		bl	__muldf3
 1299 0e64 FEFFFFEB 		mov	r3, r0
 1300 0e68 0030A0E1 		mov	r4, r1
 1301 0e6c 0140A0E1 		mov	r5, r3
 1302 0e70 0390A0E1 		mov	r6, r4
 1303 0e74 04A0A0E1 		ldr	r3, .L28+40
 1304 0e78 D8391FE5 		ldr	r3, [r3, #16]	@ float
 1305 0e7c 0C3093E5 		mov	r0, r3
 1306 0e80 0300A0E1 		bl	__extendsfdf2
 1307 0e84 FEFFFFEB 		mov	r3, r0
 1308 0e88 0030A0E1 		mov	r4, r1
 1309 0e8c 0140A0E1 		mov	r0, r3
 1310 0e90 0300A0E1 		mov	r1, r4
 1311 0e94 0410A0E1 		bl	sin
 1312 0e98 FEFFFFEB 		mov	r3, r0
 1313 0e9c 0050A0E1 		mov	r4, r1
 1314 0ea0 0160A0E1 		mov	r0, r5
 1315 0ea4 043A1FE5 		mov	r1, r6
 1316 0ea8 0C3093E5 		mov	r2, r3
 1317 0eac 0300A0E1 		mov	r3, r4
 1318 0eb0 FEFFFFEB 		bl	__muldf3
 1319 0eb4 0030A0E1 		mov	r3, r0
 1320 0eb8 0140A0E1 		mov	r4, r1
 1321 0ebc 0300A0E1 		mov	r5, r3
 1322 0ec0 0410A0E1 		mov	r6, r4
 1323 0ec4 FEFFFFEB 		ldr	r3, .L28+40
 1324 0ec8 0030A0E1 		ldr	r3, [r3, #16]	@ float
 1325 0ecc 0140A0E1 		mov	r0, r3
 1326 0ed0 0500A0E1 		bl	__extendsfdf2
 1327 0ed4 0610A0E1 		mov	r3, r0
 1328 0ed8 0320A0E1 		mov	r4, r1
 1329 0edc 0430A0E1 		mov	r0, r3
 1330 0ee0 FEFFFFEB 		mov	r1, r4
 1331 0ee4 0030A0E1 		bl	sin
 1332 0ee8 0140A0E1 		mov	r3, r0
 1333 0eec 0350A0E1 		mov	r4, r1
 1334 0ef0 0460A0E1 		mov	r0, r5
 1335 0ef4 543A1FE5 		mov	r1, r6
 1336 0ef8 103093E5 		mov	r2, r3
 1337 0efc 0300A0E1 		mov	r3, r4
 1338 0f00 FEFFFFEB 		bl	__muldf3
 1339 0f04 0030A0E1 		mov	r3, r0
 1340 0f08 0140A0E1 		mov	r4, r1
 1341 0f0c 0300A0E1 		mov	r0, r9
 1342 0f10 0410A0E1 		mov	r1, sl
 1343 0f14 FEFFFFEB 		mov	r2, r3
 1344 0f18 0030A0E1 		mov	r3, r4
 1345 0f1c 0140A0E1 		bl	__adddf3
 1346 0f20 0500A0E1 		mov	r3, r0
 1347 0f24 0610A0E1 		mov	r4, r1
 1348 0f28 0320A0E1 		mov	r9, r3
 1349 0f2c 0430A0E1 		mov	sl, r4
 1350 0f30 FEFFFFEB 		ldr	r3, .L28+40
 1351 0f34 0030A0E1 		ldr	r3, [r3, #16]	@ float
 1352 0f38 0140A0E1 		mov	r0, r3
 1353 0f3c 0350A0E1 		bl	__extendsfdf2
 1354 0f40 0460A0E1 		mov	r3, r0
 1355 0f44 A43A1FE5 		mov	r4, r1
 1356 0f48 103093E5 		mov	r0, r3
 1357 0f4c 0300A0E1 		mov	r1, r4
 1358 0f50 FEFFFFEB 		bl	cos
 1359 0f54 0030A0E1 		mov	r5, r0
 1360 0f58 0140A0E1 		mov	r6, r1
 1361 0f5c 0300A0E1 		ldr	r3, .L28+40
 1362 0f60 0410A0E1 		ldr	r3, [r3, #16]	@ float
 1363 0f64 FEFFFFEB 		mov	r0, r3
 1364 0f68 0030A0E1 		bl	__extendsfdf2
 1365 0f6c 0140A0E1 		mov	r3, r0
 1366 0f70 0500A0E1 		mov	r4, r1
 1367 0f74 0610A0E1 		mov	r0, r3
 1368 0f78 0320A0E1 		mov	r1, r4
 1369 0f7c 0430A0E1 		bl	cos
 1370 0f80 FEFFFFEB 		mov	r3, r0
 1371 0f84 0030A0E1 		mov	r4, r1
 1372 0f88 0140A0E1 		mov	r0, r5
 1373 0f8c 0900A0E1 		mov	r1, r6
 1374 0f90 0A10A0E1 		mov	r2, r3
 1375 0f94 0320A0E1 		mov	r3, r4
 1376 0f98 0430A0E1 		bl	__muldf3
 1377 0f9c FEFFFFEB 		mov	r3, r0
 1378 0fa0 0030A0E1 		mov	r4, r1
 1379 0fa4 0140A0E1 		mov	r5, r3
 1380 0fa8 0390A0E1 		mov	r6, r4
 1381 0fac 04A0A0E1 		ldr	r3, .L28+40
 1382 0fb0 103B1FE5 		ldr	r3, [r3, #12]	@ float
 1383 0fb4 103093E5 		mov	r0, r3
 1384 0fb8 0300A0E1 		bl	__extendsfdf2
 1385 0fbc FEFFFFEB 		mov	r3, r0
 1386 0fc0 0030A0E1 		mov	r4, r1
 1387 0fc4 0140A0E1 		mov	r0, r3
 1388 0fc8 0300A0E1 		mov	r1, r4
 1389 0fcc 0410A0E1 		bl	sin
 1390 0fd0 FEFFFFEB 		mov	r3, r0
 1391 0fd4 0050A0E1 		mov	r4, r1
 1392 0fd8 0160A0E1 		mov	r0, r5
 1393 0fdc 3C3B1FE5 		mov	r1, r6
 1394 0fe0 103093E5 		mov	r2, r3
 1395 0fe4 0300A0E1 		mov	r3, r4
 1396 0fe8 FEFFFFEB 		bl	__muldf3
 1397 0fec 0030A0E1 		mov	r3, r0
 1398 0ff0 0140A0E1 		mov	r4, r1
 1399 0ff4 0300A0E1 		mov	r5, r3
 1400 0ff8 0410A0E1 		mov	r6, r4
 1401 0ffc FEFFFFEB 		ldr	r3, .L28+40
 1402 1000 0030A0E1 		ldr	r3, [r3, #12]	@ float
 1403 1004 0140A0E1 		mov	r0, r3
 1404 1008 0500A0E1 		bl	__extendsfdf2
 1405 100c 0610A0E1 		mov	r3, r0
 1406 1010 0320A0E1 		mov	r4, r1
 1407 1014 0430A0E1 		mov	r0, r3
 1408 1018 FEFFFFEB 		mov	r1, r4
 1409 101c 0030A0E1 		bl	sin
 1410 1020 0140A0E1 		mov	r3, r0
 1411 1024 0350A0E1 		mov	r4, r1
 1412 1028 0460A0E1 		mov	r0, r5
 1413 102c 8C3B1FE5 		mov	r1, r6
 1414 1030 0C3093E5 		mov	r2, r3
 1415 1034 0300A0E1 		mov	r3, r4
 1416 1038 FEFFFFEB 		bl	__muldf3
 1417 103c 0030A0E1 		mov	r3, r0
 1418 1040 0140A0E1 		mov	r4, r1
 1419 1044 0300A0E1 		mov	r0, r9
 1420 1048 0410A0E1 		mov	r1, sl
 1421 104c FEFFFFEB 		mov	r2, r3
 1422 1050 0030A0E1 		mov	r3, r4
 1423 1054 0140A0E1 		bl	__adddf3
 1424 1058 0500A0E1 		mov	r3, r0
 1425 105c 0610A0E1 		mov	r4, r1
 1426 1060 0320A0E1 		mov	r9, r3
 1427 1064 0430A0E1 		mov	sl, r4
 1428 1068 FEFFFFEB 		ldr	r3, .L28+40
 1429 106c 0030A0E1 		ldr	r3, [r3, #12]	@ float
 1430 1070 0140A0E1 		mov	r0, r3
 1431 1074 0350A0E1 		bl	__extendsfdf2
 1432 1078 0460A0E1 		mov	r3, r0
 1433 107c DC3B1FE5 		mov	r4, r1
 1434 1080 0C3093E5 		mov	r0, r3
 1435 1084 0300A0E1 		mov	r1, r4
 1436 1088 FEFFFFEB 		bl	sin
 1437 108c 0030A0E1 		mov	r5, r0
 1438 1090 0140A0E1 		mov	r6, r1
 1439 1094 0300A0E1 		ldr	r3, .L28+40
 1440 1098 0410A0E1 		ldr	r3, [r3, #12]	@ float
 1441 109c FEFFFFEB 		mov	r0, r3
 1442 10a0 0030A0E1 		bl	__extendsfdf2
 1443 10a4 0140A0E1 		mov	r3, r0
 1444 10a8 0500A0E1 		mov	r4, r1
 1445 10ac 0610A0E1 		mov	r0, r3
 1446 10b0 0320A0E1 		mov	r1, r4
 1447 10b4 0430A0E1 		bl	sin
 1448 10b8 FEFFFFEB 		mov	r3, r0
 1449 10bc 0030A0E1 		mov	r4, r1
 1450 10c0 0140A0E1 		mov	r0, r5
 1451 10c4 0900A0E1 		mov	r1, r6
 1452 10c8 0A10A0E1 		mov	r2, r3
 1453 10cc 0320A0E1 		mov	r3, r4
 1454 10d0 0430A0E1 		bl	__muldf3
 1455 10d4 FEFFFFEB 		mov	r3, r0
 1456 10d8 0030A0E1 		mov	r4, r1
 1457 10dc 0140A0E1 		mov	r5, r3
 1458 10e0 0390A0E1 		mov	r6, r4
 1459 10e4 04A0A0E1 		ldr	r3, .L28+40
 1460 10e8 483C1FE5 		ldr	r3, [r3, #16]	@ float
 1461 10ec 0C3093E5 		mov	r0, r3
 1462 10f0 0300A0E1 		bl	__extendsfdf2
 1463 10f4 FEFFFFEB 		mov	r3, r0
 1464 10f8 0030A0E1 		mov	r4, r1
 1465 10fc 0140A0E1 		mov	r0, r3
 1466 1100 0300A0E1 		mov	r1, r4
 1467 1104 0410A0E1 		bl	sin
 1468 1108 FEFFFFEB 		mov	r3, r0
 1469 110c 0050A0E1 		mov	r4, r1
 1470 1110 0160A0E1 		mov	r0, r5
 1471 1114 743C1FE5 		mov	r1, r6
 1472 1118 0C3093E5 		mov	r2, r3
 1473 111c 0300A0E1 		mov	r3, r4
 1474 1120 FEFFFFEB 		bl	__muldf3
 1475 1124 0030A0E1 		mov	r3, r0
 1476 1128 0140A0E1 		mov	r4, r1
 1477 112c 0300A0E1 		mov	r5, r3
 1478 1130 0410A0E1 		mov	r6, r4
 1479 1134 FEFFFFEB 		ldr	r3, .L28+40
 1480 1138 0030A0E1 		ldr	r3, [r3, #16]	@ float
 1481 113c 0140A0E1 		mov	r0, r3
 1482 1140 0500A0E1 		bl	__extendsfdf2
 1483 1144 0610A0E1 		mov	r3, r0
 1484 1148 0320A0E1 		mov	r4, r1
 1485 114c 0430A0E1 		mov	r0, r3
 1486 1150 FEFFFFEB 		mov	r1, r4
 1487 1154 0030A0E1 		bl	sin
 1488 1158 0140A0E1 		mov	r3, r0
 1489 115c 0350A0E1 		mov	r4, r1
 1490 1160 0460A0E1 		mov	r0, r5
 1491 1164 C43C1FE5 		mov	r1, r6
 1492 1168 103093E5 		mov	r2, r3
 1493 116c 0300A0E1 		mov	r3, r4
 1494 1170 FEFFFFEB 		bl	__muldf3
 1495 1174 0030A0E1 		mov	r3, r0
 1496 1178 0140A0E1 		mov	r4, r1
 1497 117c 0300A0E1 		mov	r0, r9
 1498 1180 0410A0E1 		mov	r1, sl
 1499 1184 FEFFFFEB 		mov	r2, r3
 1500 1188 0030A0E1 		mov	r3, r4
 1501 118c 0140A0E1 		bl	__adddf3
 1502 1190 0500A0E1 		mov	r3, r0
 1503 1194 0610A0E1 		mov	r4, r1
 1504 1198 0320A0E1 		mov	r0, r7
 1505 119c 0430A0E1 		mov	r1, r8
 1506 11a0 FEFFFFEB 		mov	r2, r3
 1507 11a4 0030A0E1 		mov	r3, r4
 1508 11a8 0140A0E1 		bl	__divdf3
 1509 11ac 0350A0E1 		mov	r3, r0
 1510 11b0 0460A0E1 		mov	r4, r1
 1511 11b4 143D1FE5 		mov	r0, r3
 1512 11b8 103093E5 		mov	r1, r4
 1513 11bc 0300A0E1 		bl	__truncdfsf2
 1514 11c0 FEFFFFEB 		mov	r3, r0
 1515 11c4 0030A0E1 		str	r3, [fp, #-160]	@ float
 1516 11c8 0140A0E1 		.loc 1 267 0
 1517 11cc 0300A0E1 		ldr	r3, .L28+40
 1518 11d0 0410A0E1 		ldr	r3, [r3, #16]	@ float
 1519 11d4 FEFFFFEB 		mov	r0, r3
 1520 11d8 0030A0E1 		bl	__extendsfdf2
 1521 11dc 0140A0E1 		mov	r3, r0
 1522 11e0 0500A0E1 		mov	r4, r1
 1523 11e4 0610A0E1 		mov	r0, r3
 1524 11e8 0320A0E1 		mov	r1, r4
 1525 11ec 0430A0E1 		bl	sin
 1526 11f0 FEFFFFEB 		mov	r3, r0
 1527 11f4 0030A0E1 		mov	r4, r1
 1528 11f8 0140A0E1 		eor	r5, r3, #-2147483648
 1529 11fc 0900A0E1 		mov	r6, r4
 1530 1200 0A10A0E1 		ldr	r3, .L28+40
 1531 1204 0320A0E1 		ldr	r3, [r3, #16]	@ float
 1532 1208 0430A0E1 		mov	r0, r3
 1533 120c FEFFFFEB 		bl	__extendsfdf2
 1534 1210 0030A0E1 		mov	r3, r0
 1535 1214 0140A0E1 		mov	r4, r1
 1536 1218 0700A0E1 		mov	r0, r3
 1537 121c 0810A0E1 		mov	r1, r4
 1538 1220 0320A0E1 		bl	cos
 1539 1224 0430A0E1 		mov	r7, r0
 1540 1228 FEFFFFEB 		mov	r8, r1
 1541 122c 0030A0E1 		ldr	r3, .L28+40
 1542 1230 0140A0E1 		ldr	r3, [r3, #16]	@ float
 1543 1234 0300A0E1 		mov	r0, r3
 1544 1238 0410A0E1 		bl	__extendsfdf2
 1545 123c FEFFFFEB 		mov	r3, r0
 1546 1240 0030A0E1 		mov	r4, r1
 1547 1244 A0300BE5 		mov	r0, r3
 267:lab.c         **** 	Rinv[2] = -sin(xd[4])/(cos(xd[4])*cos(xd[4]) + sin(xd[4])*sin(xd[4]));
 1548              		r4, r1
 1549 1248 A83D1FE5 		mov	r0, r7
 1550 124c 103093E5 		mov	r1, r8
 1551 1250 0300A0E1 		mov	r2, r3
 1552 1254 FEFFFFEB 		mov	r3, r4
 1553 1258 0030A0E1 		bl	__muldf3
 1554 125c 0140A0E1 		mov	r3, r0
 1555 1260 0300A0E1 		mov	r4, r1
 1556 1264 0410A0E1 		mov	r9, r3
 1557 1268 FEFFFFEB 		mov	sl, r4
 1558 126c 0030A0E1 		ldr	r3, .L28+40
 1559 1270 0140A0E1 		ldr	r3, [r3, #16]	@ float
 1560 1274 025123E2 		mov	r0, r3
 1561 1278 0460A0E1 		bl	__extendsfdf2
 1562 127c DC3D1FE5 		mov	r3, r0
 1563 1280 103093E5 		mov	r4, r1
 1564 1284 0300A0E1 		mov	r0, r3
 1565 1288 FEFFFFEB 		mov	r1, r4
 1566 128c 0030A0E1 		bl	sin
 1567 1290 0140A0E1 		mov	r7, r0
 1568 1294 0300A0E1 		mov	r8, r1
 1569 1298 0410A0E1 		ldr	r3, .L28+40
 1570 129c FEFFFFEB 		ldr	r3, [r3, #16]	@ float
 1571 12a0 0070A0E1 		mov	r0, r3
 1572 12a4 0180A0E1 		bl	__extendsfdf2
 1573 12a8 083E1FE5 		mov	r3, r0
 1574 12ac 103093E5 		mov	r4, r1
 1575 12b0 0300A0E1 		mov	r0, r3
 1576 12b4 FEFFFFEB 		mov	r1, r4
 1577 12b8 0030A0E1 		bl	sin
 1578 12bc 0140A0E1 		mov	r3, r0
 1579 12c0 0300A0E1 		mov	r4, r1
 1580 12c4 0410A0E1 		mov	r0, r7
 1581 12c8 FEFFFFEB 		mov	r1, r8
 1582 12cc 0030A0E1 		mov	r2, r3
 1583 12d0 0140A0E1 		mov	r3, r4
 1584 12d4 0700A0E1 		bl	__muldf3
 1585 12d8 0810A0E1 		mov	r3, r0
 1586 12dc 0320A0E1 		mov	r4, r1
 1587 12e0 0430A0E1 		mov	r0, r9
 1588 12e4 FEFFFFEB 		mov	r1, sl
 1589 12e8 0030A0E1 		mov	r2, r3
 1590 12ec 0140A0E1 		mov	r3, r4
 1591 12f0 0390A0E1 		bl	__adddf3
 1592 12f4 04A0A0E1 		mov	r3, r0
 1593 12f8 583E1FE5 		mov	r4, r1
 1594 12fc 103093E5 		mov	r0, r5
 1595 1300 0300A0E1 		mov	r1, r6
 1596 1304 FEFFFFEB 		mov	r2, r3
 1597 1308 0030A0E1 		mov	r3, r4
 1598 130c 0140A0E1 		bl	__divdf3
 1599 1310 0300A0E1 		mov	r3, r0
 1600 1314 0410A0E1 		mov	r4, r1
 1601 1318 FEFFFFEB 		mov	r0, r3
 1602 131c 0070A0E1 		mov	r1, r4
 1603 1320 0180A0E1 		bl	__truncdfsf2
 1604 1324 843E1FE5 		mov	r3, r0
 1605 1328 103093E5 		str	r3, [fp, #-156]	@ float
 1606 132c 0300A0E1 		.loc 1 268 0
 1607 1330 FEFFFFEB 		ldr	r3, .L28+40
 1608 1334 0030A0E1 		ldr	r3, [r3, #16]	@ float
 1609 1338 0140A0E1 		mov	r0, r3
 1610 133c 0300A0E1 		bl	__extendsfdf2
 1611 1340 0410A0E1 		mov	r3, r0
 1612 1344 FEFFFFEB 		mov	r4, r1
 1613 1348 0030A0E1 		mov	r0, r3
 1614 134c 0140A0E1 		mov	r1, r4
 1615 1350 0700A0E1 		bl	cos
 1616 1354 0810A0E1 		mov	r5, r0
 1617 1358 0320A0E1 		mov	r6, r1
 1618 135c 0430A0E1 		ldr	r3, .L28+40
 1619 1360 FEFFFFEB 		ldr	r3, [r3, #16]	@ float
 1620 1364 0030A0E1 		mov	r0, r3
 1621 1368 0140A0E1 		bl	__extendsfdf2
 1622 136c 0900A0E1 		mov	r3, r0
 1623 1370 0A10A0E1 		mov	r4, r1
 1624 1374 0320A0E1 		mov	r0, r3
 1625 1378 0430A0E1 		mov	r1, r4
 1626 137c FEFFFFEB 		bl	cos
 1627 1380 0030A0E1 		mov	r3, r0
 1628 1384 0140A0E1 		mov	r4, r1
 1629 1388 0500A0E1 		mov	r0, r5
 1630 138c 0610A0E1 		mov	r1, r6
 1631 1390 0320A0E1 		mov	r2, r3
 1632 1394 0430A0E1 		mov	r3, r4
 1633 1398 FEFFFFEB 		bl	__muldf3
 1634 139c 0030A0E1 		mov	r3, r0
 1635 13a0 0140A0E1 		mov	r4, r1
 1636 13a4 0300A0E1 		mov	r5, r3
 1637 13a8 0410A0E1 		mov	r6, r4
 1638 13ac FEFFFFEB 		ldr	r3, .L28+40
 1639 13b0 0030A0E1 		ldr	r3, [r3, #20]	@ float
 1640 13b4 9C300BE5 		mov	r0, r3
 268:lab.c         **** 	Rinv[3] = -(cos(xd[4])*cos(xd[4])*cos(xd[5])*sin(xd[3]) - cos(xd[3])*sin(xd[4])*sin(xd[5]) + cos(x
 1641              	, r1
 1642 13b8 183F1FE5 		mov	r0, r5
 1643 13bc 103093E5 		mov	r1, r6
 1644 13c0 0300A0E1 		mov	r2, r3
 1645 13c4 FEFFFFEB 		mov	r3, r4
 1646 13c8 0030A0E1 		bl	__muldf3
 1647 13cc 0140A0E1 		mov	r3, r0
 1648 13d0 0300A0E1 		mov	r4, r1
 1649 13d4 0410A0E1 		mov	r5, r3
 1650 13d8 FEFFFFEB 		mov	r6, r4
 1651 13dc 0050A0E1 		ldr	r3, .L28+40
 1652 13e0 0160A0E1 		ldr	r3, [r3, #12]	@ float
 1653 13e4 443F1FE5 		mov	r0, r3
 1654 13e8 103093E5 		bl	__extendsfdf2
 1655 13ec 0300A0E1 		mov	r3, r0
 1656 13f0 FEFFFFEB 		mov	r4, r1
 1657 13f4 0030A0E1 		mov	r0, r3
 1658 13f8 0140A0E1 		mov	r1, r4
 1659 13fc 0300A0E1 		bl	sin
 1660 1400 0410A0E1 		mov	r3, r0
 1661 1404 FEFFFFEB 		mov	r4, r1
 1662 1408 0030A0E1 		mov	r0, r5
 1663 140c 0140A0E1 		mov	r1, r6
 1664 1410 0500A0E1 		mov	r2, r3
 1665 1414 0610A0E1 		mov	r3, r4
 1666 1418 0320A0E1 		bl	__muldf3
 1667 141c 0430A0E1 		mov	r3, r0
 1668 1420 FEFFFFEB 		mov	r4, r1
 1669 1424 0030A0E1 		mov	r7, r3
 1670 1428 0140A0E1 		mov	r8, r4
 1671 142c 0350A0E1 		ldr	r3, .L30
 1672 1430 0460A0E1 		ldr	r3, [r3, #12]	@ float
 1673 1434 943F1FE5 		mov	r0, r3
 1674 1438 143093E5 		bl	__extendsfdf2
 1675 143c 0300A0E1 		mov	r3, r0
 1676 1440 FEFFFFEB 		mov	r4, r1
 1677 1444 0030A0E1 		mov	r0, r3
 1678 1448 0140A0E1 		mov	r1, r4
 1679 144c 0300A0E1 		bl	cos
 1680 1450 0410A0E1 		mov	r5, r0
 1681 1454 FEFFFFEB 		mov	r6, r1
 1682 1458 0030A0E1 		ldr	r3, .L30
 1683 145c 0140A0E1 		ldr	r3, [r3, #16]	@ float
 1684 1460 0500A0E1 		mov	r0, r3
 1685 1464 0610A0E1 		bl	__extendsfdf2
 1686 1468 0320A0E1 		mov	r3, r0
 1687 146c 0430A0E1 		mov	r4, r1
 1688 1470 FEFFFFEB 		mov	r0, r3
 1689 1474 0030A0E1 		mov	r1, r4
 1690 1478 0140A0E1 		bl	sin
 1691 147c 0350A0E1 		mov	r3, r0
 1692 1480 0460A0E1 		mov	r4, r1
 1693 1484 E43F1FE5 		mov	r0, r5
 1694 1488 0C3093E5 		mov	r1, r6
 1695 148c 0300A0E1 		mov	r2, r3
 1696 1490 FEFFFFEB 		mov	r3, r4
 1697 1494 0030A0E1 		bl	__muldf3
 1698 1498 0140A0E1 		mov	r3, r0
 1699 149c 0300A0E1 		mov	r4, r1
 1700 14a0 0410A0E1 		mov	r5, r3
 1701 14a4 FEFFFFEB 		mov	r6, r4
 1702 14a8 0030A0E1 		ldr	r3, .L30
 1703 14ac 0140A0E1 		ldr	r3, [r3, #20]	@ float
 1704 14b0 0500A0E1 		mov	r0, r3
 1705 14b4 0610A0E1 		bl	__extendsfdf2
 1706 14b8 0320A0E1 		mov	r3, r0
 1707 14bc 0430A0E1 		mov	r4, r1
 1708 14c0 FEFFFFEB 		mov	r0, r3
 1709 14c4 0030A0E1 		mov	r1, r4
 1710 14c8 0140A0E1 		bl	sin
 1711 14cc 0370A0E1 		mov	r3, r0
 1712 14d0 0480A0E1 		mov	r4, r1
 1713 14d4 F43F9FE5 		mov	r0, r5
 1714 14d8 0C3093E5 		mov	r1, r6
 1715 14dc 0300A0E1 		mov	r2, r3
 1716 14e0 FEFFFFEB 		mov	r3, r4
 1717 14e4 0030A0E1 		bl	__muldf3
 1718 14e8 0140A0E1 		mov	r3, r0
 1719 14ec 0300A0E1 		mov	r4, r1
 1720 14f0 0410A0E1 		mov	r0, r7
 1721 14f4 FEFFFFEB 		mov	r1, r8
 1722 14f8 0050A0E1 		mov	r2, r3
 1723 14fc 0160A0E1 		mov	r3, r4
 1724 1500 C83F9FE5 		bl	__subdf3
 1725 1504 103093E5 		mov	r3, r0
 1726 1508 0300A0E1 		mov	r4, r1
 1727 150c FEFFFFEB 		mov	r7, r3
 1728 1510 0030A0E1 		mov	r8, r4
 1729 1514 0140A0E1 		ldr	r3, .L30
 1730 1518 0300A0E1 		ldr	r3, [r3, #20]	@ float
 1731 151c 0410A0E1 		mov	r0, r3
 1732 1520 FEFFFFEB 		bl	__extendsfdf2
 1733 1524 0030A0E1 		mov	r3, r0
 1734 1528 0140A0E1 		mov	r4, r1
 1735 152c 0500A0E1 		mov	r0, r3
 1736 1530 0610A0E1 		mov	r1, r4
 1737 1534 0320A0E1 		bl	cos
 1738 1538 0430A0E1 		mov	r5, r0
 1739 153c FEFFFFEB 		mov	r6, r1
 1740 1540 0030A0E1 		ldr	r3, .L30
 1741 1544 0140A0E1 		ldr	r3, [r3, #12]	@ float
 1742 1548 0350A0E1 		mov	r0, r3
 1743 154c 0460A0E1 		bl	__extendsfdf2
 1744 1550 783F9FE5 		mov	r3, r0
 1745 1554 143093E5 		mov	r4, r1
 1746 1558 0300A0E1 		mov	r0, r3
 1747 155c FEFFFFEB 		mov	r1, r4
 1748 1560 0030A0E1 		bl	sin
 1749 1564 0140A0E1 		mov	r3, r0
 1750 1568 0300A0E1 		mov	r4, r1
 1751 156c 0410A0E1 		mov	r0, r5
 1752 1570 FEFFFFEB 		mov	r1, r6
 1753 1574 0030A0E1 		mov	r2, r3
 1754 1578 0140A0E1 		mov	r3, r4
 1755 157c 0500A0E1 		bl	__muldf3
 1756 1580 0610A0E1 		mov	r3, r0
 1757 1584 0320A0E1 		mov	r4, r1
 1758 1588 0430A0E1 		mov	r5, r3
 1759 158c FEFFFFEB 		mov	r6, r4
 1760 1590 0030A0E1 		ldr	r3, .L30
 1761 1594 0140A0E1 		ldr	r3, [r3, #16]	@ float
 1762 1598 0700A0E1 		mov	r0, r3
 1763 159c 0810A0E1 		bl	__extendsfdf2
 1764 15a0 0320A0E1 		mov	r3, r0
 1765 15a4 0430A0E1 		mov	r4, r1
 1766 15a8 FEFFFFEB 		mov	r0, r3
 1767 15ac 0030A0E1 		mov	r1, r4
 1768 15b0 0140A0E1 		bl	sin
 1769 15b4 0370A0E1 		mov	r3, r0
 1770 15b8 0480A0E1 		mov	r4, r1
 1771 15bc 0C3F9FE5 		mov	r0, r5
 1772 15c0 143093E5 		mov	r1, r6
 1773 15c4 0300A0E1 		mov	r2, r3
 1774 15c8 FEFFFFEB 		mov	r3, r4
 1775 15cc 0030A0E1 		bl	__muldf3
 1776 15d0 0140A0E1 		mov	r3, r0
 1777 15d4 0300A0E1 		mov	r4, r1
 1778 15d8 0410A0E1 		mov	r5, r3
 1779 15dc FEFFFFEB 		mov	r6, r4
 1780 15e0 0050A0E1 		ldr	r3, .L30
 1781 15e4 0160A0E1 		ldr	r3, [r3, #16]	@ float
 1782 15e8 E03E9FE5 		mov	r0, r3
 1783 15ec 0C3093E5 		bl	__extendsfdf2
 1784 15f0 0300A0E1 		mov	r3, r0
 1785 15f4 FEFFFFEB 		mov	r4, r1
 1786 15f8 0030A0E1 		mov	r0, r3
 1787 15fc 0140A0E1 		mov	r1, r4
 1788 1600 0300A0E1 		bl	sin
 1789 1604 0410A0E1 		mov	r3, r0
 1790 1608 FEFFFFEB 		mov	r4, r1
 1791 160c 0030A0E1 		mov	r0, r5
 1792 1610 0140A0E1 		mov	r1, r6
 1793 1614 0500A0E1 		mov	r2, r3
 1794 1618 0610A0E1 		mov	r3, r4
 1795 161c 0320A0E1 		bl	__muldf3
 1796 1620 0430A0E1 		mov	r3, r0
 1797 1624 FEFFFFEB 		mov	r4, r1
 1798 1628 0030A0E1 		mov	r0, r7
 1799 162c 0140A0E1 		mov	r1, r8
 1800 1630 0350A0E1 		mov	r2, r3
 1801 1634 0460A0E1 		mov	r3, r4
 1802 1638 903E9FE5 		bl	__adddf3
 1803 163c 103093E5 		mov	r3, r0
 1804 1640 0300A0E1 		mov	r4, r1
 1805 1644 FEFFFFEB 		eor	r7, r3, #-2147483648
 1806 1648 0030A0E1 		mov	r8, r4
 1807 164c 0140A0E1 		ldr	r3, .L30
 1808 1650 0300A0E1 		ldr	r3, [r3, #12]	@ float
 1809 1654 0410A0E1 		mov	r0, r3
 1810 1658 FEFFFFEB 		bl	__extendsfdf2
 1811 165c 0030A0E1 		mov	r3, r0
 1812 1660 0140A0E1 		mov	r4, r1
 1813 1664 0500A0E1 		mov	r0, r3
 1814 1668 0610A0E1 		mov	r1, r4
 1815 166c 0320A0E1 		bl	cos
 1816 1670 0430A0E1 		mov	r5, r0
 1817 1674 FEFFFFEB 		mov	r6, r1
 1818 1678 0030A0E1 		ldr	r3, .L30
 1819 167c 0140A0E1 		ldr	r3, [r3, #12]	@ float
 1820 1680 0350A0E1 		mov	r0, r3
 1821 1684 0460A0E1 		bl	__extendsfdf2
 1822 1688 403E9FE5 		mov	r3, r0
 1823 168c 103093E5 		mov	r4, r1
 1824 1690 0300A0E1 		mov	r0, r3
 1825 1694 FEFFFFEB 		mov	r1, r4
 1826 1698 0030A0E1 		bl	cos
 1827 169c 0140A0E1 		mov	r3, r0
 1828 16a0 0300A0E1 		mov	r4, r1
 1829 16a4 0410A0E1 		mov	r0, r5
 1830 16a8 FEFFFFEB 		mov	r1, r6
 1831 16ac 0030A0E1 		mov	r2, r3
 1832 16b0 0140A0E1 		mov	r3, r4
 1833 16b4 0500A0E1 		bl	__muldf3
 1834 16b8 0610A0E1 		mov	r3, r0
 1835 16bc 0320A0E1 		mov	r4, r1
 1836 16c0 0430A0E1 		mov	r5, r3
 1837 16c4 FEFFFFEB 		mov	r6, r4
 1838 16c8 0030A0E1 		ldr	r3, .L30
 1839 16cc 0140A0E1 		ldr	r3, [r3, #16]	@ float
 1840 16d0 0700A0E1 		mov	r0, r3
 1841 16d4 0810A0E1 		bl	__extendsfdf2
 1842 16d8 0320A0E1 		mov	r3, r0
 1843 16dc 0430A0E1 		mov	r4, r1
 1844 16e0 FEFFFFEB 		mov	r0, r3
 1845 16e4 0030A0E1 		mov	r1, r4
 1846 16e8 0140A0E1 		bl	cos
 1847 16ec 027123E2 		mov	r3, r0
 1848 16f0 0480A0E1 		mov	r4, r1
 1849 16f4 D43D9FE5 		mov	r0, r5
 1850 16f8 0C3093E5 		mov	r1, r6
 1851 16fc 0300A0E1 		mov	r2, r3
 1852 1700 FEFFFFEB 		mov	r3, r4
 1853 1704 0030A0E1 		bl	__muldf3
 1854 1708 0140A0E1 		mov	r3, r0
 1855 170c 0300A0E1 		mov	r4, r1
 1856 1710 0410A0E1 		mov	r5, r3
 1857 1714 FEFFFFEB 		mov	r6, r4
 1858 1718 0050A0E1 		ldr	r3, .L30
 1859 171c 0160A0E1 		ldr	r3, [r3, #16]	@ float
 1860 1720 A83D9FE5 		mov	r0, r3
 1861 1724 0C3093E5 		bl	__extendsfdf2
 1862 1728 0300A0E1 		mov	r3, r0
 1863 172c FEFFFFEB 		mov	r4, r1
 1864 1730 0030A0E1 		mov	r0, r3
 1865 1734 0140A0E1 		mov	r1, r4
 1866 1738 0300A0E1 		bl	cos
 1867 173c 0410A0E1 		mov	r3, r0
 1868 1740 FEFFFFEB 		mov	r4, r1
 1869 1744 0030A0E1 		mov	r0, r5
 1870 1748 0140A0E1 		mov	r1, r6
 1871 174c 0500A0E1 		mov	r2, r3
 1872 1750 0610A0E1 		mov	r3, r4
 1873 1754 0320A0E1 		bl	__muldf3
 1874 1758 0430A0E1 		mov	r3, r0
 1875 175c FEFFFFEB 		mov	r4, r1
 1876 1760 0030A0E1 		mov	r5, r3
 1877 1764 0140A0E1 		mov	r6, r4
 1878 1768 0350A0E1 		ldr	r3, .L30
 1879 176c 0460A0E1 		ldr	r3, [r3, #20]	@ float
 1880 1770 583D9FE5 		mov	r0, r3
 1881 1774 103093E5 		bl	__extendsfdf2
 1882 1778 0300A0E1 		mov	r3, r0
 1883 177c FEFFFFEB 		mov	r4, r1
 1884 1780 0030A0E1 		mov	r0, r3
 1885 1784 0140A0E1 		mov	r1, r4
 1886 1788 0300A0E1 		bl	cos
 1887 178c 0410A0E1 		mov	r3, r0
 1888 1790 FEFFFFEB 		mov	r4, r1
 1889 1794 0030A0E1 		mov	r0, r5
 1890 1798 0140A0E1 		mov	r1, r6
 1891 179c 0500A0E1 		mov	r2, r3
 1892 17a0 0610A0E1 		mov	r3, r4
 1893 17a4 0320A0E1 		bl	__muldf3
 1894 17a8 0430A0E1 		mov	r3, r0
 1895 17ac FEFFFFEB 		mov	r4, r1
 1896 17b0 0030A0E1 		mov	r5, r3
 1897 17b4 0140A0E1 		mov	r6, r4
 1898 17b8 0350A0E1 		ldr	r3, .L30
 1899 17bc 0460A0E1 		ldr	r3, [r3, #20]	@ float
 1900 17c0 083D9FE5 		mov	r0, r3
 1901 17c4 103093E5 		bl	__extendsfdf2
 1902 17c8 0300A0E1 		mov	r3, r0
 1903 17cc FEFFFFEB 		mov	r4, r1
 1904 17d0 0030A0E1 		mov	r0, r3
 1905 17d4 0140A0E1 		mov	r1, r4
 1906 17d8 0300A0E1 		bl	cos
 1907 17dc 0410A0E1 		mov	r3, r0
 1908 17e0 FEFFFFEB 		mov	r4, r1
 1909 17e4 0030A0E1 		mov	r0, r5
 1910 17e8 0140A0E1 		mov	r1, r6
 1911 17ec 0500A0E1 		mov	r2, r3
 1912 17f0 0610A0E1 		mov	r3, r4
 1913 17f4 0320A0E1 		bl	__muldf3
 1914 17f8 0430A0E1 		mov	r3, r0
 1915 17fc FEFFFFEB 		mov	r4, r1
 1916 1800 0030A0E1 		mov	r9, r3
 1917 1804 0140A0E1 		mov	sl, r4
 1918 1808 0350A0E1 		ldr	r3, .L30
 1919 180c 0460A0E1 		ldr	r3, [r3, #12]	@ float
 1920 1810 B83C9FE5 		mov	r0, r3
 1921 1814 143093E5 		bl	__extendsfdf2
 1922 1818 0300A0E1 		mov	r3, r0
 1923 181c FEFFFFEB 		mov	r4, r1
 1924 1820 0030A0E1 		mov	r0, r3
 1925 1824 0140A0E1 		mov	r1, r4
 1926 1828 0300A0E1 		bl	cos
 1927 182c 0410A0E1 		mov	r5, r0
 1928 1830 FEFFFFEB 		mov	r6, r1
 1929 1834 0030A0E1 		ldr	r3, .L30
 1930 1838 0140A0E1 		ldr	r3, [r3, #12]	@ float
 1931 183c 0500A0E1 		mov	r0, r3
 1932 1840 0610A0E1 		bl	__extendsfdf2
 1933 1844 0320A0E1 		mov	r3, r0
 1934 1848 0430A0E1 		mov	r4, r1
 1935 184c FEFFFFEB 		mov	r0, r3
 1936 1850 0030A0E1 		mov	r1, r4
 1937 1854 0140A0E1 		bl	cos
 1938 1858 0350A0E1 		mov	r3, r0
 1939 185c 0460A0E1 		mov	r4, r1
 1940 1860 683C9FE5 		mov	r0, r5
 1941 1864 143093E5 		mov	r1, r6
 1942 1868 0300A0E1 		mov	r2, r3
 1943 186c FEFFFFEB 		mov	r3, r4
 1944 1870 0030A0E1 		bl	__muldf3
 1945 1874 0140A0E1 		mov	r3, r0
 1946 1878 0300A0E1 		mov	r4, r1
 1947 187c 0410A0E1 		mov	r5, r3
 1948 1880 FEFFFFEB 		mov	r6, r4
 1949 1884 0030A0E1 		ldr	r3, .L30
 1950 1888 0140A0E1 		ldr	r3, [r3, #16]	@ float
 1951 188c 0500A0E1 		mov	r0, r3
 1952 1890 0610A0E1 		bl	__extendsfdf2
 1953 1894 0320A0E1 		mov	r3, r0
 1954 1898 0430A0E1 		mov	r4, r1
 1955 189c FEFFFFEB 		mov	r0, r3
 1956 18a0 0030A0E1 		mov	r1, r4
 1957 18a4 0140A0E1 		bl	cos
 1958 18a8 0390A0E1 		mov	r3, r0
 1959 18ac 04A0A0E1 		mov	r4, r1
 1960 18b0 183C9FE5 		mov	r0, r5
 1961 18b4 0C3093E5 		mov	r1, r6
 1962 18b8 0300A0E1 		mov	r2, r3
 1963 18bc FEFFFFEB 		mov	r3, r4
 1964 18c0 0030A0E1 		bl	__muldf3
 1965 18c4 0140A0E1 		mov	r3, r0
 1966 18c8 0300A0E1 		mov	r4, r1
 1967 18cc 0410A0E1 		mov	r5, r3
 1968 18d0 FEFFFFEB 		mov	r6, r4
 1969 18d4 0050A0E1 		ldr	r3, .L30
 1970 18d8 0160A0E1 		ldr	r3, [r3, #16]	@ float
 1971 18dc EC3B9FE5 		mov	r0, r3
 1972 18e0 0C3093E5 		bl	__extendsfdf2
 1973 18e4 0300A0E1 		mov	r3, r0
 1974 18e8 FEFFFFEB 		mov	r4, r1
 1975 18ec 0030A0E1 		mov	r0, r3
 1976 18f0 0140A0E1 		mov	r1, r4
 1977 18f4 0300A0E1 		bl	cos
 1978 18f8 0410A0E1 		mov	r3, r0
 1979 18fc FEFFFFEB 		mov	r4, r1
 1980 1900 0030A0E1 		mov	r0, r5
 1981 1904 0140A0E1 		mov	r1, r6
 1982 1908 0500A0E1 		mov	r2, r3
 1983 190c 0610A0E1 		mov	r3, r4
 1984 1910 0320A0E1 		bl	__muldf3
 1985 1914 0430A0E1 		mov	r3, r0
 1986 1918 FEFFFFEB 		mov	r4, r1
 1987 191c 0030A0E1 		mov	r5, r3
 1988 1920 0140A0E1 		mov	r6, r4
 1989 1924 0350A0E1 		ldr	r3, .L30
 1990 1928 0460A0E1 		ldr	r3, [r3, #20]	@ float
 1991 192c 9C3B9FE5 		mov	r0, r3
 1992 1930 103093E5 		bl	__extendsfdf2
 1993 1934 0300A0E1 		mov	r3, r0
 1994 1938 FEFFFFEB 		mov	r4, r1
 1995 193c 0030A0E1 		mov	r0, r3
 1996 1940 0140A0E1 		mov	r1, r4
 1997 1944 0300A0E1 		bl	sin
 1998 1948 0410A0E1 		mov	r3, r0
 1999 194c FEFFFFEB 		mov	r4, r1
 2000 1950 0030A0E1 		mov	r0, r5
 2001 1954 0140A0E1 		mov	r1, r6
 2002 1958 0500A0E1 		mov	r2, r3
 2003 195c 0610A0E1 		mov	r3, r4
 2004 1960 0320A0E1 		bl	__muldf3
 2005 1964 0430A0E1 		mov	r3, r0
 2006 1968 FEFFFFEB 		mov	r4, r1
 2007 196c 0030A0E1 		mov	r5, r3
 2008 1970 0140A0E1 		mov	r6, r4
 2009 1974 0350A0E1 		ldr	r3, .L30
 2010 1978 0460A0E1 		ldr	r3, [r3, #20]	@ float
 2011 197c 4C3B9FE5 		mov	r0, r3
 2012 1980 103093E5 		bl	__extendsfdf2
 2013 1984 0300A0E1 		mov	r3, r0
 2014 1988 FEFFFFEB 		mov	r4, r1
 2015 198c 0030A0E1 		mov	r0, r3
 2016 1990 0140A0E1 		mov	r1, r4
 2017 1994 0300A0E1 		bl	sin
 2018 1998 0410A0E1 		mov	r3, r0
 2019 199c FEFFFFEB 		mov	r4, r1
 2020 19a0 0030A0E1 		mov	r0, r5
 2021 19a4 0140A0E1 		mov	r1, r6
 2022 19a8 0500A0E1 		mov	r2, r3
 2023 19ac 0610A0E1 		mov	r3, r4
 2024 19b0 0320A0E1 		bl	__muldf3
 2025 19b4 0430A0E1 		mov	r3, r0
 2026 19b8 FEFFFFEB 		mov	r4, r1
 2027 19bc 0030A0E1 		mov	r0, r9
 2028 19c0 0140A0E1 		mov	r1, sl
 2029 19c4 0350A0E1 		mov	r2, r3
 2030 19c8 0460A0E1 		mov	r3, r4
 2031 19cc FC3A9FE5 		bl	__adddf3
 2032 19d0 143093E5 		mov	r3, r0
 2033 19d4 0300A0E1 		mov	r4, r1
 2034 19d8 FEFFFFEB 		mov	r9, r3
 2035 19dc 0030A0E1 		mov	sl, r4
 2036 19e0 0140A0E1 		ldr	r3, .L30
 2037 19e4 0300A0E1 		ldr	r3, [r3, #12]	@ float
 2038 19e8 0410A0E1 		mov	r0, r3
 2039 19ec FEFFFFEB 		bl	__extendsfdf2
 2040 19f0 0030A0E1 		mov	r3, r0
 2041 19f4 0140A0E1 		mov	r4, r1
 2042 19f8 0500A0E1 		mov	r0, r3
 2043 19fc 0610A0E1 		mov	r1, r4
 2044 1a00 0320A0E1 		bl	cos
 2045 1a04 0430A0E1 		mov	r5, r0
 2046 1a08 FEFFFFEB 		mov	r6, r1
 2047 1a0c 0030A0E1 		ldr	r3, .L30
 2048 1a10 0140A0E1 		ldr	r3, [r3, #12]	@ float
 2049 1a14 0350A0E1 		mov	r0, r3
 2050 1a18 0460A0E1 		bl	__extendsfdf2
 2051 1a1c AC3A9FE5 		mov	r3, r0
 2052 1a20 143093E5 		mov	r4, r1
 2053 1a24 0300A0E1 		mov	r0, r3
 2054 1a28 FEFFFFEB 		mov	r1, r4
 2055 1a2c 0030A0E1 		bl	cos
 2056 1a30 0140A0E1 		mov	r3, r0
 2057 1a34 0300A0E1 		mov	r4, r1
 2058 1a38 0410A0E1 		mov	r0, r5
 2059 1a3c FEFFFFEB 		mov	r1, r6
 2060 1a40 0030A0E1 		mov	r2, r3
 2061 1a44 0140A0E1 		mov	r3, r4
 2062 1a48 0500A0E1 		bl	__muldf3
 2063 1a4c 0610A0E1 		mov	r3, r0
 2064 1a50 0320A0E1 		mov	r4, r1
 2065 1a54 0430A0E1 		mov	r5, r3
 2066 1a58 FEFFFFEB 		mov	r6, r4
 2067 1a5c 0030A0E1 		ldr	r3, .L30
 2068 1a60 0140A0E1 		ldr	r3, [r3, #20]	@ float
 2069 1a64 0900A0E1 		mov	r0, r3
 2070 1a68 0A10A0E1 		bl	__extendsfdf2
 2071 1a6c 0320A0E1 		mov	r3, r0
 2072 1a70 0430A0E1 		mov	r4, r1
 2073 1a74 FEFFFFEB 		mov	r0, r3
 2074 1a78 0030A0E1 		mov	r1, r4
 2075 1a7c 0140A0E1 		bl	cos
 2076 1a80 0390A0E1 		mov	r3, r0
 2077 1a84 04A0A0E1 		mov	r4, r1
 2078 1a88 403A9FE5 		mov	r0, r5
 2079 1a8c 0C3093E5 		mov	r1, r6
 2080 1a90 0300A0E1 		mov	r2, r3
 2081 1a94 FEFFFFEB 		mov	r3, r4
 2082 1a98 0030A0E1 		bl	__muldf3
 2083 1a9c 0140A0E1 		mov	r3, r0
 2084 1aa0 0300A0E1 		mov	r4, r1
 2085 1aa4 0410A0E1 		mov	r5, r3
 2086 1aa8 FEFFFFEB 		mov	r6, r4
 2087 1aac 0050A0E1 		ldr	r3, .L30
 2088 1ab0 0160A0E1 		ldr	r3, [r3, #20]	@ float
 2089 1ab4 143A9FE5 		mov	r0, r3
 2090 1ab8 0C3093E5 		bl	__extendsfdf2
 2091 1abc 0300A0E1 		mov	r3, r0
 2092 1ac0 FEFFFFEB 		mov	r4, r1
 2093 1ac4 0030A0E1 		mov	r0, r3
 2094 1ac8 0140A0E1 		mov	r1, r4
 2095 1acc 0300A0E1 		bl	cos
 2096 1ad0 0410A0E1 		mov	r3, r0
 2097 1ad4 FEFFFFEB 		mov	r4, r1
 2098 1ad8 0030A0E1 		mov	r0, r5
 2099 1adc 0140A0E1 		mov	r1, r6
 2100 1ae0 0500A0E1 		mov	r2, r3
 2101 1ae4 0610A0E1 		mov	r3, r4
 2102 1ae8 0320A0E1 		bl	__muldf3
 2103 1aec 0430A0E1 		mov	r3, r0
 2104 1af0 FEFFFFEB 		mov	r4, r1
 2105 1af4 0030A0E1 		mov	r5, r3
 2106 1af8 0140A0E1 		mov	r6, r4
 2107 1afc 0350A0E1 		ldr	r3, .L30
 2108 1b00 0460A0E1 		ldr	r3, [r3, #16]	@ float
 2109 1b04 C4399FE5 		mov	r0, r3
 2110 1b08 143093E5 		bl	__extendsfdf2
 2111 1b0c 0300A0E1 		mov	r3, r0
 2112 1b10 FEFFFFEB 		mov	r4, r1
 2113 1b14 0030A0E1 		mov	r0, r3
 2114 1b18 0140A0E1 		mov	r1, r4
 2115 1b1c 0300A0E1 		bl	sin
 2116 1b20 0410A0E1 		mov	r3, r0
 2117 1b24 FEFFFFEB 		mov	r4, r1
 2118 1b28 0030A0E1 		mov	r0, r5
 2119 1b2c 0140A0E1 		mov	r1, r6
 2120 1b30 0500A0E1 		mov	r2, r3
 2121 1b34 0610A0E1 		mov	r3, r4
 2122 1b38 0320A0E1 		bl	__muldf3
 2123 1b3c 0430A0E1 		mov	r3, r0
 2124 1b40 FEFFFFEB 		mov	r4, r1
 2125 1b44 0030A0E1 		mov	r5, r3
 2126 1b48 0140A0E1 		mov	r6, r4
 2127 1b4c 0350A0E1 		ldr	r3, .L30
 2128 1b50 0460A0E1 		ldr	r3, [r3, #16]	@ float
 2129 1b54 74399FE5 		mov	r0, r3
 2130 1b58 143093E5 		bl	__extendsfdf2
 2131 1b5c 0300A0E1 		mov	r3, r0
 2132 1b60 FEFFFFEB 		mov	r4, r1
 2133 1b64 0030A0E1 		mov	r0, r3
 2134 1b68 0140A0E1 		mov	r1, r4
 2135 1b6c 0300A0E1 		bl	sin
 2136 1b70 0410A0E1 		mov	r3, r0
 2137 1b74 FEFFFFEB 		mov	r4, r1
 2138 1b78 0030A0E1 		mov	r0, r5
 2139 1b7c 0140A0E1 		mov	r1, r6
 2140 1b80 0500A0E1 		mov	r2, r3
 2141 1b84 0610A0E1 		mov	r3, r4
 2142 1b88 0320A0E1 		bl	__muldf3
 2143 1b8c 0430A0E1 		mov	r3, r0
 2144 1b90 FEFFFFEB 		mov	r4, r1
 2145 1b94 0030A0E1 		mov	r0, r9
 2146 1b98 0140A0E1 		mov	r1, sl
 2147 1b9c 0350A0E1 		mov	r2, r3
 2148 1ba0 0460A0E1 		mov	r3, r4
 2149 1ba4 24399FE5 		bl	__adddf3
 2150 1ba8 103093E5 		mov	r3, r0
 2151 1bac 0300A0E1 		mov	r4, r1
 2152 1bb0 FEFFFFEB 		mov	r9, r3
 2153 1bb4 0030A0E1 		mov	sl, r4
 2154 1bb8 0140A0E1 		ldr	r3, .L30
 2155 1bbc 0300A0E1 		ldr	r3, [r3, #12]	@ float
 2156 1bc0 0410A0E1 		mov	r0, r3
 2157 1bc4 FEFFFFEB 		bl	__extendsfdf2
 2158 1bc8 0030A0E1 		mov	r3, r0
 2159 1bcc 0140A0E1 		mov	r4, r1
 2160 1bd0 0500A0E1 		mov	r0, r3
 2161 1bd4 0610A0E1 		mov	r1, r4
 2162 1bd8 0320A0E1 		bl	cos
 2163 1bdc 0430A0E1 		mov	r5, r0
 2164 1be0 FEFFFFEB 		mov	r6, r1
 2165 1be4 0030A0E1 		ldr	r3, .L30
 2166 1be8 0140A0E1 		ldr	r3, [r3, #12]	@ float
 2167 1bec 0350A0E1 		mov	r0, r3
 2168 1bf0 0460A0E1 		bl	__extendsfdf2
 2169 1bf4 D4389FE5 		mov	r3, r0
 2170 1bf8 103093E5 		mov	r4, r1
 2171 1bfc 0300A0E1 		mov	r0, r3
 2172 1c00 FEFFFFEB 		mov	r1, r4
 2173 1c04 0030A0E1 		bl	cos
 2174 1c08 0140A0E1 		mov	r3, r0
 2175 1c0c 0300A0E1 		mov	r4, r1
 2176 1c10 0410A0E1 		mov	r0, r5
 2177 1c14 FEFFFFEB 		mov	r1, r6
 2178 1c18 0030A0E1 		mov	r2, r3
 2179 1c1c 0140A0E1 		mov	r3, r4
 2180 1c20 0500A0E1 		bl	__muldf3
 2181 1c24 0610A0E1 		mov	r3, r0
 2182 1c28 0320A0E1 		mov	r4, r1
 2183 1c2c 0430A0E1 		mov	r5, r3
 2184 1c30 FEFFFFEB 		mov	r6, r4
 2185 1c34 0030A0E1 		ldr	r3, .L30
 2186 1c38 0140A0E1 		ldr	r3, [r3, #16]	@ float
 2187 1c3c 0900A0E1 		mov	r0, r3
 2188 1c40 0A10A0E1 		bl	__extendsfdf2
 2189 1c44 0320A0E1 		mov	r3, r0
 2190 1c48 0430A0E1 		mov	r4, r1
 2191 1c4c FEFFFFEB 		mov	r0, r3
 2192 1c50 0030A0E1 		mov	r1, r4
 2193 1c54 0140A0E1 		bl	sin
 2194 1c58 0390A0E1 		mov	r3, r0
 2195 1c5c 04A0A0E1 		mov	r4, r1
 2196 1c60 68389FE5 		mov	r0, r5
 2197 1c64 0C3093E5 		mov	r1, r6
 2198 1c68 0300A0E1 		mov	r2, r3
 2199 1c6c FEFFFFEB 		mov	r3, r4
 2200 1c70 0030A0E1 		bl	__muldf3
 2201 1c74 0140A0E1 		mov	r3, r0
 2202 1c78 0300A0E1 		mov	r4, r1
 2203 1c7c 0410A0E1 		mov	r5, r3
 2204 1c80 FEFFFFEB 		mov	r6, r4
 2205 1c84 0050A0E1 		ldr	r3, .L30
 2206 1c88 0160A0E1 		ldr	r3, [r3, #16]	@ float
 2207 1c8c 3C389FE5 		mov	r0, r3
 2208 1c90 0C3093E5 		bl	__extendsfdf2
 2209 1c94 0300A0E1 		mov	r3, r0
 2210 1c98 FEFFFFEB 		mov	r4, r1
 2211 1c9c 0030A0E1 		mov	r0, r3
 2212 1ca0 0140A0E1 		mov	r1, r4
 2213 1ca4 0300A0E1 		bl	sin
 2214 1ca8 0410A0E1 		mov	r3, r0
 2215 1cac FEFFFFEB 		mov	r4, r1
 2216 1cb0 0030A0E1 		mov	r0, r5
 2217 1cb4 0140A0E1 		mov	r1, r6
 2218 1cb8 0500A0E1 		mov	r2, r3
 2219 1cbc 0610A0E1 		mov	r3, r4
 2220 1cc0 0320A0E1 		bl	__muldf3
 2221 1cc4 0430A0E1 		mov	r3, r0
 2222 1cc8 FEFFFFEB 		mov	r4, r1
 2223 1ccc 0030A0E1 		mov	r5, r3
 2224 1cd0 0140A0E1 		mov	r6, r4
 2225 1cd4 0350A0E1 		ldr	r3, .L30
 2226 1cd8 0460A0E1 		ldr	r3, [r3, #20]	@ float
 2227 1cdc EC379FE5 		mov	r0, r3
 2228 1ce0 103093E5 		bl	__extendsfdf2
 2229 1ce4 0300A0E1 		mov	r3, r0
 2230 1ce8 FEFFFFEB 		mov	r4, r1
 2231 1cec 0030A0E1 		mov	r0, r3
 2232 1cf0 0140A0E1 		mov	r1, r4
 2233 1cf4 0300A0E1 		bl	sin
 2234 1cf8 0410A0E1 		mov	r3, r0
 2235 1cfc FEFFFFEB 		mov	r4, r1
 2236 1d00 0030A0E1 		mov	r0, r5
 2237 1d04 0140A0E1 		mov	r1, r6
 2238 1d08 0500A0E1 		mov	r2, r3
 2239 1d0c 0610A0E1 		mov	r3, r4
 2240 1d10 0320A0E1 		bl	__muldf3
 2241 1d14 0430A0E1 		mov	r3, r0
 2242 1d18 FEFFFFEB 		mov	r4, r1
 2243 1d1c 0030A0E1 		mov	r5, r3
 2244 1d20 0140A0E1 		mov	r6, r4
 2245 1d24 0350A0E1 		ldr	r3, .L30
 2246 1d28 0460A0E1 		ldr	r3, [r3, #20]	@ float
 2247 1d2c 9C379FE5 		mov	r0, r3
 2248 1d30 103093E5 		bl	__extendsfdf2
 2249 1d34 0300A0E1 		mov	r3, r0
 2250 1d38 FEFFFFEB 		mov	r4, r1
 2251 1d3c 0030A0E1 		mov	r0, r3
 2252 1d40 0140A0E1 		mov	r1, r4
 2253 1d44 0300A0E1 		bl	sin
 2254 1d48 0410A0E1 		mov	r3, r0
 2255 1d4c FEFFFFEB 		mov	r4, r1
 2256 1d50 0030A0E1 		mov	r0, r5
 2257 1d54 0140A0E1 		mov	r1, r6
 2258 1d58 0500A0E1 		mov	r2, r3
 2259 1d5c 0610A0E1 		mov	r3, r4
 2260 1d60 0320A0E1 		bl	__muldf3
 2261 1d64 0430A0E1 		mov	r3, r0
 2262 1d68 FEFFFFEB 		mov	r4, r1
 2263 1d6c 0030A0E1 		mov	r0, r9
 2264 1d70 0140A0E1 		mov	r1, sl
 2265 1d74 0350A0E1 		mov	r2, r3
 2266 1d78 0460A0E1 		mov	r3, r4
 2267 1d7c 4C379FE5 		bl	__adddf3
 2268 1d80 143093E5 		mov	r3, r0
 2269 1d84 0300A0E1 		mov	r4, r1
 2270 1d88 FEFFFFEB 		mov	r9, r3
 2271 1d8c 0030A0E1 		mov	sl, r4
 2272 1d90 0140A0E1 		ldr	r3, .L30
 2273 1d94 0300A0E1 		ldr	r3, [r3, #16]	@ float
 2274 1d98 0410A0E1 		mov	r0, r3
 2275 1d9c FEFFFFEB 		bl	__extendsfdf2
 2276 1da0 0030A0E1 		mov	r3, r0
 2277 1da4 0140A0E1 		mov	r4, r1
 2278 1da8 0500A0E1 		mov	r0, r3
 2279 1dac 0610A0E1 		mov	r1, r4
 2280 1db0 0320A0E1 		bl	cos
 2281 1db4 0430A0E1 		mov	r5, r0
 2282 1db8 FEFFFFEB 		mov	r6, r1
 2283 1dbc 0030A0E1 		ldr	r3, .L30
 2284 1dc0 0140A0E1 		ldr	r3, [r3, #16]	@ float
 2285 1dc4 0350A0E1 		mov	r0, r3
 2286 1dc8 0460A0E1 		bl	__extendsfdf2
 2287 1dcc FC369FE5 		mov	r3, r0
 2288 1dd0 143093E5 		mov	r4, r1
 2289 1dd4 0300A0E1 		mov	r0, r3
 2290 1dd8 FEFFFFEB 		mov	r1, r4
 2291 1ddc 0030A0E1 		bl	cos
 2292 1de0 0140A0E1 		mov	r3, r0
 2293 1de4 0300A0E1 		mov	r4, r1
 2294 1de8 0410A0E1 		mov	r0, r5
 2295 1dec FEFFFFEB 		mov	r1, r6
 2296 1df0 0030A0E1 		mov	r2, r3
 2297 1df4 0140A0E1 		mov	r3, r4
 2298 1df8 0500A0E1 		bl	__muldf3
 2299 1dfc 0610A0E1 		mov	r3, r0
 2300 1e00 0320A0E1 		mov	r4, r1
 2301 1e04 0430A0E1 		mov	r5, r3
 2302 1e08 FEFFFFEB 		mov	r6, r4
 2303 1e0c 0030A0E1 		ldr	r3, .L30
 2304 1e10 0140A0E1 		ldr	r3, [r3, #20]	@ float
 2305 1e14 0900A0E1 		mov	r0, r3
 2306 1e18 0A10A0E1 		bl	__extendsfdf2
 2307 1e1c 0320A0E1 		mov	r3, r0
 2308 1e20 0430A0E1 		mov	r4, r1
 2309 1e24 FEFFFFEB 		mov	r0, r3
 2310 1e28 0030A0E1 		mov	r1, r4
 2311 1e2c 0140A0E1 		bl	cos
 2312 1e30 0390A0E1 		mov	r3, r0
 2313 1e34 04A0A0E1 		mov	r4, r1
 2314 1e38 90369FE5 		mov	r0, r5
 2315 1e3c 103093E5 		mov	r1, r6
 2316 1e40 0300A0E1 		mov	r2, r3
 2317 1e44 FEFFFFEB 		mov	r3, r4
 2318 1e48 0030A0E1 		bl	__muldf3
 2319 1e4c 0140A0E1 		mov	r3, r0
 2320 1e50 0300A0E1 		mov	r4, r1
 2321 1e54 0410A0E1 		mov	r5, r3
 2322 1e58 FEFFFFEB 		mov	r6, r4
 2323 1e5c 0050A0E1 		ldr	r3, .L30
 2324 1e60 0160A0E1 		ldr	r3, [r3, #20]	@ float
 2325 1e64 64369FE5 		mov	r0, r3
 2326 1e68 103093E5 		bl	__extendsfdf2
 2327 1e6c 0300A0E1 		mov	r3, r0
 2328 1e70 FEFFFFEB 		mov	r4, r1
 2329 1e74 0030A0E1 		mov	r0, r3
 2330 1e78 0140A0E1 		mov	r1, r4
 2331 1e7c 0300A0E1 		bl	cos
 2332 1e80 0410A0E1 		mov	r3, r0
 2333 1e84 FEFFFFEB 		mov	r4, r1
 2334 1e88 0030A0E1 		mov	r0, r5
 2335 1e8c 0140A0E1 		mov	r1, r6
 2336 1e90 0500A0E1 		mov	r2, r3
 2337 1e94 0610A0E1 		mov	r3, r4
 2338 1e98 0320A0E1 		bl	__muldf3
 2339 1e9c 0430A0E1 		mov	r3, r0
 2340 1ea0 FEFFFFEB 		mov	r4, r1
 2341 1ea4 0030A0E1 		mov	r5, r3
 2342 1ea8 0140A0E1 		mov	r6, r4
 2343 1eac 0350A0E1 		ldr	r3, .L30
 2344 1eb0 0460A0E1 		ldr	r3, [r3, #12]	@ float
 2345 1eb4 14369FE5 		mov	r0, r3
 2346 1eb8 143093E5 		bl	__extendsfdf2
 2347 1ebc 0300A0E1 		mov	r3, r0
 2348 1ec0 FEFFFFEB 		mov	r4, r1
 2349 1ec4 0030A0E1 		mov	r0, r3
 2350 1ec8 0140A0E1 		mov	r1, r4
 2351 1ecc 0300A0E1 		bl	sin
 2352 1ed0 0410A0E1 		mov	r3, r0
 2353 1ed4 FEFFFFEB 		mov	r4, r1
 2354 1ed8 0030A0E1 		mov	r0, r5
 2355 1edc 0140A0E1 		mov	r1, r6
 2356 1ee0 0500A0E1 		mov	r2, r3
 2357 1ee4 0610A0E1 		mov	r3, r4
 2358 1ee8 0320A0E1 		bl	__muldf3
 2359 1eec 0430A0E1 		mov	r3, r0
 2360 1ef0 FEFFFFEB 		mov	r4, r1
 2361 1ef4 0030A0E1 		mov	r5, r3
 2362 1ef8 0140A0E1 		mov	r6, r4
 2363 1efc 0350A0E1 		ldr	r3, .L30
 2364 1f00 0460A0E1 		ldr	r3, [r3, #12]	@ float
 2365 1f04 C4359FE5 		mov	r0, r3
 2366 1f08 143093E5 		bl	__extendsfdf2
 2367 1f0c 0300A0E1 		mov	r3, r0
 2368 1f10 FEFFFFEB 		mov	r4, r1
 2369 1f14 0030A0E1 		mov	r0, r3
 2370 1f18 0140A0E1 		mov	r1, r4
 2371 1f1c 0300A0E1 		bl	sin
 2372 1f20 0410A0E1 		mov	r3, r0
 2373 1f24 FEFFFFEB 		mov	r4, r1
 2374 1f28 0030A0E1 		mov	r0, r5
 2375 1f2c 0140A0E1 		mov	r1, r6
 2376 1f30 0500A0E1 		mov	r2, r3
 2377 1f34 0610A0E1 		mov	r3, r4
 2378 1f38 0320A0E1 		bl	__muldf3
 2379 1f3c 0430A0E1 		mov	r3, r0
 2380 1f40 FEFFFFEB 		mov	r4, r1
 2381 1f44 0030A0E1 		mov	r0, r9
 2382 1f48 0140A0E1 		mov	r1, sl
 2383 1f4c 0350A0E1 		mov	r2, r3
 2384 1f50 0460A0E1 		mov	r3, r4
 2385 1f54 74359FE5 		bl	__adddf3
 2386 1f58 0C3093E5 		mov	r3, r0
 2387 1f5c 0300A0E1 		mov	r4, r1
 2388 1f60 FEFFFFEB 		mov	r9, r3
 2389 1f64 0030A0E1 		mov	sl, r4
 2390 1f68 0140A0E1 		ldr	r3, .L30
 2391 1f6c 0300A0E1 		ldr	r3, [r3, #16]	@ float
 2392 1f70 0410A0E1 		mov	r0, r3
 2393 1f74 FEFFFFEB 		bl	__extendsfdf2
 2394 1f78 0030A0E1 		mov	r3, r0
 2395 1f7c 0140A0E1 		mov	r4, r1
 2396 1f80 0500A0E1 		mov	r0, r3
 2397 1f84 0610A0E1 		mov	r1, r4
 2398 1f88 0320A0E1 		bl	cos
 2399 1f8c 0430A0E1 		mov	r5, r0
 2400 1f90 FEFFFFEB 		mov	r6, r1
 2401 1f94 0030A0E1 		ldr	r3, .L30
 2402 1f98 0140A0E1 		ldr	r3, [r3, #16]	@ float
 2403 1f9c 0350A0E1 		mov	r0, r3
 2404 1fa0 0460A0E1 		bl	__extendsfdf2
 2405 1fa4 24359FE5 		mov	r3, r0
 2406 1fa8 0C3093E5 		mov	r4, r1
 2407 1fac 0300A0E1 		mov	r0, r3
 2408 1fb0 FEFFFFEB 		mov	r1, r4
 2409 1fb4 0030A0E1 		bl	cos
 2410 1fb8 0140A0E1 		mov	r3, r0
 2411 1fbc 0300A0E1 		mov	r4, r1
 2412 1fc0 0410A0E1 		mov	r0, r5
 2413 1fc4 FEFFFFEB 		mov	r1, r6
 2414 1fc8 0030A0E1 		mov	r2, r3
 2415 1fcc 0140A0E1 		mov	r3, r4
 2416 1fd0 0500A0E1 		bl	__muldf3
 2417 1fd4 0610A0E1 		mov	r3, r0
 2418 1fd8 0320A0E1 		mov	r4, r1
 2419 1fdc 0430A0E1 		mov	r5, r3
 2420 1fe0 FEFFFFEB 		mov	r6, r4
 2421 1fe4 0030A0E1 		ldr	r3, .L30
 2422 1fe8 0140A0E1 		ldr	r3, [r3, #12]	@ float
 2423 1fec 0900A0E1 		mov	r0, r3
 2424 1ff0 0A10A0E1 		bl	__extendsfdf2
 2425 1ff4 0320A0E1 		mov	r3, r0
 2426 1ff8 0430A0E1 		mov	r4, r1
 2427 1ffc FEFFFFEB 		mov	r0, r3
 2428 2000 0030A0E1 		mov	r1, r4
 2429 2004 0140A0E1 		bl	sin
 2430 2008 0390A0E1 		mov	r3, r0
 2431 200c 04A0A0E1 		mov	r4, r1
 2432 2010 B8349FE5 		mov	r0, r5
 2433 2014 103093E5 		mov	r1, r6
 2434 2018 0300A0E1 		mov	r2, r3
 2435 201c FEFFFFEB 		mov	r3, r4
 2436 2020 0030A0E1 		bl	__muldf3
 2437 2024 0140A0E1 		mov	r3, r0
 2438 2028 0300A0E1 		mov	r4, r1
 2439 202c 0410A0E1 		mov	r5, r3
 2440 2030 FEFFFFEB 		mov	r6, r4
 2441 2034 0050A0E1 		ldr	r3, .L30
 2442 2038 0160A0E1 		ldr	r3, [r3, #12]	@ float
 2443 203c 8C349FE5 		mov	r0, r3
 2444 2040 103093E5 		bl	__extendsfdf2
 2445 2044 0300A0E1 		mov	r3, r0
 2446 2048 FEFFFFEB 		mov	r4, r1
 2447 204c 0030A0E1 		mov	r0, r3
 2448 2050 0140A0E1 		mov	r1, r4
 2449 2054 0300A0E1 		bl	sin
 2450 2058 0410A0E1 		mov	r3, r0
 2451 205c FEFFFFEB 		mov	r4, r1
 2452 2060 0030A0E1 		mov	r0, r5
 2453 2064 0140A0E1 		mov	r1, r6
 2454 2068 0500A0E1 		mov	r2, r3
 2455 206c 0610A0E1 		mov	r3, r4
 2456 2070 0320A0E1 		bl	__muldf3
 2457 2074 0430A0E1 		mov	r3, r0
 2458 2078 FEFFFFEB 		mov	r4, r1
 2459 207c 0030A0E1 		mov	r5, r3
 2460 2080 0140A0E1 		mov	r6, r4
 2461 2084 0350A0E1 		ldr	r3, .L30
 2462 2088 0460A0E1 		ldr	r3, [r3, #20]	@ float
 2463 208c 3C349FE5 		mov	r0, r3
 2464 2090 0C3093E5 		bl	__extendsfdf2
 2465 2094 0300A0E1 		mov	r3, r0
 2466 2098 FEFFFFEB 		mov	r4, r1
 2467 209c 0030A0E1 		mov	r0, r3
 2468 20a0 0140A0E1 		mov	r1, r4
 2469 20a4 0300A0E1 		bl	sin
 2470 20a8 0410A0E1 		mov	r3, r0
 2471 20ac FEFFFFEB 		mov	r4, r1
 2472 20b0 0030A0E1 		mov	r0, r5
 2473 20b4 0140A0E1 		mov	r1, r6
 2474 20b8 0500A0E1 		mov	r2, r3
 2475 20bc 0610A0E1 		mov	r3, r4
 2476 20c0 0320A0E1 		bl	__muldf3
 2477 20c4 0430A0E1 		mov	r3, r0
 2478 20c8 FEFFFFEB 		mov	r4, r1
 2479 20cc 0030A0E1 		mov	r5, r3
 2480 20d0 0140A0E1 		mov	r6, r4
 2481 20d4 0350A0E1 		ldr	r3, .L30
 2482 20d8 0460A0E1 		ldr	r3, [r3, #20]	@ float
 2483 20dc EC339FE5 		mov	r0, r3
 2484 20e0 0C3093E5 		bl	__extendsfdf2
 2485 20e4 0300A0E1 		mov	r3, r0
 2486 20e8 FEFFFFEB 		mov	r4, r1
 2487 20ec 0030A0E1 		mov	r0, r3
 2488 20f0 0140A0E1 		mov	r1, r4
 2489 20f4 0300A0E1 		bl	sin
 2490 20f8 0410A0E1 		mov	r3, r0
 2491 20fc FEFFFFEB 		mov	r4, r1
 2492 2100 0030A0E1 		mov	r0, r5
 2493 2104 0140A0E1 		mov	r1, r6
 2494 2108 0500A0E1 		mov	r2, r3
 2495 210c 0610A0E1 		mov	r3, r4
 2496 2110 0320A0E1 		bl	__muldf3
 2497 2114 0430A0E1 		mov	r3, r0
 2498 2118 FEFFFFEB 		mov	r4, r1
 2499 211c 0030A0E1 		mov	r0, r9
 2500 2120 0140A0E1 		mov	r1, sl
 2501 2124 0350A0E1 		mov	r2, r3
 2502 2128 0460A0E1 		mov	r3, r4
 2503 212c 9C339FE5 		bl	__adddf3
 2504 2130 143093E5 		mov	r3, r0
 2505 2134 0300A0E1 		mov	r4, r1
 2506 2138 FEFFFFEB 		mov	r9, r3
 2507 213c 0030A0E1 		mov	sl, r4
 2508 2140 0140A0E1 		ldr	r3, .L30
 2509 2144 0300A0E1 		ldr	r3, [r3, #20]	@ float
 2510 2148 0410A0E1 		mov	r0, r3
 2511 214c FEFFFFEB 		bl	__extendsfdf2
 2512 2150 0030A0E1 		mov	r3, r0
 2513 2154 0140A0E1 		mov	r4, r1
 2514 2158 0500A0E1 		mov	r0, r3
 2515 215c 0610A0E1 		mov	r1, r4
 2516 2160 0320A0E1 		bl	cos
 2517 2164 0430A0E1 		mov	r5, r0
 2518 2168 FEFFFFEB 		mov	r6, r1
 2519 216c 0030A0E1 		ldr	r3, .L30
 2520 2170 0140A0E1 		ldr	r3, [r3, #20]	@ float
 2521 2174 0350A0E1 		mov	r0, r3
 2522 2178 0460A0E1 		bl	__extendsfdf2
 2523 217c 4C339FE5 		mov	r3, r0
 2524 2180 143093E5 		mov	r4, r1
 2525 2184 0300A0E1 		mov	r0, r3
 2526 2188 FEFFFFEB 		mov	r1, r4
 2527 218c 0030A0E1 		bl	cos
 2528 2190 0140A0E1 		mov	r3, r0
 2529 2194 0300A0E1 		mov	r4, r1
 2530 2198 0410A0E1 		mov	r0, r5
 2531 219c FEFFFFEB 		mov	r1, r6
 2532 21a0 0030A0E1 		mov	r2, r3
 2533 21a4 0140A0E1 		mov	r3, r4
 2534 21a8 0500A0E1 		bl	__muldf3
 2535 21ac 0610A0E1 		mov	r3, r0
 2536 21b0 0320A0E1 		mov	r4, r1
 2537 21b4 0430A0E1 		mov	r5, r3
 2538 21b8 FEFFFFEB 		mov	r6, r4
 2539 21bc 0030A0E1 		ldr	r3, .L30
 2540 21c0 0140A0E1 		ldr	r3, [r3, #12]	@ float
 2541 21c4 0900A0E1 		mov	r0, r3
 2542 21c8 0A10A0E1 		bl	__extendsfdf2
 2543 21cc 0320A0E1 		mov	r3, r0
 2544 21d0 0430A0E1 		mov	r4, r1
 2545 21d4 FEFFFFEB 		mov	r0, r3
 2546 21d8 0030A0E1 		mov	r1, r4
 2547 21dc 0140A0E1 		bl	sin
 2548 21e0 0390A0E1 		mov	r3, r0
 2549 21e4 04A0A0E1 		mov	r4, r1
 2550 21e8 E0329FE5 		mov	r0, r5
 2551 21ec 143093E5 		mov	r1, r6
 2552 21f0 0300A0E1 		mov	r2, r3
 2553 21f4 FEFFFFEB 		mov	r3, r4
 2554 21f8 0030A0E1 		bl	__muldf3
 2555 21fc 0140A0E1 		mov	r3, r0
 2556 2200 0300A0E1 		mov	r4, r1
 2557 2204 0410A0E1 		mov	r5, r3
 2558 2208 FEFFFFEB 		mov	r6, r4
 2559 220c 0050A0E1 		ldr	r3, .L30
 2560 2210 0160A0E1 		ldr	r3, [r3, #12]	@ float
 2561 2214 B4329FE5 		mov	r0, r3
 2562 2218 143093E5 		bl	__extendsfdf2
 2563 221c 0300A0E1 		mov	r3, r0
 2564 2220 FEFFFFEB 		mov	r4, r1
 2565 2224 0030A0E1 		mov	r0, r3
 2566 2228 0140A0E1 		mov	r1, r4
 2567 222c 0300A0E1 		bl	sin
 2568 2230 0410A0E1 		mov	r3, r0
 2569 2234 FEFFFFEB 		mov	r4, r1
 2570 2238 0030A0E1 		mov	r0, r5
 2571 223c 0140A0E1 		mov	r1, r6
 2572 2240 0500A0E1 		mov	r2, r3
 2573 2244 0610A0E1 		mov	r3, r4
 2574 2248 0320A0E1 		bl	__muldf3
 2575 224c 0430A0E1 		mov	r3, r0
 2576 2250 FEFFFFEB 		mov	r4, r1
 2577 2254 0030A0E1 		mov	r5, r3
 2578 2258 0140A0E1 		mov	r6, r4
 2579 225c 0350A0E1 		ldr	r3, .L30
 2580 2260 0460A0E1 		ldr	r3, [r3, #16]	@ float
 2581 2264 64329FE5 		mov	r0, r3
 2582 2268 0C3093E5 		bl	__extendsfdf2
 2583 226c 0300A0E1 		mov	r3, r0
 2584 2270 FEFFFFEB 		mov	r4, r1
 2585 2274 0030A0E1 		mov	r0, r3
 2586 2278 0140A0E1 		mov	r1, r4
 2587 227c 0300A0E1 		bl	sin
 2588 2280 0410A0E1 		mov	r3, r0
 2589 2284 FEFFFFEB 		mov	r4, r1
 2590 2288 0030A0E1 		mov	r0, r5
 2591 228c 0140A0E1 		mov	r1, r6
 2592 2290 0500A0E1 		mov	r2, r3
 2593 2294 0610A0E1 		mov	r3, r4
 2594 2298 0320A0E1 		bl	__muldf3
 2595 229c 0430A0E1 		mov	r3, r0
 2596 22a0 FEFFFFEB 		mov	r4, r1
 2597 22a4 0030A0E1 		mov	r5, r3
 2598 22a8 0140A0E1 		mov	r6, r4
 2599 22ac 0350A0E1 		ldr	r3, .L30
 2600 22b0 0460A0E1 		ldr	r3, [r3, #16]	@ float
 2601 22b4 14329FE5 		mov	r0, r3
 2602 22b8 0C3093E5 		bl	__extendsfdf2
 2603 22bc 0300A0E1 		mov	r3, r0
 2604 22c0 FEFFFFEB 		mov	r4, r1
 2605 22c4 0030A0E1 		mov	r0, r3
 2606 22c8 0140A0E1 		mov	r1, r4
 2607 22cc 0300A0E1 		bl	sin
 2608 22d0 0410A0E1 		mov	r3, r0
 2609 22d4 FEFFFFEB 		mov	r4, r1
 2610 22d8 0030A0E1 		mov	r0, r5
 2611 22dc 0140A0E1 		mov	r1, r6
 2612 22e0 0500A0E1 		mov	r2, r3
 2613 22e4 0610A0E1 		mov	r3, r4
 2614 22e8 0320A0E1 		bl	__muldf3
 2615 22ec 0430A0E1 		mov	r3, r0
 2616 22f0 FEFFFFEB 		mov	r4, r1
 2617 22f4 0030A0E1 		mov	r0, r9
 2618 22f8 0140A0E1 		mov	r1, sl
 2619 22fc 0350A0E1 		mov	r2, r3
 2620 2300 0460A0E1 		mov	r3, r4
 2621 2304 C4319FE5 		bl	__adddf3
 2622 2308 103093E5 		mov	r3, r0
 2623 230c 0300A0E1 		mov	r4, r1
 2624 2310 FEFFFFEB 		mov	r9, r3
 2625 2314 0030A0E1 		mov	sl, r4
 2626 2318 0140A0E1 		ldr	r3, .L30
 2627 231c 0300A0E1 		ldr	r3, [r3, #12]	@ float
 2628 2320 0410A0E1 		mov	r0, r3
 2629 2324 FEFFFFEB 		bl	__extendsfdf2
 2630 2328 0030A0E1 		mov	r3, r0
 2631 232c 0140A0E1 		mov	r4, r1
 2632 2330 0500A0E1 		mov	r0, r3
 2633 2334 0610A0E1 		mov	r1, r4
 2634 2338 0320A0E1 		bl	sin
 2635 233c 0430A0E1 		mov	r5, r0
 2636 2340 FEFFFFEB 		mov	r6, r1
 2637 2344 0030A0E1 		ldr	r3, .L30
 2638 2348 0140A0E1 		ldr	r3, [r3, #12]	@ float
 2639 234c 0350A0E1 		mov	r0, r3
 2640 2350 0460A0E1 		bl	__extendsfdf2
 2641 2354 74319FE5 		mov	r3, r0
 2642 2358 103093E5 		mov	r4, r1
 2643 235c 0300A0E1 		mov	r0, r3
 2644 2360 FEFFFFEB 		mov	r1, r4
 2645 2364 0030A0E1 		bl	sin
 2646 2368 0140A0E1 		mov	r3, r0
 2647 236c 0300A0E1 		mov	r4, r1
 2648 2370 0410A0E1 		mov	r0, r5
 2649 2374 FEFFFFEB 		mov	r1, r6
 2650 2378 0030A0E1 		mov	r2, r3
 2651 237c 0140A0E1 		mov	r3, r4
 2652 2380 0500A0E1 		bl	__muldf3
 2653 2384 0610A0E1 		mov	r3, r0
 2654 2388 0320A0E1 		mov	r4, r1
 2655 238c 0430A0E1 		mov	r5, r3
 2656 2390 FEFFFFEB 		mov	r6, r4
 2657 2394 0030A0E1 		ldr	r3, .L30
 2658 2398 0140A0E1 		ldr	r3, [r3, #16]	@ float
 2659 239c 0900A0E1 		mov	r0, r3
 2660 23a0 0A10A0E1 		bl	__extendsfdf2
 2661 23a4 0320A0E1 		mov	r3, r0
 2662 23a8 0430A0E1 		mov	r4, r1
 2663 23ac FEFFFFEB 		mov	r0, r3
 2664 23b0 0030A0E1 		mov	r1, r4
 2665 23b4 0140A0E1 		bl	sin
 2666 23b8 0390A0E1 		mov	r3, r0
 2667 23bc 04A0A0E1 		mov	r4, r1
 2668 23c0 08319FE5 		mov	r0, r5
 2669 23c4 0C3093E5 		mov	r1, r6
 2670 23c8 0300A0E1 		mov	r2, r3
 2671 23cc FEFFFFEB 		mov	r3, r4
 2672 23d0 0030A0E1 		bl	__muldf3
 2673 23d4 0140A0E1 		mov	r3, r0
 2674 23d8 0300A0E1 		mov	r4, r1
 2675 23dc 0410A0E1 		mov	r5, r3
 2676 23e0 FEFFFFEB 		mov	r6, r4
 2677 23e4 0050A0E1 		ldr	r3, .L30
 2678 23e8 0160A0E1 		ldr	r3, [r3, #16]	@ float
 2679 23ec DC309FE5 		mov	r0, r3
 2680 23f0 0C3093E5 		bl	__extendsfdf2
 2681 23f4 0300A0E1 		mov	r3, r0
 2682 23f8 FEFFFFEB 		mov	r4, r1
 2683 23fc 0030A0E1 		mov	r0, r3
 2684 2400 0140A0E1 		mov	r1, r4
 2685 2404 0300A0E1 		bl	sin
 2686 2408 0410A0E1 		mov	r3, r0
 2687 240c FEFFFFEB 		mov	r4, r1
 2688 2410 0030A0E1 		mov	r0, r5
 2689 2414 0140A0E1 		mov	r1, r6
 2690 2418 0500A0E1 		mov	r2, r3
 2691 241c 0610A0E1 		mov	r3, r4
 2692 2420 0320A0E1 		bl	__muldf3
 2693 2424 0430A0E1 		b	.L31
 2694 2428 FEFFFFEB 	.L32:
 2695 242c 0030A0E1 		.align	2
 2696 2430 0140A0E1 	.L30:
 2697 2434 0350A0E1 		.word	xd
 2698 2438 0460A0E1 	.L31:
 2699 243c 8C309FE5 		mov	r3, r0
 2700 2440 103093E5 		mov	r4, r1
 2701 2444 0300A0E1 		mov	r5, r3
 2702 2448 FEFFFFEB 		mov	r6, r4
 2703 244c 0030A0E1 		ldr	r3, .L30
 2704 2450 0140A0E1 		ldr	r3, [r3, #20]	@ float
 2705 2454 0300A0E1 		mov	r0, r3
 2706 2458 0410A0E1 		bl	__extendsfdf2
 2707 245c FEFFFFEB 		mov	r3, r0
 2708 2460 0030A0E1 		mov	r4, r1
 2709 2464 0140A0E1 		mov	r0, r3
 2710 2468 0500A0E1 		mov	r1, r4
 2711 246c 0610A0E1 		bl	sin
 2712 2470 0320A0E1 		mov	r3, r0
 2713 2474 0430A0E1 		mov	r4, r1
 2714 2478 FEFFFFEB 		mov	r0, r5
 2715 247c 0030A0E1 		mov	r1, r6
 2716 2480 0140A0E1 		mov	r2, r3
 2717 2484 0350A0E1 		mov	r3, r4
 2718 2488 0460A0E1 		bl	__muldf3
 2719 248c 3C309FE5 		mov	r3, r0
 2720 2490 103093E5 		mov	r4, r1
 2721 2494 0300A0E1 		mov	r5, r3
 2722 2498 FEFFFFEB 		mov	r6, r4
 2723 249c 0030A0E1 		ldr	r3, .L30
 2724 24a0 0140A0E1 		ldr	r3, [r3, #20]	@ float
 2725 24a4 0300A0E1 		mov	r0, r3
 2726 24a8 0410A0E1 		bl	__extendsfdf2
 2727 24ac FEFFFFEB 		mov	r3, r0
 2728 24b0 0030A0E1 		mov	r4, r1
 2729 24b4 0140A0E1 		mov	r0, r3
 2730 24b8 0500A0E1 		mov	r1, r4
 2731 24bc 0610A0E1 		bl	sin
 2732 24c0 0320A0E1 		mov	r3, r0
 2733 24c4 0430A0E1 		mov	r4, r1
 2734 24c8 FEFFFFEB 		mov	r0, r5
 2735 24cc 000000EA 		mov	r1, r6
 2736              		mov	r2, r3
 2737              		mov	r3, r4
 2738              		bl	__muldf3
 2739 24d0 00000000 		mov	r3, r0
 2740              		mov	r4, r1
 2741 24d4 0030A0E1 		mov	r0, r9
 2742 24d8 0140A0E1 		mov	r1, sl
 2743 24dc 0350A0E1 		mov	r2, r3
 2744 24e0 0460A0E1 		mov	r3, r4
 2745 24e4 1C301FE5 		bl	__adddf3
 2746 24e8 143093E5 		mov	r3, r0
 2747 24ec 0300A0E1 		mov	r4, r1
 2748 24f0 FEFFFFEB 		mov	r0, r7
 2749 24f4 0030A0E1 		mov	r1, r8
 2750 24f8 0140A0E1 		mov	r2, r3
 2751 24fc 0300A0E1 		mov	r3, r4
 2752 2500 0410A0E1 		bl	__divdf3
 2753 2504 FEFFFFEB 		mov	r3, r0
 2754 2508 0030A0E1 		mov	r4, r1
 2755 250c 0140A0E1 		mov	r0, r3
 2756 2510 0500A0E1 		mov	r1, r4
 2757 2514 0610A0E1 		bl	__truncdfsf2
 2758 2518 0320A0E1 		mov	r3, r0
 2759 251c 0430A0E1 		str	r3, [fp, #-152]	@ float
 2760 2520 FEFFFFEB 		.loc 1 269 0
 2761 2524 0030A0E1 		ldr	r3, .L30
 2762 2528 0140A0E1 		ldr	r3, [r3, #12]	@ float
 2763 252c 0350A0E1 		mov	r0, r3
 2764 2530 0460A0E1 		bl	__extendsfdf2
 2765 2534 6C301FE5 		mov	r3, r0
 2766 2538 143093E5 		mov	r4, r1
 2767 253c 0300A0E1 		mov	r0, r3
 2768 2540 FEFFFFEB 		mov	r1, r4
 2769 2544 0030A0E1 		bl	cos
 2770 2548 0140A0E1 		mov	r5, r0
 2771 254c 0300A0E1 		mov	r6, r1
 2772 2550 0410A0E1 		ldr	r3, .L30
 2773 2554 FEFFFFEB 		ldr	r3, [r3, #20]	@ float
 2774 2558 0030A0E1 		mov	r0, r3
 2775 255c 0140A0E1 		bl	__extendsfdf2
 2776 2560 0500A0E1 		mov	r3, r0
 2777 2564 0610A0E1 		mov	r4, r1
 2778 2568 0320A0E1 		mov	r0, r3
 2779 256c 0430A0E1 		mov	r1, r4
 2780 2570 FEFFFFEB 		bl	cos
 2781 2574 0030A0E1 		mov	r3, r0
 2782 2578 0140A0E1 		mov	r4, r1
 2783 257c 0900A0E1 		mov	r0, r5
 2784 2580 0A10A0E1 		mov	r1, r6
 2785 2584 0320A0E1 		mov	r2, r3
 2786 2588 0430A0E1 		mov	r3, r4
 2787 258c FEFFFFEB 		bl	__muldf3
 2788 2590 0030A0E1 		mov	r3, r0
 2789 2594 0140A0E1 		mov	r4, r1
 2790 2598 0700A0E1 		mov	r5, r3
 2791 259c 0810A0E1 		mov	r6, r4
 2792 25a0 0320A0E1 		ldr	r3, .L30
 2793 25a4 0430A0E1 		ldr	r3, [r3, #16]	@ float
 2794 25a8 FEFFFFEB 		mov	r0, r3
 2795 25ac 0030A0E1 		bl	__extendsfdf2
 2796 25b0 0140A0E1 		mov	r3, r0
 2797 25b4 0300A0E1 		mov	r4, r1
 2798 25b8 0410A0E1 		mov	r0, r3
 2799 25bc FEFFFFEB 		mov	r1, r4
 2800 25c0 0030A0E1 		bl	cos
 2801 25c4 98300BE5 		mov	r3, r0
 269:lab.c         **** 	Rinv[4] = (cos(xd[3])*cos(xd[5])*cos(xd[4])*cos(xd[4]) + cos(xd[3])*cos(xd[5])*sin(xd[4])*sin(xd[4
 2802              		r0, r3
 2803 25c8 00311FE5 		mov	r1, r4
 2804 25cc 0C3093E5 		bl	cos
 2805 25d0 0300A0E1 		mov	r3, r0
 2806 25d4 FEFFFFEB 		mov	r4, r1
 2807 25d8 0030A0E1 		mov	r0, r5
 2808 25dc 0140A0E1 		mov	r1, r6
 2809 25e0 0300A0E1 		mov	r2, r3
 2810 25e4 0410A0E1 		mov	r3, r4
 2811 25e8 FEFFFFEB 		bl	__muldf3
 2812 25ec 0050A0E1 		mov	r3, r0
 2813 25f0 0160A0E1 		mov	r4, r1
 2814 25f4 2C311FE5 		mov	r7, r3
 2815 25f8 143093E5 		mov	r8, r4
 2816 25fc 0300A0E1 		ldr	r3, .L30
 2817 2600 FEFFFFEB 		ldr	r3, [r3, #12]	@ float
 2818 2604 0030A0E1 		mov	r0, r3
 2819 2608 0140A0E1 		bl	__extendsfdf2
 2820 260c 0300A0E1 		mov	r3, r0
 2821 2610 0410A0E1 		mov	r4, r1
 2822 2614 FEFFFFEB 		mov	r0, r3
 2823 2618 0030A0E1 		mov	r1, r4
 2824 261c 0140A0E1 		bl	cos
 2825 2620 0500A0E1 		mov	r5, r0
 2826 2624 0610A0E1 		mov	r6, r1
 2827 2628 0320A0E1 		ldr	r3, .L30
 2828 262c 0430A0E1 		ldr	r3, [r3, #20]	@ float
 2829 2630 FEFFFFEB 		mov	r0, r3
 2830 2634 0030A0E1 		bl	__extendsfdf2
 2831 2638 0140A0E1 		mov	r3, r0
 2832 263c 0350A0E1 		mov	r4, r1
 2833 2640 0460A0E1 		mov	r0, r3
 2834 2644 7C311FE5 		mov	r1, r4
 2835 2648 103093E5 		bl	cos
 2836 264c 0300A0E1 		mov	r3, r0
 2837 2650 FEFFFFEB 		mov	r4, r1
 2838 2654 0030A0E1 		mov	r0, r5
 2839 2658 0140A0E1 		mov	r1, r6
 2840 265c 0300A0E1 		mov	r2, r3
 2841 2660 0410A0E1 		mov	r3, r4
 2842 2664 FEFFFFEB 		bl	__muldf3
 2843 2668 0030A0E1 		mov	r3, r0
 2844 266c 0140A0E1 		mov	r4, r1
 2845 2670 0500A0E1 		mov	r5, r3
 2846 2674 0610A0E1 		mov	r6, r4
 2847 2678 0320A0E1 		ldr	r3, .L30
 2848 267c 0430A0E1 		ldr	r3, [r3, #16]	@ float
 2849 2680 FEFFFFEB 		mov	r0, r3
 2850 2684 0030A0E1 		bl	__extendsfdf2
 2851 2688 0140A0E1 		mov	r3, r0
 2852 268c 0350A0E1 		mov	r4, r1
 2853 2690 0460A0E1 		mov	r0, r3
 2854 2694 CC311FE5 		mov	r1, r4
 2855 2698 103093E5 		bl	sin
 2856 269c 0300A0E1 		mov	r3, r0
 2857 26a0 FEFFFFEB 		mov	r4, r1
 2858 26a4 0030A0E1 		mov	r0, r5
 2859 26a8 0140A0E1 		mov	r1, r6
 2860 26ac 0300A0E1 		mov	r2, r3
 2861 26b0 0410A0E1 		mov	r3, r4
 2862 26b4 FEFFFFEB 		bl	__muldf3
 2863 26b8 0030A0E1 		mov	r3, r0
 2864 26bc 0140A0E1 		mov	r4, r1
 2865 26c0 0500A0E1 		mov	r5, r3
 2866 26c4 0610A0E1 		mov	r6, r4
 2867 26c8 0320A0E1 		ldr	r3, .L30
 2868 26cc 0430A0E1 		ldr	r3, [r3, #16]	@ float
 2869 26d0 FEFFFFEB 		mov	r0, r3
 2870 26d4 0030A0E1 		bl	__extendsfdf2
 2871 26d8 0140A0E1 		mov	r3, r0
 2872 26dc 0370A0E1 		mov	r4, r1
 2873 26e0 0480A0E1 		mov	r0, r3
 2874 26e4 1C321FE5 		mov	r1, r4
 2875 26e8 0C3093E5 		bl	sin
 2876 26ec 0300A0E1 		mov	r3, r0
 2877 26f0 FEFFFFEB 		mov	r4, r1
 2878 26f4 0030A0E1 		mov	r0, r5
 2879 26f8 0140A0E1 		mov	r1, r6
 2880 26fc 0300A0E1 		mov	r2, r3
 2881 2700 0410A0E1 		mov	r3, r4
 2882 2704 FEFFFFEB 		bl	__muldf3
 2883 2708 0050A0E1 		mov	r3, r0
 2884 270c 0160A0E1 		mov	r4, r1
 2885 2710 48321FE5 		mov	r0, r7
 2886 2714 143093E5 		mov	r1, r8
 2887 2718 0300A0E1 		mov	r2, r3
 2888 271c FEFFFFEB 		mov	r3, r4
 2889 2720 0030A0E1 		bl	__adddf3
 2890 2724 0140A0E1 		mov	r3, r0
 2891 2728 0300A0E1 		mov	r4, r1
 2892 272c 0410A0E1 		mov	r7, r3
 2893 2730 FEFFFFEB 		mov	r8, r4
 2894 2734 0030A0E1 		ldr	r3, .L30
 2895 2738 0140A0E1 		ldr	r3, [r3, #12]	@ float
 2896 273c 0500A0E1 		mov	r0, r3
 2897 2740 0610A0E1 		bl	__extendsfdf2
 2898 2744 0320A0E1 		mov	r3, r0
 2899 2748 0430A0E1 		mov	r4, r1
 2900 274c FEFFFFEB 		mov	r0, r3
 2901 2750 0030A0E1 		mov	r1, r4
 2902 2754 0140A0E1 		bl	sin
 2903 2758 0350A0E1 		mov	r5, r0
 2904 275c 0460A0E1 		mov	r6, r1
 2905 2760 98321FE5 		ldr	r3, .L30
 2906 2764 103093E5 		ldr	r3, [r3, #20]	@ float
 2907 2768 0300A0E1 		mov	r0, r3
 2908 276c FEFFFFEB 		bl	__extendsfdf2
 2909 2770 0030A0E1 		mov	r3, r0
 2910 2774 0140A0E1 		mov	r4, r1
 2911 2778 0300A0E1 		mov	r0, r3
 2912 277c 0410A0E1 		mov	r1, r4
 2913 2780 FEFFFFEB 		bl	sin
 2914 2784 0030A0E1 		mov	r3, r0
 2915 2788 0140A0E1 		mov	r4, r1
 2916 278c 0500A0E1 		mov	r0, r5
 2917 2790 0610A0E1 		mov	r1, r6
 2918 2794 0320A0E1 		mov	r2, r3
 2919 2798 0430A0E1 		mov	r3, r4
 2920 279c FEFFFFEB 		bl	__muldf3
 2921 27a0 0030A0E1 		mov	r3, r0
 2922 27a4 0140A0E1 		mov	r4, r1
 2923 27a8 0350A0E1 		mov	r5, r3
 2924 27ac 0460A0E1 		mov	r6, r4
 2925 27b0 E8321FE5 		ldr	r3, .L30
 2926 27b4 103093E5 		ldr	r3, [r3, #16]	@ float
 2927 27b8 0300A0E1 		mov	r0, r3
 2928 27bc FEFFFFEB 		bl	__extendsfdf2
 2929 27c0 0030A0E1 		mov	r3, r0
 2930 27c4 0140A0E1 		mov	r4, r1
 2931 27c8 0300A0E1 		mov	r0, r3
 2932 27cc 0410A0E1 		mov	r1, r4
 2933 27d0 FEFFFFEB 		bl	sin
 2934 27d4 0030A0E1 		mov	r3, r0
 2935 27d8 0140A0E1 		mov	r4, r1
 2936 27dc 0500A0E1 		mov	r0, r5
 2937 27e0 0610A0E1 		mov	r1, r6
 2938 27e4 0320A0E1 		mov	r2, r3
 2939 27e8 0430A0E1 		mov	r3, r4
 2940 27ec FEFFFFEB 		bl	__muldf3
 2941 27f0 0030A0E1 		mov	r3, r0
 2942 27f4 0140A0E1 		mov	r4, r1
 2943 27f8 0700A0E1 		mov	r0, r7
 2944 27fc 0810A0E1 		mov	r1, r8
 2945 2800 0320A0E1 		mov	r2, r3
 2946 2804 0430A0E1 		mov	r3, r4
 2947 2808 FEFFFFEB 		bl	__adddf3
 2948 280c 0030A0E1 		mov	r3, r0
 2949 2810 0140A0E1 		mov	r4, r1
 2950 2814 0370A0E1 		mov	r7, r3
 2951 2818 0480A0E1 		mov	r8, r4
 2952 281c 54331FE5 		ldr	r3, .L30
 2953 2820 0C3093E5 		ldr	r3, [r3, #12]	@ float
 2954 2824 0300A0E1 		mov	r0, r3
 2955 2828 FEFFFFEB 		bl	__extendsfdf2
 2956 282c 0030A0E1 		mov	r3, r0
 2957 2830 0140A0E1 		mov	r4, r1
 2958 2834 0300A0E1 		mov	r0, r3
 2959 2838 0410A0E1 		mov	r1, r4
 2960 283c FEFFFFEB 		bl	cos
 2961 2840 0050A0E1 		mov	r5, r0
 2962 2844 0160A0E1 		mov	r6, r1
 2963 2848 80331FE5 		ldr	r3, .L30
 2964 284c 143093E5 		ldr	r3, [r3, #12]	@ float
 2965 2850 0300A0E1 		mov	r0, r3
 2966 2854 FEFFFFEB 		bl	__extendsfdf2
 2967 2858 0030A0E1 		mov	r3, r0
 2968 285c 0140A0E1 		mov	r4, r1
 2969 2860 0300A0E1 		mov	r0, r3
 2970 2864 0410A0E1 		mov	r1, r4
 2971 2868 FEFFFFEB 		bl	cos
 2972 286c 0030A0E1 		mov	r3, r0
 2973 2870 0140A0E1 		mov	r4, r1
 2974 2874 0500A0E1 		mov	r0, r5
 2975 2878 0610A0E1 		mov	r1, r6
 2976 287c 0320A0E1 		mov	r2, r3
 2977 2880 0430A0E1 		mov	r3, r4
 2978 2884 FEFFFFEB 		bl	__muldf3
 2979 2888 0030A0E1 		mov	r3, r0
 2980 288c 0140A0E1 		mov	r4, r1
 2981 2890 0350A0E1 		mov	r5, r3
 2982 2894 0460A0E1 		mov	r6, r4
 2983 2898 D0331FE5 		ldr	r3, .L30
 2984 289c 103093E5 		ldr	r3, [r3, #16]	@ float
 2985 28a0 0300A0E1 		mov	r0, r3
 2986 28a4 FEFFFFEB 		bl	__extendsfdf2
 2987 28a8 0030A0E1 		mov	r3, r0
 2988 28ac 0140A0E1 		mov	r4, r1
 2989 28b0 0300A0E1 		mov	r0, r3
 2990 28b4 0410A0E1 		mov	r1, r4
 2991 28b8 FEFFFFEB 		bl	cos
 2992 28bc 0030A0E1 		mov	r3, r0
 2993 28c0 0140A0E1 		mov	r4, r1
 2994 28c4 0500A0E1 		mov	r0, r5
 2995 28c8 0610A0E1 		mov	r1, r6
 2996 28cc 0320A0E1 		mov	r2, r3
 2997 28d0 0430A0E1 		mov	r3, r4
 2998 28d4 FEFFFFEB 		bl	__muldf3
 2999 28d8 0030A0E1 		mov	r3, r0
 3000 28dc 0140A0E1 		mov	r4, r1
 3001 28e0 0700A0E1 		mov	r5, r3
 3002 28e4 0810A0E1 		mov	r6, r4
 3003 28e8 0320A0E1 		ldr	r3, .L30
 3004 28ec 0430A0E1 		ldr	r3, [r3, #16]	@ float
 3005 28f0 FEFFFFEB 		mov	r0, r3
 3006 28f4 0030A0E1 		bl	__extendsfdf2
 3007 28f8 0140A0E1 		mov	r3, r0
 3008 28fc 0370A0E1 		mov	r4, r1
 3009 2900 0480A0E1 		mov	r0, r3
 3010 2904 3C341FE5 		mov	r1, r4
 3011 2908 0C3093E5 		bl	cos
 3012 290c 0300A0E1 		mov	r3, r0
 3013 2910 FEFFFFEB 		mov	r4, r1
 3014 2914 0030A0E1 		mov	r0, r5
 3015 2918 0140A0E1 		mov	r1, r6
 3016 291c 0300A0E1 		mov	r2, r3
 3017 2920 0410A0E1 		mov	r3, r4
 3018 2924 FEFFFFEB 		bl	__muldf3
 3019 2928 0050A0E1 		mov	r3, r0
 3020 292c 0160A0E1 		mov	r4, r1
 3021 2930 68341FE5 		mov	r5, r3
 3022 2934 0C3093E5 		mov	r6, r4
 3023 2938 0300A0E1 		ldr	r3, .L30
 3024 293c FEFFFFEB 		ldr	r3, [r3, #20]	@ float
 3025 2940 0030A0E1 		mov	r0, r3
 3026 2944 0140A0E1 		bl	__extendsfdf2
 3027 2948 0300A0E1 		mov	r3, r0
 3028 294c 0410A0E1 		mov	r4, r1
 3029 2950 FEFFFFEB 		mov	r0, r3
 3030 2954 0030A0E1 		mov	r1, r4
 3031 2958 0140A0E1 		bl	cos
 3032 295c 0500A0E1 		mov	r3, r0
 3033 2960 0610A0E1 		mov	r4, r1
 3034 2964 0320A0E1 		mov	r0, r5
 3035 2968 0430A0E1 		mov	r1, r6
 3036 296c FEFFFFEB 		mov	r2, r3
 3037 2970 0030A0E1 		mov	r3, r4
 3038 2974 0140A0E1 		bl	__muldf3
 3039 2978 0350A0E1 		mov	r3, r0
 3040 297c 0460A0E1 		mov	r4, r1
 3041 2980 B8341FE5 		mov	r5, r3
 3042 2984 103093E5 		mov	r6, r4
 3043 2988 0300A0E1 		ldr	r3, .L30
 3044 298c FEFFFFEB 		ldr	r3, [r3, #20]	@ float
 3045 2990 0030A0E1 		mov	r0, r3
 3046 2994 0140A0E1 		bl	__extendsfdf2
 3047 2998 0300A0E1 		mov	r3, r0
 3048 299c 0410A0E1 		mov	r4, r1
 3049 29a0 FEFFFFEB 		mov	r0, r3
 3050 29a4 0030A0E1 		mov	r1, r4
 3051 29a8 0140A0E1 		bl	cos
 3052 29ac 0500A0E1 		mov	r3, r0
 3053 29b0 0610A0E1 		mov	r4, r1
 3054 29b4 0320A0E1 		mov	r0, r5
 3055 29b8 0430A0E1 		mov	r1, r6
 3056 29bc FEFFFFEB 		mov	r2, r3
 3057 29c0 0030A0E1 		mov	r3, r4
 3058 29c4 0140A0E1 		bl	__muldf3
 3059 29c8 0350A0E1 		mov	r3, r0
 3060 29cc 0460A0E1 		mov	r4, r1
 3061 29d0 08351FE5 		mov	r9, r3
 3062 29d4 103093E5 		mov	sl, r4
 3063 29d8 0300A0E1 		ldr	r3, .L30
 3064 29dc FEFFFFEB 		ldr	r3, [r3, #12]	@ float
 3065 29e0 0030A0E1 		mov	r0, r3
 3066 29e4 0140A0E1 		bl	__extendsfdf2
 3067 29e8 0300A0E1 		mov	r3, r0
 3068 29ec 0410A0E1 		mov	r4, r1
 3069 29f0 FEFFFFEB 		mov	r0, r3
 3070 29f4 0030A0E1 		mov	r1, r4
 3071 29f8 0140A0E1 		bl	cos
 3072 29fc 0500A0E1 		mov	r5, r0
 3073 2a00 0610A0E1 		mov	r6, r1
 3074 2a04 0320A0E1 		ldr	r3, .L30
 3075 2a08 0430A0E1 		ldr	r3, [r3, #12]	@ float
 3076 2a0c FEFFFFEB 		mov	r0, r3
 3077 2a10 0030A0E1 		bl	__extendsfdf2
 3078 2a14 0140A0E1 		mov	r3, r0
 3079 2a18 0350A0E1 		mov	r4, r1
 3080 2a1c 0460A0E1 		mov	r0, r3
 3081 2a20 58351FE5 		mov	r1, r4
 3082 2a24 143093E5 		bl	cos
 3083 2a28 0300A0E1 		mov	r3, r0
 3084 2a2c FEFFFFEB 		mov	r4, r1
 3085 2a30 0030A0E1 		mov	r0, r5
 3086 2a34 0140A0E1 		mov	r1, r6
 3087 2a38 0300A0E1 		mov	r2, r3
 3088 2a3c 0410A0E1 		mov	r3, r4
 3089 2a40 FEFFFFEB 		bl	__muldf3
 3090 2a44 0030A0E1 		mov	r3, r0
 3091 2a48 0140A0E1 		mov	r4, r1
 3092 2a4c 0500A0E1 		mov	r5, r3
 3093 2a50 0610A0E1 		mov	r6, r4
 3094 2a54 0320A0E1 		ldr	r3, .L30
 3095 2a58 0430A0E1 		ldr	r3, [r3, #16]	@ float
 3096 2a5c FEFFFFEB 		mov	r0, r3
 3097 2a60 0030A0E1 		bl	__extendsfdf2
 3098 2a64 0140A0E1 		mov	r3, r0
 3099 2a68 0350A0E1 		mov	r4, r1
 3100 2a6c 0460A0E1 		mov	r0, r3
 3101 2a70 A8351FE5 		mov	r1, r4
 3102 2a74 143093E5 		bl	cos
 3103 2a78 0300A0E1 		mov	r3, r0
 3104 2a7c FEFFFFEB 		mov	r4, r1
 3105 2a80 0030A0E1 		mov	r0, r5
 3106 2a84 0140A0E1 		mov	r1, r6
 3107 2a88 0300A0E1 		mov	r2, r3
 3108 2a8c 0410A0E1 		mov	r3, r4
 3109 2a90 FEFFFFEB 		bl	__muldf3
 3110 2a94 0030A0E1 		mov	r3, r0
 3111 2a98 0140A0E1 		mov	r4, r1
 3112 2a9c 0500A0E1 		mov	r5, r3
 3113 2aa0 0610A0E1 		mov	r6, r4
 3114 2aa4 0320A0E1 		ldr	r3, .L30
 3115 2aa8 0430A0E1 		ldr	r3, [r3, #16]	@ float
 3116 2aac FEFFFFEB 		mov	r0, r3
 3117 2ab0 0030A0E1 		bl	__extendsfdf2
 3118 2ab4 0140A0E1 		mov	r3, r0
 3119 2ab8 0390A0E1 		mov	r4, r1
 3120 2abc 04A0A0E1 		mov	r0, r3
 3121 2ac0 F8351FE5 		mov	r1, r4
 3122 2ac4 0C3093E5 		bl	cos
 3123 2ac8 0300A0E1 		mov	r3, r0
 3124 2acc FEFFFFEB 		mov	r4, r1
 3125 2ad0 0030A0E1 		mov	r0, r5
 3126 2ad4 0140A0E1 		mov	r1, r6
 3127 2ad8 0300A0E1 		mov	r2, r3
 3128 2adc 0410A0E1 		mov	r3, r4
 3129 2ae0 FEFFFFEB 		bl	__muldf3
 3130 2ae4 0050A0E1 		mov	r3, r0
 3131 2ae8 0160A0E1 		mov	r4, r1
 3132 2aec 24361FE5 		mov	r5, r3
 3133 2af0 0C3093E5 		mov	r6, r4
 3134 2af4 0300A0E1 		ldr	r3, .L30
 3135 2af8 FEFFFFEB 		ldr	r3, [r3, #20]	@ float
 3136 2afc 0030A0E1 		mov	r0, r3
 3137 2b00 0140A0E1 		bl	__extendsfdf2
 3138 2b04 0300A0E1 		mov	r3, r0
 3139 2b08 0410A0E1 		mov	r4, r1
 3140 2b0c FEFFFFEB 		mov	r0, r3
 3141 2b10 0030A0E1 		mov	r1, r4
 3142 2b14 0140A0E1 		bl	sin
 3143 2b18 0500A0E1 		mov	r3, r0
 3144 2b1c 0610A0E1 		mov	r4, r1
 3145 2b20 0320A0E1 		mov	r0, r5
 3146 2b24 0430A0E1 		mov	r1, r6
 3147 2b28 FEFFFFEB 		mov	r2, r3
 3148 2b2c 0030A0E1 		mov	r3, r4
 3149 2b30 0140A0E1 		bl	__muldf3
 3150 2b34 0350A0E1 		mov	r3, r0
 3151 2b38 0460A0E1 		mov	r4, r1
 3152 2b3c 74361FE5 		mov	r5, r3
 3153 2b40 103093E5 		mov	r6, r4
 3154 2b44 0300A0E1 		ldr	r3, .L30
 3155 2b48 FEFFFFEB 		ldr	r3, [r3, #20]	@ float
 3156 2b4c 0030A0E1 		mov	r0, r3
 3157 2b50 0140A0E1 		bl	__extendsfdf2
 3158 2b54 0300A0E1 		mov	r3, r0
 3159 2b58 0410A0E1 		mov	r4, r1
 3160 2b5c FEFFFFEB 		mov	r0, r3
 3161 2b60 0030A0E1 		mov	r1, r4
 3162 2b64 0140A0E1 		bl	sin
 3163 2b68 0500A0E1 		mov	r3, r0
 3164 2b6c 0610A0E1 		mov	r4, r1
 3165 2b70 0320A0E1 		mov	r0, r5
 3166 2b74 0430A0E1 		mov	r1, r6
 3167 2b78 FEFFFFEB 		mov	r2, r3
 3168 2b7c 0030A0E1 		mov	r3, r4
 3169 2b80 0140A0E1 		bl	__muldf3
 3170 2b84 0350A0E1 		mov	r3, r0
 3171 2b88 0460A0E1 		mov	r4, r1
 3172 2b8c C4361FE5 		mov	r0, r9
 3173 2b90 103093E5 		mov	r1, sl
 3174 2b94 0300A0E1 		mov	r2, r3
 3175 2b98 FEFFFFEB 		mov	r3, r4
 3176 2b9c 0030A0E1 		bl	__adddf3
 3177 2ba0 0140A0E1 		mov	r3, r0
 3178 2ba4 0300A0E1 		mov	r4, r1
 3179 2ba8 0410A0E1 		mov	r9, r3
 3180 2bac FEFFFFEB 		mov	sl, r4
 3181 2bb0 0030A0E1 		ldr	r3, .L30
 3182 2bb4 0140A0E1 		ldr	r3, [r3, #12]	@ float
 3183 2bb8 0500A0E1 		mov	r0, r3
 3184 2bbc 0610A0E1 		bl	__extendsfdf2
 3185 2bc0 0320A0E1 		mov	r3, r0
 3186 2bc4 0430A0E1 		mov	r4, r1
 3187 2bc8 FEFFFFEB 		mov	r0, r3
 3188 2bcc 0030A0E1 		mov	r1, r4
 3189 2bd0 0140A0E1 		bl	cos
 3190 2bd4 0350A0E1 		mov	r5, r0
 3191 2bd8 0460A0E1 		mov	r6, r1
 3192 2bdc 14371FE5 		ldr	r3, .L30
 3193 2be0 143093E5 		ldr	r3, [r3, #12]	@ float
 3194 2be4 0300A0E1 		mov	r0, r3
 3195 2be8 FEFFFFEB 		bl	__extendsfdf2
 3196 2bec 0030A0E1 		mov	r3, r0
 3197 2bf0 0140A0E1 		mov	r4, r1
 3198 2bf4 0300A0E1 		mov	r0, r3
 3199 2bf8 0410A0E1 		mov	r1, r4
 3200 2bfc FEFFFFEB 		bl	cos
 3201 2c00 0030A0E1 		mov	r3, r0
 3202 2c04 0140A0E1 		mov	r4, r1
 3203 2c08 0500A0E1 		mov	r0, r5
 3204 2c0c 0610A0E1 		mov	r1, r6
 3205 2c10 0320A0E1 		mov	r2, r3
 3206 2c14 0430A0E1 		mov	r3, r4
 3207 2c18 FEFFFFEB 		bl	__muldf3
 3208 2c1c 0030A0E1 		mov	r3, r0
 3209 2c20 0140A0E1 		mov	r4, r1
 3210 2c24 0350A0E1 		mov	r5, r3
 3211 2c28 0460A0E1 		mov	r6, r4
 3212 2c2c 64371FE5 		ldr	r3, .L30
 3213 2c30 143093E5 		ldr	r3, [r3, #20]	@ float
 3214 2c34 0300A0E1 		mov	r0, r3
 3215 2c38 FEFFFFEB 		bl	__extendsfdf2
 3216 2c3c 0030A0E1 		mov	r3, r0
 3217 2c40 0140A0E1 		mov	r4, r1
 3218 2c44 0300A0E1 		mov	r0, r3
 3219 2c48 0410A0E1 		mov	r1, r4
 3220 2c4c FEFFFFEB 		bl	cos
 3221 2c50 0030A0E1 		mov	r3, r0
 3222 2c54 0140A0E1 		mov	r4, r1
 3223 2c58 0500A0E1 		mov	r0, r5
 3224 2c5c 0610A0E1 		mov	r1, r6
 3225 2c60 0320A0E1 		mov	r2, r3
 3226 2c64 0430A0E1 		mov	r3, r4
 3227 2c68 FEFFFFEB 		bl	__muldf3
 3228 2c6c 0030A0E1 		mov	r3, r0
 3229 2c70 0140A0E1 		mov	r4, r1
 3230 2c74 0900A0E1 		mov	r5, r3
 3231 2c78 0A10A0E1 		mov	r6, r4
 3232 2c7c 0320A0E1 		ldr	r3, .L30
 3233 2c80 0430A0E1 		ldr	r3, [r3, #20]	@ float
 3234 2c84 FEFFFFEB 		mov	r0, r3
 3235 2c88 0030A0E1 		bl	__extendsfdf2
 3236 2c8c 0140A0E1 		mov	r3, r0
 3237 2c90 0390A0E1 		mov	r4, r1
 3238 2c94 04A0A0E1 		mov	r0, r3
 3239 2c98 D0371FE5 		mov	r1, r4
 3240 2c9c 0C3093E5 		bl	cos
 3241 2ca0 0300A0E1 		mov	r3, r0
 3242 2ca4 FEFFFFEB 		mov	r4, r1
 3243 2ca8 0030A0E1 		mov	r0, r5
 3244 2cac 0140A0E1 		mov	r1, r6
 3245 2cb0 0300A0E1 		mov	r2, r3
 3246 2cb4 0410A0E1 		mov	r3, r4
 3247 2cb8 FEFFFFEB 		bl	__muldf3
 3248 2cbc 0050A0E1 		mov	r3, r0
 3249 2cc0 0160A0E1 		mov	r4, r1
 3250 2cc4 FC371FE5 		mov	r5, r3
 3251 2cc8 0C3093E5 		mov	r6, r4
 3252 2ccc 0300A0E1 		ldr	r3, .L30
 3253 2cd0 FEFFFFEB 		ldr	r3, [r3, #16]	@ float
 3254 2cd4 0030A0E1 		mov	r0, r3
 3255 2cd8 0140A0E1 		bl	__extendsfdf2
 3256 2cdc 0300A0E1 		mov	r3, r0
 3257 2ce0 0410A0E1 		mov	r4, r1
 3258 2ce4 FEFFFFEB 		mov	r0, r3
 3259 2ce8 0030A0E1 		mov	r1, r4
 3260 2cec 0140A0E1 		bl	sin
 3261 2cf0 0500A0E1 		mov	r3, r0
 3262 2cf4 0610A0E1 		mov	r4, r1
 3263 2cf8 0320A0E1 		mov	r0, r5
 3264 2cfc 0430A0E1 		mov	r1, r6
 3265 2d00 FEFFFFEB 		mov	r2, r3
 3266 2d04 0030A0E1 		mov	r3, r4
 3267 2d08 0140A0E1 		bl	__muldf3
 3268 2d0c 0350A0E1 		mov	r3, r0
 3269 2d10 0460A0E1 		mov	r4, r1
 3270 2d14 4C381FE5 		mov	r5, r3
 3271 2d18 143093E5 		mov	r6, r4
 3272 2d1c 0300A0E1 		ldr	r3, .L30
 3273 2d20 FEFFFFEB 		ldr	r3, [r3, #16]	@ float
 3274 2d24 0030A0E1 		mov	r0, r3
 3275 2d28 0140A0E1 		bl	__extendsfdf2
 3276 2d2c 0300A0E1 		mov	r3, r0
 3277 2d30 0410A0E1 		mov	r4, r1
 3278 2d34 FEFFFFEB 		mov	r0, r3
 3279 2d38 0030A0E1 		mov	r1, r4
 3280 2d3c 0140A0E1 		bl	sin
 3281 2d40 0500A0E1 		mov	r3, r0
 3282 2d44 0610A0E1 		mov	r4, r1
 3283 2d48 0320A0E1 		mov	r0, r5
 3284 2d4c 0430A0E1 		mov	r1, r6
 3285 2d50 FEFFFFEB 		mov	r2, r3
 3286 2d54 0030A0E1 		mov	r3, r4
 3287 2d58 0140A0E1 		bl	__muldf3
 3288 2d5c 0350A0E1 		mov	r3, r0
 3289 2d60 0460A0E1 		mov	r4, r1
 3290 2d64 9C381FE5 		mov	r0, r9
 3291 2d68 143093E5 		mov	r1, sl
 3292 2d6c 0300A0E1 		mov	r2, r3
 3293 2d70 FEFFFFEB 		mov	r3, r4
 3294 2d74 0030A0E1 		bl	__adddf3
 3295 2d78 0140A0E1 		mov	r3, r0
 3296 2d7c 0300A0E1 		mov	r4, r1
 3297 2d80 0410A0E1 		mov	r9, r3
 3298 2d84 FEFFFFEB 		mov	sl, r4
 3299 2d88 0030A0E1 		ldr	r3, .L30
 3300 2d8c 0140A0E1 		ldr	r3, [r3, #12]	@ float
 3301 2d90 0500A0E1 		mov	r0, r3
 3302 2d94 0610A0E1 		bl	__extendsfdf2
 3303 2d98 0320A0E1 		mov	r3, r0
 3304 2d9c 0430A0E1 		mov	r4, r1
 3305 2da0 FEFFFFEB 		mov	r0, r3
 3306 2da4 0030A0E1 		mov	r1, r4
 3307 2da8 0140A0E1 		bl	cos
 3308 2dac 0350A0E1 		mov	r5, r0
 3309 2db0 0460A0E1 		mov	r6, r1
 3310 2db4 EC381FE5 		ldr	r3, .L30
 3311 2db8 103093E5 		ldr	r3, [r3, #12]	@ float
 3312 2dbc 0300A0E1 		mov	r0, r3
 3313 2dc0 FEFFFFEB 		bl	__extendsfdf2
 3314 2dc4 0030A0E1 		mov	r3, r0
 3315 2dc8 0140A0E1 		mov	r4, r1
 3316 2dcc 0300A0E1 		mov	r0, r3
 3317 2dd0 0410A0E1 		mov	r1, r4
 3318 2dd4 FEFFFFEB 		bl	cos
 3319 2dd8 0030A0E1 		mov	r3, r0
 3320 2ddc 0140A0E1 		mov	r4, r1
 3321 2de0 0500A0E1 		mov	r0, r5
 3322 2de4 0610A0E1 		mov	r1, r6
 3323 2de8 0320A0E1 		mov	r2, r3
 3324 2dec 0430A0E1 		mov	r3, r4
 3325 2df0 FEFFFFEB 		bl	__muldf3
 3326 2df4 0030A0E1 		mov	r3, r0
 3327 2df8 0140A0E1 		mov	r4, r1
 3328 2dfc 0350A0E1 		mov	r5, r3
 3329 2e00 0460A0E1 		mov	r6, r4
 3330 2e04 3C391FE5 		ldr	r3, .L30
 3331 2e08 103093E5 		ldr	r3, [r3, #16]	@ float
 3332 2e0c 0300A0E1 		mov	r0, r3
 3333 2e10 FEFFFFEB 		bl	__extendsfdf2
 3334 2e14 0030A0E1 		mov	r3, r0
 3335 2e18 0140A0E1 		mov	r4, r1
 3336 2e1c 0300A0E1 		mov	r0, r3
 3337 2e20 0410A0E1 		mov	r1, r4
 3338 2e24 FEFFFFEB 		bl	sin
 3339 2e28 0030A0E1 		mov	r3, r0
 3340 2e2c 0140A0E1 		mov	r4, r1
 3341 2e30 0500A0E1 		mov	r0, r5
 3342 2e34 0610A0E1 		mov	r1, r6
 3343 2e38 0320A0E1 		mov	r2, r3
 3344 2e3c 0430A0E1 		mov	r3, r4
 3345 2e40 FEFFFFEB 		bl	__muldf3
 3346 2e44 0030A0E1 		mov	r3, r0
 3347 2e48 0140A0E1 		mov	r4, r1
 3348 2e4c 0900A0E1 		mov	r5, r3
 3349 2e50 0A10A0E1 		mov	r6, r4
 3350 2e54 0320A0E1 		ldr	r3, .L30
 3351 2e58 0430A0E1 		ldr	r3, [r3, #16]	@ float
 3352 2e5c FEFFFFEB 		mov	r0, r3
 3353 2e60 0030A0E1 		bl	__extendsfdf2
 3354 2e64 0140A0E1 		mov	r3, r0
 3355 2e68 0390A0E1 		mov	r4, r1
 3356 2e6c 04A0A0E1 		mov	r0, r3
 3357 2e70 A8391FE5 		mov	r1, r4
 3358 2e74 0C3093E5 		bl	sin
 3359 2e78 0300A0E1 		mov	r3, r0
 3360 2e7c FEFFFFEB 		mov	r4, r1
 3361 2e80 0030A0E1 		mov	r0, r5
 3362 2e84 0140A0E1 		mov	r1, r6
 3363 2e88 0300A0E1 		mov	r2, r3
 3364 2e8c 0410A0E1 		mov	r3, r4
 3365 2e90 FEFFFFEB 		bl	__muldf3
 3366 2e94 0050A0E1 		mov	r3, r0
 3367 2e98 0160A0E1 		mov	r4, r1
 3368 2e9c D4391FE5 		mov	r5, r3
 3369 2ea0 0C3093E5 		mov	r6, r4
 3370 2ea4 0300A0E1 		ldr	r3, .L30
 3371 2ea8 FEFFFFEB 		ldr	r3, [r3, #20]	@ float
 3372 2eac 0030A0E1 		mov	r0, r3
 3373 2eb0 0140A0E1 		bl	__extendsfdf2
 3374 2eb4 0300A0E1 		mov	r3, r0
 3375 2eb8 0410A0E1 		mov	r4, r1
 3376 2ebc FEFFFFEB 		mov	r0, r3
 3377 2ec0 0030A0E1 		mov	r1, r4
 3378 2ec4 0140A0E1 		bl	sin
 3379 2ec8 0500A0E1 		mov	r3, r0
 3380 2ecc 0610A0E1 		mov	r4, r1
 3381 2ed0 0320A0E1 		mov	r0, r5
 3382 2ed4 0430A0E1 		mov	r1, r6
 3383 2ed8 FEFFFFEB 		mov	r2, r3
 3384 2edc 0030A0E1 		mov	r3, r4
 3385 2ee0 0140A0E1 		bl	__muldf3
 3386 2ee4 0350A0E1 		mov	r3, r0
 3387 2ee8 0460A0E1 		mov	r4, r1
 3388 2eec 243A1FE5 		mov	r5, r3
 3389 2ef0 103093E5 		mov	r6, r4
 3390 2ef4 0300A0E1 		ldr	r3, .L30
 3391 2ef8 FEFFFFEB 		ldr	r3, [r3, #20]	@ float
 3392 2efc 0030A0E1 		mov	r0, r3
 3393 2f00 0140A0E1 		bl	__extendsfdf2
 3394 2f04 0300A0E1 		mov	r3, r0
 3395 2f08 0410A0E1 		mov	r4, r1
 3396 2f0c FEFFFFEB 		mov	r0, r3
 3397 2f10 0030A0E1 		mov	r1, r4
 3398 2f14 0140A0E1 		bl	sin
 3399 2f18 0500A0E1 		mov	r3, r0
 3400 2f1c 0610A0E1 		mov	r4, r1
 3401 2f20 0320A0E1 		mov	r0, r5
 3402 2f24 0430A0E1 		mov	r1, r6
 3403 2f28 FEFFFFEB 		mov	r2, r3
 3404 2f2c 0030A0E1 		mov	r3, r4
 3405 2f30 0140A0E1 		bl	__muldf3
 3406 2f34 0350A0E1 		mov	r3, r0
 3407 2f38 0460A0E1 		mov	r4, r1
 3408 2f3c 743A1FE5 		mov	r0, r9
 3409 2f40 103093E5 		mov	r1, sl
 3410 2f44 0300A0E1 		mov	r2, r3
 3411 2f48 FEFFFFEB 		mov	r3, r4
 3412 2f4c 0030A0E1 		bl	__adddf3
 3413 2f50 0140A0E1 		mov	r3, r0
 3414 2f54 0300A0E1 		mov	r4, r1
 3415 2f58 0410A0E1 		mov	r9, r3
 3416 2f5c FEFFFFEB 		mov	sl, r4
 3417 2f60 0030A0E1 		ldr	r3, .L30
 3418 2f64 0140A0E1 		ldr	r3, [r3, #16]	@ float
 3419 2f68 0500A0E1 		mov	r0, r3
 3420 2f6c 0610A0E1 		bl	__extendsfdf2
 3421 2f70 0320A0E1 		mov	r3, r0
 3422 2f74 0430A0E1 		mov	r4, r1
 3423 2f78 FEFFFFEB 		mov	r0, r3
 3424 2f7c 0030A0E1 		mov	r1, r4
 3425 2f80 0140A0E1 		bl	cos
 3426 2f84 0350A0E1 		mov	r5, r0
 3427 2f88 0460A0E1 		mov	r6, r1
 3428 2f8c C43A1FE5 		ldr	r3, .L30
 3429 2f90 143093E5 		ldr	r3, [r3, #16]	@ float
 3430 2f94 0300A0E1 		mov	r0, r3
 3431 2f98 FEFFFFEB 		bl	__extendsfdf2
 3432 2f9c 0030A0E1 		mov	r3, r0
 3433 2fa0 0140A0E1 		mov	r4, r1
 3434 2fa4 0300A0E1 		mov	r0, r3
 3435 2fa8 0410A0E1 		mov	r1, r4
 3436 2fac FEFFFFEB 		bl	cos
 3437 2fb0 0030A0E1 		mov	r3, r0
 3438 2fb4 0140A0E1 		mov	r4, r1
 3439 2fb8 0500A0E1 		mov	r0, r5
 3440 2fbc 0610A0E1 		mov	r1, r6
 3441 2fc0 0320A0E1 		mov	r2, r3
 3442 2fc4 0430A0E1 		mov	r3, r4
 3443 2fc8 FEFFFFEB 		bl	__muldf3
 3444 2fcc 0030A0E1 		mov	r3, r0
 3445 2fd0 0140A0E1 		mov	r4, r1
 3446 2fd4 0350A0E1 		mov	r5, r3
 3447 2fd8 0460A0E1 		mov	r6, r4
 3448 2fdc 143B1FE5 		ldr	r3, .L30
 3449 2fe0 143093E5 		ldr	r3, [r3, #20]	@ float
 3450 2fe4 0300A0E1 		mov	r0, r3
 3451 2fe8 FEFFFFEB 		bl	__extendsfdf2
 3452 2fec 0030A0E1 		mov	r3, r0
 3453 2ff0 0140A0E1 		mov	r4, r1
 3454 2ff4 0300A0E1 		mov	r0, r3
 3455 2ff8 0410A0E1 		mov	r1, r4
 3456 2ffc FEFFFFEB 		bl	cos
 3457 3000 0030A0E1 		mov	r3, r0
 3458 3004 0140A0E1 		mov	r4, r1
 3459 3008 0500A0E1 		mov	r0, r5
 3460 300c 0610A0E1 		mov	r1, r6
 3461 3010 0320A0E1 		mov	r2, r3
 3462 3014 0430A0E1 		mov	r3, r4
 3463 3018 FEFFFFEB 		bl	__muldf3
 3464 301c 0030A0E1 		mov	r3, r0
 3465 3020 0140A0E1 		mov	r4, r1
 3466 3024 0900A0E1 		mov	r5, r3
 3467 3028 0A10A0E1 		mov	r6, r4
 3468 302c 0320A0E1 		ldr	r3, .L30
 3469 3030 0430A0E1 		ldr	r3, [r3, #20]	@ float
 3470 3034 FEFFFFEB 		mov	r0, r3
 3471 3038 0030A0E1 		bl	__extendsfdf2
 3472 303c 0140A0E1 		mov	r3, r0
 3473 3040 0390A0E1 		mov	r4, r1
 3474 3044 04A0A0E1 		mov	r0, r3
 3475 3048 803B1FE5 		mov	r1, r4
 3476 304c 103093E5 		bl	cos
 3477 3050 0300A0E1 		mov	r3, r0
 3478 3054 FEFFFFEB 		mov	r4, r1
 3479 3058 0030A0E1 		mov	r0, r5
 3480 305c 0140A0E1 		mov	r1, r6
 3481 3060 0300A0E1 		mov	r2, r3
 3482 3064 0410A0E1 		mov	r3, r4
 3483 3068 FEFFFFEB 		bl	__muldf3
 3484 306c 0050A0E1 		mov	r3, r0
 3485 3070 0160A0E1 		mov	r4, r1
 3486 3074 AC3B1FE5 		mov	r5, r3
 3487 3078 103093E5 		mov	r6, r4
 3488 307c 0300A0E1 		ldr	r3, .L30
 3489 3080 FEFFFFEB 		ldr	r3, [r3, #12]	@ float
 3490 3084 0030A0E1 		mov	r0, r3
 3491 3088 0140A0E1 		bl	__extendsfdf2
 3492 308c 0300A0E1 		mov	r3, r0
 3493 3090 0410A0E1 		mov	r4, r1
 3494 3094 FEFFFFEB 		mov	r0, r3
 3495 3098 0030A0E1 		mov	r1, r4
 3496 309c 0140A0E1 		bl	sin
 3497 30a0 0500A0E1 		mov	r3, r0
 3498 30a4 0610A0E1 		mov	r4, r1
 3499 30a8 0320A0E1 		mov	r0, r5
 3500 30ac 0430A0E1 		mov	r1, r6
 3501 30b0 FEFFFFEB 		mov	r2, r3
 3502 30b4 0030A0E1 		mov	r3, r4
 3503 30b8 0140A0E1 		bl	__muldf3
 3504 30bc 0350A0E1 		mov	r3, r0
 3505 30c0 0460A0E1 		mov	r4, r1
 3506 30c4 FC3B1FE5 		mov	r5, r3
 3507 30c8 143093E5 		mov	r6, r4
 3508 30cc 0300A0E1 		ldr	r3, .L30
 3509 30d0 FEFFFFEB 		ldr	r3, [r3, #12]	@ float
 3510 30d4 0030A0E1 		mov	r0, r3
 3511 30d8 0140A0E1 		bl	__extendsfdf2
 3512 30dc 0300A0E1 		mov	r3, r0
 3513 30e0 0410A0E1 		mov	r4, r1
 3514 30e4 FEFFFFEB 		mov	r0, r3
 3515 30e8 0030A0E1 		mov	r1, r4
 3516 30ec 0140A0E1 		bl	sin
 3517 30f0 0500A0E1 		mov	r3, r0
 3518 30f4 0610A0E1 		mov	r4, r1
 3519 30f8 0320A0E1 		mov	r0, r5
 3520 30fc 0430A0E1 		mov	r1, r6
 3521 3100 FEFFFFEB 		mov	r2, r3
 3522 3104 0030A0E1 		mov	r3, r4
 3523 3108 0140A0E1 		bl	__muldf3
 3524 310c 0350A0E1 		mov	r3, r0
 3525 3110 0460A0E1 		mov	r4, r1
 3526 3114 4C3C1FE5 		mov	r0, r9
 3527 3118 143093E5 		mov	r1, sl
 3528 311c 0300A0E1 		mov	r2, r3
 3529 3120 FEFFFFEB 		mov	r3, r4
 3530 3124 0030A0E1 		bl	__adddf3
 3531 3128 0140A0E1 		mov	r3, r0
 3532 312c 0300A0E1 		mov	r4, r1
 3533 3130 0410A0E1 		mov	r9, r3
 3534 3134 FEFFFFEB 		mov	sl, r4
 3535 3138 0030A0E1 		ldr	r3, .L30
 3536 313c 0140A0E1 		ldr	r3, [r3, #16]	@ float
 3537 3140 0500A0E1 		mov	r0, r3
 3538 3144 0610A0E1 		bl	__extendsfdf2
 3539 3148 0320A0E1 		mov	r3, r0
 3540 314c 0430A0E1 		mov	r4, r1
 3541 3150 FEFFFFEB 		mov	r0, r3
 3542 3154 0030A0E1 		mov	r1, r4
 3543 3158 0140A0E1 		bl	cos
 3544 315c 0350A0E1 		mov	r5, r0
 3545 3160 0460A0E1 		mov	r6, r1
 3546 3164 9C3C1FE5 		ldr	r3, .L30
 3547 3168 0C3093E5 		ldr	r3, [r3, #16]	@ float
 3548 316c 0300A0E1 		mov	r0, r3
 3549 3170 FEFFFFEB 		bl	__extendsfdf2
 3550 3174 0030A0E1 		mov	r3, r0
 3551 3178 0140A0E1 		mov	r4, r1
 3552 317c 0300A0E1 		mov	r0, r3
 3553 3180 0410A0E1 		mov	r1, r4
 3554 3184 FEFFFFEB 		bl	cos
 3555 3188 0030A0E1 		mov	r3, r0
 3556 318c 0140A0E1 		mov	r4, r1
 3557 3190 0500A0E1 		mov	r0, r5
 3558 3194 0610A0E1 		mov	r1, r6
 3559 3198 0320A0E1 		mov	r2, r3
 3560 319c 0430A0E1 		mov	r3, r4
 3561 31a0 FEFFFFEB 		bl	__muldf3
 3562 31a4 0030A0E1 		mov	r3, r0
 3563 31a8 0140A0E1 		mov	r4, r1
 3564 31ac 0350A0E1 		mov	r5, r3
 3565 31b0 0460A0E1 		mov	r6, r4
 3566 31b4 EC3C1FE5 		ldr	r3, .L30
 3567 31b8 0C3093E5 		ldr	r3, [r3, #12]	@ float
 3568 31bc 0300A0E1 		mov	r0, r3
 3569 31c0 FEFFFFEB 		bl	__extendsfdf2
 3570 31c4 0030A0E1 		mov	r3, r0
 3571 31c8 0140A0E1 		mov	r4, r1
 3572 31cc 0300A0E1 		mov	r0, r3
 3573 31d0 0410A0E1 		mov	r1, r4
 3574 31d4 FEFFFFEB 		bl	sin
 3575 31d8 0030A0E1 		mov	r3, r0
 3576 31dc 0140A0E1 		mov	r4, r1
 3577 31e0 0500A0E1 		mov	r0, r5
 3578 31e4 0610A0E1 		mov	r1, r6
 3579 31e8 0320A0E1 		mov	r2, r3
 3580 31ec 0430A0E1 		mov	r3, r4
 3581 31f0 FEFFFFEB 		bl	__muldf3
 3582 31f4 0030A0E1 		mov	r3, r0
 3583 31f8 0140A0E1 		mov	r4, r1
 3584 31fc 0900A0E1 		mov	r5, r3
 3585 3200 0A10A0E1 		mov	r6, r4
 3586 3204 0320A0E1 		ldr	r3, .L30
 3587 3208 0430A0E1 		ldr	r3, [r3, #12]	@ float
 3588 320c FEFFFFEB 		mov	r0, r3
 3589 3210 0030A0E1 		bl	__extendsfdf2
 3590 3214 0140A0E1 		mov	r3, r0
 3591 3218 0390A0E1 		mov	r4, r1
 3592 321c 04A0A0E1 		mov	r0, r3
 3593 3220 583D1FE5 		mov	r1, r4
 3594 3224 103093E5 		bl	sin
 3595 3228 0300A0E1 		mov	r3, r0
 3596 322c FEFFFFEB 		mov	r4, r1
 3597 3230 0030A0E1 		mov	r0, r5
 3598 3234 0140A0E1 		mov	r1, r6
 3599 3238 0300A0E1 		mov	r2, r3
 3600 323c 0410A0E1 		mov	r3, r4
 3601 3240 FEFFFFEB 		bl	__muldf3
 3602 3244 0050A0E1 		mov	r3, r0
 3603 3248 0160A0E1 		mov	r4, r1
 3604 324c 843D1FE5 		mov	r5, r3
 3605 3250 103093E5 		mov	r6, r4
 3606 3254 0300A0E1 		ldr	r3, .L30
 3607 3258 FEFFFFEB 		ldr	r3, [r3, #20]	@ float
 3608 325c 0030A0E1 		mov	r0, r3
 3609 3260 0140A0E1 		bl	__extendsfdf2
 3610 3264 0300A0E1 		mov	r3, r0
 3611 3268 0410A0E1 		mov	r4, r1
 3612 326c FEFFFFEB 		mov	r0, r3
 3613 3270 0030A0E1 		mov	r1, r4
 3614 3274 0140A0E1 		bl	sin
 3615 3278 0500A0E1 		mov	r3, r0
 3616 327c 0610A0E1 		mov	r4, r1
 3617 3280 0320A0E1 		mov	r0, r5
 3618 3284 0430A0E1 		mov	r1, r6
 3619 3288 FEFFFFEB 		mov	r2, r3
 3620 328c 0030A0E1 		mov	r3, r4
 3621 3290 0140A0E1 		bl	__muldf3
 3622 3294 0350A0E1 		mov	r3, r0
 3623 3298 0460A0E1 		mov	r4, r1
 3624 329c D43D1FE5 		mov	r5, r3
 3625 32a0 0C3093E5 		mov	r6, r4
 3626 32a4 0300A0E1 		ldr	r3, .L30
 3627 32a8 FEFFFFEB 		ldr	r3, [r3, #20]	@ float
 3628 32ac 0030A0E1 		mov	r0, r3
 3629 32b0 0140A0E1 		bl	__extendsfdf2
 3630 32b4 0300A0E1 		mov	r3, r0
 3631 32b8 0410A0E1 		mov	r4, r1
 3632 32bc FEFFFFEB 		mov	r0, r3
 3633 32c0 0030A0E1 		mov	r1, r4
 3634 32c4 0140A0E1 		bl	sin
 3635 32c8 0500A0E1 		mov	r3, r0
 3636 32cc 0610A0E1 		mov	r4, r1
 3637 32d0 0320A0E1 		mov	r0, r5
 3638 32d4 0430A0E1 		mov	r1, r6
 3639 32d8 FEFFFFEB 		mov	r2, r3
 3640 32dc 0030A0E1 		mov	r3, r4
 3641 32e0 0140A0E1 		bl	__muldf3
 3642 32e4 0350A0E1 		mov	r3, r0
 3643 32e8 0460A0E1 		mov	r4, r1
 3644 32ec 243E1FE5 		mov	r0, r9
 3645 32f0 0C3093E5 		mov	r1, sl
 3646 32f4 0300A0E1 		mov	r2, r3
 3647 32f8 FEFFFFEB 		mov	r3, r4
 3648 32fc 0030A0E1 		bl	__adddf3
 3649 3300 0140A0E1 		mov	r3, r0
 3650 3304 0300A0E1 		mov	r4, r1
 3651 3308 0410A0E1 		mov	r9, r3
 3652 330c FEFFFFEB 		mov	sl, r4
 3653 3310 0030A0E1 		ldr	r3, .L30
 3654 3314 0140A0E1 		ldr	r3, [r3, #20]	@ float
 3655 3318 0500A0E1 		mov	r0, r3
 3656 331c 0610A0E1 		bl	__extendsfdf2
 3657 3320 0320A0E1 		mov	r3, r0
 3658 3324 0430A0E1 		mov	r4, r1
 3659 3328 FEFFFFEB 		mov	r0, r3
 3660 332c 0030A0E1 		mov	r1, r4
 3661 3330 0140A0E1 		bl	cos
 3662 3334 0350A0E1 		mov	r5, r0
 3663 3338 0460A0E1 		mov	r6, r1
 3664 333c 743E1FE5 		ldr	r3, .L30
 3665 3340 143093E5 		ldr	r3, [r3, #20]	@ float
 3666 3344 0300A0E1 		mov	r0, r3
 3667 3348 FEFFFFEB 		bl	__extendsfdf2
 3668 334c 0030A0E1 		mov	r3, r0
 3669 3350 0140A0E1 		mov	r4, r1
 3670 3354 0300A0E1 		mov	r0, r3
 3671 3358 0410A0E1 		mov	r1, r4
 3672 335c FEFFFFEB 		bl	cos
 3673 3360 0030A0E1 		mov	r3, r0
 3674 3364 0140A0E1 		mov	r4, r1
 3675 3368 0500A0E1 		mov	r0, r5
 3676 336c 0610A0E1 		mov	r1, r6
 3677 3370 0320A0E1 		mov	r2, r3
 3678 3374 0430A0E1 		mov	r3, r4
 3679 3378 FEFFFFEB 		bl	__muldf3
 3680 337c 0030A0E1 		mov	r3, r0
 3681 3380 0140A0E1 		mov	r4, r1
 3682 3384 0350A0E1 		mov	r5, r3
 3683 3388 0460A0E1 		mov	r6, r4
 3684 338c C43E1FE5 		ldr	r3, .L30
 3685 3390 143093E5 		ldr	r3, [r3, #12]	@ float
 3686 3394 0300A0E1 		mov	r0, r3
 3687 3398 FEFFFFEB 		bl	__extendsfdf2
 3688 339c 0030A0E1 		mov	r3, r0
 3689 33a0 0140A0E1 		mov	r4, r1
 3690 33a4 0300A0E1 		mov	r0, r3
 3691 33a8 0410A0E1 		mov	r1, r4
 3692 33ac FEFFFFEB 		bl	sin
 3693 33b0 0030A0E1 		mov	r3, r0
 3694 33b4 0140A0E1 		mov	r4, r1
 3695 33b8 0500A0E1 		mov	r0, r5
 3696 33bc 0610A0E1 		mov	r1, r6
 3697 33c0 0320A0E1 		mov	r2, r3
 3698 33c4 0430A0E1 		mov	r3, r4
 3699 33c8 FEFFFFEB 		bl	__muldf3
 3700 33cc 0030A0E1 		mov	r3, r0
 3701 33d0 0140A0E1 		mov	r4, r1
 3702 33d4 0900A0E1 		mov	r5, r3
 3703 33d8 0A10A0E1 		mov	r6, r4
 3704 33dc 0320A0E1 		ldr	r3, .L30
 3705 33e0 0430A0E1 		ldr	r3, [r3, #12]	@ float
 3706 33e4 FEFFFFEB 		mov	r0, r3
 3707 33e8 0030A0E1 		bl	__extendsfdf2
 3708 33ec 0140A0E1 		mov	r3, r0
 3709 33f0 0390A0E1 		mov	r4, r1
 3710 33f4 04A0A0E1 		mov	r0, r3
 3711 33f8 303F1FE5 		mov	r1, r4
 3712 33fc 143093E5 		bl	sin
 3713 3400 0300A0E1 		mov	r3, r0
 3714 3404 FEFFFFEB 		mov	r4, r1
 3715 3408 0030A0E1 		mov	r0, r5
 3716 340c 0140A0E1 		mov	r1, r6
 3717 3410 0300A0E1 		mov	r2, r3
 3718 3414 0410A0E1 		mov	r3, r4
 3719 3418 FEFFFFEB 		bl	__muldf3
 3720 341c 0050A0E1 		mov	r3, r0
 3721 3420 0160A0E1 		mov	r4, r1
 3722 3424 5C3F1FE5 		mov	r5, r3
 3723 3428 143093E5 		mov	r6, r4
 3724 342c 0300A0E1 		ldr	r3, .L33
 3725 3430 FEFFFFEB 		ldr	r3, [r3, #16]	@ float
 3726 3434 0030A0E1 		mov	r0, r3
 3727 3438 0140A0E1 		bl	__extendsfdf2
 3728 343c 0300A0E1 		mov	r3, r0
 3729 3440 0410A0E1 		mov	r4, r1
 3730 3444 FEFFFFEB 		mov	r0, r3
 3731 3448 0030A0E1 		mov	r1, r4
 3732 344c 0140A0E1 		bl	sin
 3733 3450 0500A0E1 		mov	r3, r0
 3734 3454 0610A0E1 		mov	r4, r1
 3735 3458 0320A0E1 		mov	r0, r5
 3736 345c 0430A0E1 		mov	r1, r6
 3737 3460 FEFFFFEB 		mov	r2, r3
 3738 3464 0030A0E1 		mov	r3, r4
 3739 3468 0140A0E1 		bl	__muldf3
 3740 346c 0350A0E1 		mov	r3, r0
 3741 3470 0460A0E1 		mov	r4, r1
 3742 3474 AC3F1FE5 		mov	r5, r3
 3743 3478 0C3093E5 		mov	r6, r4
 3744 347c 0300A0E1 		ldr	r3, .L33
 3745 3480 FEFFFFEB 		ldr	r3, [r3, #16]	@ float
 3746 3484 0030A0E1 		mov	r0, r3
 3747 3488 0140A0E1 		bl	__extendsfdf2
 3748 348c 0300A0E1 		mov	r3, r0
 3749 3490 0410A0E1 		mov	r4, r1
 3750 3494 FEFFFFEB 		mov	r0, r3
 3751 3498 0030A0E1 		mov	r1, r4
 3752 349c 0140A0E1 		bl	sin
 3753 34a0 0500A0E1 		mov	r3, r0
 3754 34a4 0610A0E1 		mov	r4, r1
 3755 34a8 0320A0E1 		mov	r0, r5
 3756 34ac 0430A0E1 		mov	r1, r6
 3757 34b0 FEFFFFEB 		mov	r2, r3
 3758 34b4 0030A0E1 		mov	r3, r4
 3759 34b8 0140A0E1 		bl	__muldf3
 3760 34bc 0350A0E1 		mov	r3, r0
 3761 34c0 0460A0E1 		mov	r4, r1
 3762 34c4 FC3F1FE5 		mov	r0, r9
 3763 34c8 0C3093E5 		mov	r1, sl
 3764 34cc 0300A0E1 		mov	r2, r3
 3765 34d0 FEFFFFEB 		mov	r3, r4
 3766 34d4 0030A0E1 		bl	__adddf3
 3767 34d8 0140A0E1 		mov	r3, r0
 3768 34dc 0300A0E1 		mov	r4, r1
 3769 34e0 0410A0E1 		mov	r9, r3
 3770 34e4 FEFFFFEB 		mov	sl, r4
 3771 34e8 0030A0E1 		ldr	r3, .L33
 3772 34ec 0140A0E1 		ldr	r3, [r3, #12]	@ float
 3773 34f0 0500A0E1 		mov	r0, r3
 3774 34f4 0610A0E1 		bl	__extendsfdf2
 3775 34f8 0320A0E1 		mov	r3, r0
 3776 34fc 0430A0E1 		mov	r4, r1
 3777 3500 FEFFFFEB 		mov	r0, r3
 3778 3504 0030A0E1 		mov	r1, r4
 3779 3508 0140A0E1 		bl	sin
 3780 350c 0350A0E1 		mov	r5, r0
 3781 3510 0460A0E1 		mov	r6, r1
 3782 3514 F83F9FE5 		ldr	r3, .L33
 3783 3518 103093E5 		ldr	r3, [r3, #12]	@ float
 3784 351c 0300A0E1 		mov	r0, r3
 3785 3520 FEFFFFEB 		bl	__extendsfdf2
 3786 3524 0030A0E1 		mov	r3, r0
 3787 3528 0140A0E1 		mov	r4, r1
 3788 352c 0300A0E1 		mov	r0, r3
 3789 3530 0410A0E1 		mov	r1, r4
 3790 3534 FEFFFFEB 		bl	sin
 3791 3538 0030A0E1 		mov	r3, r0
 3792 353c 0140A0E1 		mov	r4, r1
 3793 3540 0500A0E1 		mov	r0, r5
 3794 3544 0610A0E1 		mov	r1, r6
 3795 3548 0320A0E1 		mov	r2, r3
 3796 354c 0430A0E1 		mov	r3, r4
 3797 3550 FEFFFFEB 		bl	__muldf3
 3798 3554 0030A0E1 		mov	r3, r0
 3799 3558 0140A0E1 		mov	r4, r1
 3800 355c 0350A0E1 		mov	r5, r3
 3801 3560 0460A0E1 		mov	r6, r4
 3802 3564 A83F9FE5 		ldr	r3, .L33
 3803 3568 103093E5 		ldr	r3, [r3, #16]	@ float
 3804 356c 0300A0E1 		mov	r0, r3
 3805 3570 FEFFFFEB 		bl	__extendsfdf2
 3806 3574 0030A0E1 		mov	r3, r0
 3807 3578 0140A0E1 		mov	r4, r1
 3808 357c 0300A0E1 		mov	r0, r3
 3809 3580 0410A0E1 		mov	r1, r4
 3810 3584 FEFFFFEB 		bl	sin
 3811 3588 0030A0E1 		mov	r3, r0
 3812 358c 0140A0E1 		mov	r4, r1
 3813 3590 0500A0E1 		mov	r0, r5
 3814 3594 0610A0E1 		mov	r1, r6
 3815 3598 0320A0E1 		mov	r2, r3
 3816 359c 0430A0E1 		mov	r3, r4
 3817 35a0 FEFFFFEB 		bl	__muldf3
 3818 35a4 0030A0E1 		mov	r3, r0
 3819 35a8 0140A0E1 		mov	r4, r1
 3820 35ac 0900A0E1 		mov	r5, r3
 3821 35b0 0A10A0E1 		mov	r6, r4
 3822 35b4 0320A0E1 		ldr	r3, .L33
 3823 35b8 0430A0E1 		ldr	r3, [r3, #16]	@ float
 3824 35bc FEFFFFEB 		mov	r0, r3
 3825 35c0 0030A0E1 		bl	__extendsfdf2
 3826 35c4 0140A0E1 		mov	r3, r0
 3827 35c8 0390A0E1 		mov	r4, r1
 3828 35cc 04A0A0E1 		mov	r0, r3
 3829 35d0 3C3F9FE5 		mov	r1, r4
 3830 35d4 0C3093E5 		bl	sin
 3831 35d8 0300A0E1 		mov	r3, r0
 3832 35dc FEFFFFEB 		mov	r4, r1
 3833 35e0 0030A0E1 		mov	r0, r5
 3834 35e4 0140A0E1 		mov	r1, r6
 3835 35e8 0300A0E1 		mov	r2, r3
 3836 35ec 0410A0E1 		mov	r3, r4
 3837 35f0 FEFFFFEB 		bl	__muldf3
 3838 35f4 0050A0E1 		mov	r3, r0
 3839 35f8 0160A0E1 		mov	r4, r1
 3840 35fc 103F9FE5 		mov	r5, r3
 3841 3600 0C3093E5 		mov	r6, r4
 3842 3604 0300A0E1 		ldr	r3, .L33
 3843 3608 FEFFFFEB 		ldr	r3, [r3, #20]	@ float
 3844 360c 0030A0E1 		mov	r0, r3
 3845 3610 0140A0E1 		bl	__extendsfdf2
 3846 3614 0300A0E1 		mov	r3, r0
 3847 3618 0410A0E1 		mov	r4, r1
 3848 361c FEFFFFEB 		mov	r0, r3
 3849 3620 0030A0E1 		mov	r1, r4
 3850 3624 0140A0E1 		bl	sin
 3851 3628 0500A0E1 		mov	r3, r0
 3852 362c 0610A0E1 		mov	r4, r1
 3853 3630 0320A0E1 		mov	r0, r5
 3854 3634 0430A0E1 		mov	r1, r6
 3855 3638 FEFFFFEB 		mov	r2, r3
 3856 363c 0030A0E1 		mov	r3, r4
 3857 3640 0140A0E1 		bl	__muldf3
 3858 3644 0350A0E1 		mov	r3, r0
 3859 3648 0460A0E1 		mov	r4, r1
 3860 364c C03E9FE5 		mov	r5, r3
 3861 3650 103093E5 		mov	r6, r4
 3862 3654 0300A0E1 		ldr	r3, .L33
 3863 3658 FEFFFFEB 		ldr	r3, [r3, #20]	@ float
 3864 365c 0030A0E1 		mov	r0, r3
 3865 3660 0140A0E1 		bl	__extendsfdf2
 3866 3664 0300A0E1 		mov	r3, r0
 3867 3668 0410A0E1 		mov	r4, r1
 3868 366c FEFFFFEB 		mov	r0, r3
 3869 3670 0030A0E1 		mov	r1, r4
 3870 3674 0140A0E1 		bl	sin
 3871 3678 0500A0E1 		mov	r3, r0
 3872 367c 0610A0E1 		mov	r4, r1
 3873 3680 0320A0E1 		mov	r0, r5
 3874 3684 0430A0E1 		mov	r1, r6
 3875 3688 FEFFFFEB 		mov	r2, r3
 3876 368c 0030A0E1 		mov	r3, r4
 3877 3690 0140A0E1 		bl	__muldf3
 3878 3694 0350A0E1 		mov	r3, r0
 3879 3698 0460A0E1 		mov	r4, r1
 3880 369c 703E9FE5 		mov	r0, r9
 3881 36a0 103093E5 		mov	r1, sl
 3882 36a4 0300A0E1 		mov	r2, r3
 3883 36a8 FEFFFFEB 		mov	r3, r4
 3884 36ac 0030A0E1 		bl	__adddf3
 3885 36b0 0140A0E1 		mov	r3, r0
 3886 36b4 0300A0E1 		mov	r4, r1
 3887 36b8 0410A0E1 		mov	r0, r7
 3888 36bc FEFFFFEB 		mov	r1, r8
 3889 36c0 0030A0E1 		mov	r2, r3
 3890 36c4 0140A0E1 		mov	r3, r4
 3891 36c8 0500A0E1 		bl	__divdf3
 3892 36cc 0610A0E1 		mov	r3, r0
 3893 36d0 0320A0E1 		mov	r4, r1
 3894 36d4 0430A0E1 		mov	r0, r3
 3895 36d8 FEFFFFEB 		mov	r1, r4
 3896 36dc 0030A0E1 		bl	__truncdfsf2
 3897 36e0 0140A0E1 		mov	r3, r0
 3898 36e4 0350A0E1 		str	r3, [fp, #-148]	@ float
 3899 36e8 0460A0E1 		.loc 1 270 0
 3900 36ec 203E9FE5 		ldr	r3, .L33
 3901 36f0 143093E5 		ldr	r3, [r3, #16]	@ float
 3902 36f4 0300A0E1 		mov	r0, r3
 3903 36f8 FEFFFFEB 		bl	__extendsfdf2
 3904 36fc 0030A0E1 		mov	r3, r0
 3905 3700 0140A0E1 		mov	r4, r1
 3906 3704 0300A0E1 		mov	r0, r3
 3907 3708 0410A0E1 		mov	r1, r4
 3908 370c FEFFFFEB 		bl	cos
 3909 3710 0030A0E1 		mov	r5, r0
 3910 3714 0140A0E1 		mov	r6, r1
 3911 3718 0500A0E1 		ldr	r3, .L33
 3912 371c 0610A0E1 		ldr	r3, [r3, #20]	@ float
 3913 3720 0320A0E1 		mov	r0, r3
 3914 3724 0430A0E1 		bl	__extendsfdf2
 3915 3728 FEFFFFEB 		mov	r3, r0
 3916 372c 0030A0E1 		mov	r4, r1
 3917 3730 0140A0E1 		mov	r0, r3
 3918 3734 0350A0E1 		mov	r1, r4
 3919 3738 0460A0E1 		bl	sin
 3920 373c D03D9FE5 		mov	r3, r0
 3921 3740 143093E5 		mov	r4, r1
 3922 3744 0300A0E1 		mov	r0, r5
 3923 3748 FEFFFFEB 		mov	r1, r6
 3924 374c 0030A0E1 		mov	r2, r3
 3925 3750 0140A0E1 		mov	r3, r4
 3926 3754 0300A0E1 		bl	__muldf3
 3927 3758 0410A0E1 		mov	r3, r0
 3928 375c FEFFFFEB 		mov	r4, r1
 3929 3760 0030A0E1 		mov	r7, r3
 3930 3764 0140A0E1 		mov	r8, r4
 3931 3768 0500A0E1 		ldr	r3, .L33
 3932 376c 0610A0E1 		ldr	r3, [r3, #16]	@ float
 3933 3770 0320A0E1 		mov	r0, r3
 3934 3774 0430A0E1 		bl	__extendsfdf2
 3935 3778 FEFFFFEB 		mov	r3, r0
 3936 377c 0030A0E1 		mov	r4, r1
 3937 3780 0140A0E1 		mov	r0, r3
 3938 3784 0900A0E1 		mov	r1, r4
 3939 3788 0A10A0E1 		bl	cos
 3940 378c 0320A0E1 		mov	r5, r0
 3941 3790 0430A0E1 		mov	r6, r1
 3942 3794 FEFFFFEB 		ldr	r3, .L33
 3943 3798 0030A0E1 		ldr	r3, [r3, #16]	@ float
 3944 379c 0140A0E1 		mov	r0, r3
 3945 37a0 0700A0E1 		bl	__extendsfdf2
 3946 37a4 0810A0E1 		mov	r3, r0
 3947 37a8 0320A0E1 		mov	r4, r1
 3948 37ac 0430A0E1 		mov	r0, r3
 3949 37b0 FEFFFFEB 		mov	r1, r4
 3950 37b4 0030A0E1 		bl	cos
 3951 37b8 0140A0E1 		mov	r3, r0
 3952 37bc 0300A0E1 		mov	r4, r1
 3953 37c0 0410A0E1 		mov	r0, r5
 3954 37c4 FEFFFFEB 		mov	r1, r6
 3955 37c8 0030A0E1 		mov	r2, r3
 3956 37cc 94300BE5 		mov	r3, r4
 270:lab.c         **** 	Rinv[5] = (cos(xd[4])*sin(xd[5]))/(cos(xd[4])*cos(xd[4])*cos(xd[5])*cos(xd[5]) + cos(xd[4])*cos(xd
 3957              		mov	r0, r5
 3958 37d0 3C3D9FE5 		mov	r1, r6
 3959 37d4 103093E5 		mov	r2, r3
 3960 37d8 0300A0E1 		mov	r3, r4
 3961 37dc FEFFFFEB 		bl	__muldf3
 3962 37e0 0030A0E1 		mov	r3, r0
 3963 37e4 0140A0E1 		mov	r4, r1
 3964 37e8 0300A0E1 		mov	r5, r3
 3965 37ec 0410A0E1 		mov	r6, r4
 3966 37f0 FEFFFFEB 		ldr	r3, .L33
 3967 37f4 0050A0E1 		ldr	r3, [r3, #20]	@ float
 3968 37f8 0160A0E1 		mov	r0, r3
 3969 37fc 103D9FE5 		bl	__extendsfdf2
 3970 3800 143093E5 		mov	r3, r0
 3971 3804 0300A0E1 		mov	r4, r1
 3972 3808 FEFFFFEB 		mov	r0, r3
 3973 380c 0030A0E1 		mov	r1, r4
 3974 3810 0140A0E1 		bl	cos
 3975 3814 0300A0E1 		mov	r3, r0
 3976 3818 0410A0E1 		mov	r4, r1
 3977 381c FEFFFFEB 		mov	r0, r5
 3978 3820 0030A0E1 		mov	r1, r6
 3979 3824 0140A0E1 		mov	r2, r3
 3980 3828 0500A0E1 		mov	r3, r4
 3981 382c 0610A0E1 		bl	__muldf3
 3982 3830 0320A0E1 		mov	r3, r0
 3983 3834 0430A0E1 		mov	r4, r1
 3984 3838 FEFFFFEB 		mov	r9, r3
 3985 383c 0030A0E1 		mov	sl, r4
 3986 3840 0140A0E1 		ldr	r3, .L33
 3987 3844 0370A0E1 		ldr	r3, [r3, #16]	@ float
 3988 3848 0480A0E1 		mov	r0, r3
 3989 384c C03C9FE5 		bl	__extendsfdf2
 3990 3850 103093E5 		mov	r3, r0
 3991 3854 0300A0E1 		mov	r4, r1
 3992 3858 FEFFFFEB 		mov	r0, r3
 3993 385c 0030A0E1 		mov	r1, r4
 3994 3860 0140A0E1 		bl	cos
 3995 3864 0300A0E1 		mov	r5, r0
 3996 3868 0410A0E1 		mov	r6, r1
 3997 386c FEFFFFEB 		ldr	r3, .L33
 3998 3870 0050A0E1 		ldr	r3, [r3, #16]	@ float
 3999 3874 0160A0E1 		mov	r0, r3
 4000 3878 943C9FE5 		bl	__extendsfdf2
 4001 387c 103093E5 		mov	r3, r0
 4002 3880 0300A0E1 		mov	r4, r1
 4003 3884 FEFFFFEB 		mov	r0, r3
 4004 3888 0030A0E1 		mov	r1, r4
 4005 388c 0140A0E1 		bl	cos
 4006 3890 0300A0E1 		mov	r3, r0
 4007 3894 0410A0E1 		mov	r4, r1
 4008 3898 FEFFFFEB 		mov	r0, r5
 4009 389c 0030A0E1 		mov	r1, r6
 4010 38a0 0140A0E1 		mov	r2, r3
 4011 38a4 0500A0E1 		mov	r3, r4
 4012 38a8 0610A0E1 		bl	__muldf3
 4013 38ac 0320A0E1 		mov	r3, r0
 4014 38b0 0430A0E1 		mov	r4, r1
 4015 38b4 FEFFFFEB 		mov	r5, r3
 4016 38b8 0030A0E1 		mov	r6, r4
 4017 38bc 0140A0E1 		ldr	r3, .L33
 4018 38c0 0350A0E1 		ldr	r3, [r3, #20]	@ float
 4019 38c4 0460A0E1 		mov	r0, r3
 4020 38c8 443C9FE5 		bl	__extendsfdf2
 4021 38cc 143093E5 		mov	r3, r0
 4022 38d0 0300A0E1 		mov	r4, r1
 4023 38d4 FEFFFFEB 		mov	r0, r3
 4024 38d8 0030A0E1 		mov	r1, r4
 4025 38dc 0140A0E1 		bl	sin
 4026 38e0 0300A0E1 		mov	r3, r0
 4027 38e4 0410A0E1 		mov	r4, r1
 4028 38e8 FEFFFFEB 		mov	r0, r5
 4029 38ec 0030A0E1 		mov	r1, r6
 4030 38f0 0140A0E1 		mov	r2, r3
 4031 38f4 0500A0E1 		mov	r3, r4
 4032 38f8 0610A0E1 		bl	__muldf3
 4033 38fc 0320A0E1 		mov	r3, r0
 4034 3900 0430A0E1 		mov	r4, r1
 4035 3904 FEFFFFEB 		mov	r5, r3
 4036 3908 0030A0E1 		mov	r6, r4
 4037 390c 0140A0E1 		ldr	r3, .L33
 4038 3910 0350A0E1 		ldr	r3, [r3, #20]	@ float
 4039 3914 0460A0E1 		mov	r0, r3
 4040 3918 F43B9FE5 		bl	__extendsfdf2
 4041 391c 143093E5 		mov	r3, r0
 4042 3920 0300A0E1 		mov	r4, r1
 4043 3924 FEFFFFEB 		mov	r0, r3
 4044 3928 0030A0E1 		mov	r1, r4
 4045 392c 0140A0E1 		bl	sin
 4046 3930 0300A0E1 		mov	r3, r0
 4047 3934 0410A0E1 		mov	r4, r1
 4048 3938 FEFFFFEB 		mov	r0, r5
 4049 393c 0030A0E1 		mov	r1, r6
 4050 3940 0140A0E1 		mov	r2, r3
 4051 3944 0500A0E1 		mov	r3, r4
 4052 3948 0610A0E1 		bl	__muldf3
 4053 394c 0320A0E1 		mov	r3, r0
 4054 3950 0430A0E1 		mov	r4, r1
 4055 3954 FEFFFFEB 		mov	r0, r9
 4056 3958 0030A0E1 		mov	r1, sl
 4057 395c 0140A0E1 		mov	r2, r3
 4058 3960 0390A0E1 		mov	r3, r4
 4059 3964 04A0A0E1 		bl	__adddf3
 4060 3968 A43B9FE5 		mov	r3, r0
 4061 396c 103093E5 		mov	r4, r1
 4062 3970 0300A0E1 		mov	r9, r3
 4063 3974 FEFFFFEB 		mov	sl, r4
 4064 3978 0030A0E1 		ldr	r3, .L33
 4065 397c 0140A0E1 		ldr	r3, [r3, #20]	@ float
 4066 3980 0300A0E1 		mov	r0, r3
 4067 3984 0410A0E1 		bl	__extendsfdf2
 4068 3988 FEFFFFEB 		mov	r3, r0
 4069 398c 0050A0E1 		mov	r4, r1
 4070 3990 0160A0E1 		mov	r0, r3
 4071 3994 783B9FE5 		mov	r1, r4
 4072 3998 103093E5 		bl	cos
 4073 399c 0300A0E1 		mov	r5, r0
 4074 39a0 FEFFFFEB 		mov	r6, r1
 4075 39a4 0030A0E1 		ldr	r3, .L33
 4076 39a8 0140A0E1 		ldr	r3, [r3, #20]	@ float
 4077 39ac 0300A0E1 		mov	r0, r3
 4078 39b0 0410A0E1 		bl	__extendsfdf2
 4079 39b4 FEFFFFEB 		mov	r3, r0
 4080 39b8 0030A0E1 		mov	r4, r1
 4081 39bc 0140A0E1 		mov	r0, r3
 4082 39c0 0500A0E1 		mov	r1, r4
 4083 39c4 0610A0E1 		bl	cos
 4084 39c8 0320A0E1 		mov	r3, r0
 4085 39cc 0430A0E1 		mov	r4, r1
 4086 39d0 FEFFFFEB 		mov	r0, r5
 4087 39d4 0030A0E1 		mov	r1, r6
 4088 39d8 0140A0E1 		mov	r2, r3
 4089 39dc 0350A0E1 		mov	r3, r4
 4090 39e0 0460A0E1 		bl	__muldf3
 4091 39e4 283B9FE5 		mov	r3, r0
 4092 39e8 143093E5 		mov	r4, r1
 4093 39ec 0300A0E1 		mov	r5, r3
 4094 39f0 FEFFFFEB 		mov	r6, r4
 4095 39f4 0030A0E1 		ldr	r3, .L33
 4096 39f8 0140A0E1 		ldr	r3, [r3, #16]	@ float
 4097 39fc 0300A0E1 		mov	r0, r3
 4098 3a00 0410A0E1 		bl	__extendsfdf2
 4099 3a04 FEFFFFEB 		mov	r3, r0
 4100 3a08 0030A0E1 		mov	r4, r1
 4101 3a0c 0140A0E1 		mov	r0, r3
 4102 3a10 0500A0E1 		mov	r1, r4
 4103 3a14 0610A0E1 		bl	sin
 4104 3a18 0320A0E1 		mov	r3, r0
 4105 3a1c 0430A0E1 		mov	r4, r1
 4106 3a20 FEFFFFEB 		mov	r0, r5
 4107 3a24 0030A0E1 		mov	r1, r6
 4108 3a28 0140A0E1 		mov	r2, r3
 4109 3a2c 0350A0E1 		mov	r3, r4
 4110 3a30 0460A0E1 		bl	__muldf3
 4111 3a34 D83A9FE5 		mov	r3, r0
 4112 3a38 143093E5 		mov	r4, r1
 4113 3a3c 0300A0E1 		mov	r5, r3
 4114 3a40 FEFFFFEB 		mov	r6, r4
 4115 3a44 0030A0E1 		ldr	r3, .L33
 4116 3a48 0140A0E1 		ldr	r3, [r3, #16]	@ float
 4117 3a4c 0300A0E1 		mov	r0, r3
 4118 3a50 0410A0E1 		bl	__extendsfdf2
 4119 3a54 FEFFFFEB 		mov	r3, r0
 4120 3a58 0030A0E1 		mov	r4, r1
 4121 3a5c 0140A0E1 		mov	r0, r3
 4122 3a60 0500A0E1 		mov	r1, r4
 4123 3a64 0610A0E1 		bl	sin
 4124 3a68 0320A0E1 		mov	r3, r0
 4125 3a6c 0430A0E1 		mov	r4, r1
 4126 3a70 FEFFFFEB 		mov	r0, r5
 4127 3a74 0030A0E1 		mov	r1, r6
 4128 3a78 0140A0E1 		mov	r2, r3
 4129 3a7c 0900A0E1 		mov	r3, r4
 4130 3a80 0A10A0E1 		bl	__muldf3
 4131 3a84 0320A0E1 		mov	r3, r0
 4132 3a88 0430A0E1 		mov	r4, r1
 4133 3a8c FEFFFFEB 		mov	r0, r9
 4134 3a90 0030A0E1 		mov	r1, sl
 4135 3a94 0140A0E1 		mov	r2, r3
 4136 3a98 0390A0E1 		mov	r3, r4
 4137 3a9c 04A0A0E1 		bl	__adddf3
 4138 3aa0 6C3A9FE5 		mov	r3, r0
 4139 3aa4 143093E5 		mov	r4, r1
 4140 3aa8 0300A0E1 		mov	r9, r3
 4141 3aac FEFFFFEB 		mov	sl, r4
 4142 3ab0 0030A0E1 		ldr	r3, .L33
 4143 3ab4 0140A0E1 		ldr	r3, [r3, #16]	@ float
 4144 3ab8 0300A0E1 		mov	r0, r3
 4145 3abc 0410A0E1 		bl	__extendsfdf2
 4146 3ac0 FEFFFFEB 		mov	r3, r0
 4147 3ac4 0050A0E1 		mov	r4, r1
 4148 3ac8 0160A0E1 		mov	r0, r3
 4149 3acc 403A9FE5 		mov	r1, r4
 4150 3ad0 143093E5 		bl	sin
 4151 3ad4 0300A0E1 		mov	r5, r0
 4152 3ad8 FEFFFFEB 		mov	r6, r1
 4153 3adc 0030A0E1 		ldr	r3, .L33
 4154 3ae0 0140A0E1 		ldr	r3, [r3, #16]	@ float
 4155 3ae4 0300A0E1 		mov	r0, r3
 4156 3ae8 0410A0E1 		bl	__extendsfdf2
 4157 3aec FEFFFFEB 		mov	r3, r0
 4158 3af0 0030A0E1 		mov	r4, r1
 4159 3af4 0140A0E1 		mov	r0, r3
 4160 3af8 0500A0E1 		mov	r1, r4
 4161 3afc 0610A0E1 		bl	sin
 4162 3b00 0320A0E1 		mov	r3, r0
 4163 3b04 0430A0E1 		mov	r4, r1
 4164 3b08 FEFFFFEB 		mov	r0, r5
 4165 3b0c 0030A0E1 		mov	r1, r6
 4166 3b10 0140A0E1 		mov	r2, r3
 4167 3b14 0350A0E1 		mov	r3, r4
 4168 3b18 0460A0E1 		bl	__muldf3
 4169 3b1c F0399FE5 		mov	r3, r0
 4170 3b20 103093E5 		mov	r4, r1
 4171 3b24 0300A0E1 		mov	r5, r3
 4172 3b28 FEFFFFEB 		mov	r6, r4
 4173 3b2c 0030A0E1 		ldr	r3, .L33
 4174 3b30 0140A0E1 		ldr	r3, [r3, #20]	@ float
 4175 3b34 0300A0E1 		mov	r0, r3
 4176 3b38 0410A0E1 		bl	__extendsfdf2
 4177 3b3c FEFFFFEB 		mov	r3, r0
 4178 3b40 0030A0E1 		mov	r4, r1
 4179 3b44 0140A0E1 		mov	r0, r3
 4180 3b48 0500A0E1 		mov	r1, r4
 4181 3b4c 0610A0E1 		bl	sin
 4182 3b50 0320A0E1 		mov	r3, r0
 4183 3b54 0430A0E1 		mov	r4, r1
 4184 3b58 FEFFFFEB 		mov	r0, r5
 4185 3b5c 0030A0E1 		mov	r1, r6
 4186 3b60 0140A0E1 		mov	r2, r3
 4187 3b64 0350A0E1 		mov	r3, r4
 4188 3b68 0460A0E1 		bl	__muldf3
 4189 3b6c A0399FE5 		mov	r3, r0
 4190 3b70 103093E5 		mov	r4, r1
 4191 3b74 0300A0E1 		mov	r5, r3
 4192 3b78 FEFFFFEB 		mov	r6, r4
 4193 3b7c 0030A0E1 		ldr	r3, .L33
 4194 3b80 0140A0E1 		ldr	r3, [r3, #20]	@ float
 4195 3b84 0300A0E1 		mov	r0, r3
 4196 3b88 0410A0E1 		bl	__extendsfdf2
 4197 3b8c FEFFFFEB 		mov	r3, r0
 4198 3b90 0030A0E1 		mov	r4, r1
 4199 3b94 0140A0E1 		mov	r0, r3
 4200 3b98 0500A0E1 		mov	r1, r4
 4201 3b9c 0610A0E1 		bl	sin
 4202 3ba0 0320A0E1 		mov	r3, r0
 4203 3ba4 0430A0E1 		mov	r4, r1
 4204 3ba8 FEFFFFEB 		mov	r0, r5
 4205 3bac 0030A0E1 		mov	r1, r6
 4206 3bb0 0140A0E1 		mov	r2, r3
 4207 3bb4 0900A0E1 		mov	r3, r4
 4208 3bb8 0A10A0E1 		bl	__muldf3
 4209 3bbc 0320A0E1 		mov	r3, r0
 4210 3bc0 0430A0E1 		mov	r4, r1
 4211 3bc4 FEFFFFEB 		mov	r0, r9
 4212 3bc8 0030A0E1 		mov	r1, sl
 4213 3bcc 0140A0E1 		mov	r2, r3
 4214 3bd0 0390A0E1 		mov	r3, r4
 4215 3bd4 04A0A0E1 		bl	__adddf3
 4216 3bd8 34399FE5 		mov	r3, r0
 4217 3bdc 103093E5 		mov	r4, r1
 4218 3be0 0300A0E1 		mov	r0, r7
 4219 3be4 FEFFFFEB 		mov	r1, r8
 4220 3be8 0030A0E1 		mov	r2, r3
 4221 3bec 0140A0E1 		mov	r3, r4
 4222 3bf0 0300A0E1 		bl	__divdf3
 4223 3bf4 0410A0E1 		mov	r3, r0
 4224 3bf8 FEFFFFEB 		mov	r4, r1
 4225 3bfc 0050A0E1 		mov	r0, r3
 4226 3c00 0160A0E1 		mov	r1, r4
 4227 3c04 08399FE5 		bl	__truncdfsf2
 4228 3c08 103093E5 		mov	r3, r0
 4229 3c0c 0300A0E1 		str	r3, [fp, #-144]	@ float
 4230 3c10 FEFFFFEB 		.loc 1 271 0
 4231 3c14 0030A0E1 		ldr	r3, .L33
 4232 3c18 0140A0E1 		ldr	r3, [r3, #12]	@ float
 4233 3c1c 0300A0E1 		mov	r0, r3
 4234 3c20 0410A0E1 		bl	__extendsfdf2
 4235 3c24 FEFFFFEB 		mov	r3, r0
 4236 3c28 0030A0E1 		mov	r4, r1
 4237 3c2c 0140A0E1 		mov	r0, r3
 4238 3c30 0500A0E1 		mov	r1, r4
 4239 3c34 0610A0E1 		bl	sin
 4240 3c38 0320A0E1 		mov	r5, r0
 4241 3c3c 0430A0E1 		mov	r6, r1
 4242 3c40 FEFFFFEB 		ldr	r3, .L33
 4243 3c44 0030A0E1 		ldr	r3, [r3, #20]	@ float
 4244 3c48 0140A0E1 		mov	r0, r3
 4245 3c4c 0350A0E1 		bl	__extendsfdf2
 4246 3c50 0460A0E1 		mov	r3, r0
 4247 3c54 B8389FE5 		mov	r4, r1
 4248 3c58 143093E5 		mov	r0, r3
 4249 3c5c 0300A0E1 		mov	r1, r4
 4250 3c60 FEFFFFEB 		bl	sin
 4251 3c64 0030A0E1 		mov	r3, r0
 4252 3c68 0140A0E1 		mov	r4, r1
 4253 3c6c 0300A0E1 		mov	r0, r5
 4254 3c70 0410A0E1 		mov	r1, r6
 4255 3c74 FEFFFFEB 		mov	r2, r3
 4256 3c78 0030A0E1 		mov	r3, r4
 4257 3c7c 0140A0E1 		bl	__muldf3
 4258 3c80 0500A0E1 		mov	r3, r0
 4259 3c84 0610A0E1 		mov	r4, r1
 4260 3c88 0320A0E1 		mov	r5, r3
 4261 3c8c 0430A0E1 		mov	r6, r4
 4262 3c90 FEFFFFEB 		ldr	r3, .L33
 4263 3c94 0030A0E1 		ldr	r3, [r3, #16]	@ float
 4264 3c98 0140A0E1 		mov	r0, r3
 4265 3c9c 0350A0E1 		bl	__extendsfdf2
 4266 3ca0 0460A0E1 		mov	r3, r0
 4267 3ca4 68389FE5 		mov	r4, r1
 4268 3ca8 143093E5 		mov	r0, r3
 4269 3cac 0300A0E1 		mov	r1, r4
 4270 3cb0 FEFFFFEB 		bl	cos
 4271 3cb4 0030A0E1 		mov	r3, r0
 4272 3cb8 0140A0E1 		mov	r4, r1
 4273 3cbc 0300A0E1 		mov	r0, r5
 4274 3cc0 0410A0E1 		mov	r1, r6
 4275 3cc4 FEFFFFEB 		mov	r2, r3
 4276 3cc8 0030A0E1 		mov	r3, r4
 4277 3ccc 0140A0E1 		bl	__muldf3
 4278 3cd0 0500A0E1 		mov	r3, r0
 4279 3cd4 0610A0E1 		mov	r4, r1
 4280 3cd8 0320A0E1 		mov	r5, r3
 4281 3cdc 0430A0E1 		mov	r6, r4
 4282 3ce0 FEFFFFEB 		ldr	r3, .L33
 4283 3ce4 0030A0E1 		ldr	r3, [r3, #16]	@ float
 4284 3ce8 0140A0E1 		mov	r0, r3
 4285 3cec 0900A0E1 		bl	__extendsfdf2
 4286 3cf0 0A10A0E1 		mov	r3, r0
 4287 3cf4 0320A0E1 		mov	r4, r1
 4288 3cf8 0430A0E1 		mov	r0, r3
 4289 3cfc FEFFFFEB 		mov	r1, r4
 4290 3d00 0030A0E1 		bl	cos
 4291 3d04 0140A0E1 		mov	r3, r0
 4292 3d08 0700A0E1 		mov	r4, r1
 4293 3d0c 0810A0E1 		mov	r0, r5
 4294 3d10 0320A0E1 		mov	r1, r6
 4295 3d14 0430A0E1 		mov	r2, r3
 4296 3d18 FEFFFFEB 		mov	r3, r4
 4297 3d1c 0030A0E1 		bl	__muldf3
 4298 3d20 0140A0E1 		mov	r3, r0
 4299 3d24 0300A0E1 		mov	r4, r1
 4300 3d28 0410A0E1 		mov	r7, r3
 4301 3d2c FEFFFFEB 		mov	r8, r4
 4302 3d30 0030A0E1 		ldr	r3, .L33
 4303 3d34 90300BE5 		ldr	r3, [r3, #12]	@ float
 271:lab.c         **** 	Rinv[6] = (sin(xd[3])*sin(xd[5])*cos(xd[4])*cos(xd[4]) + sin(xd[3])*sin(xd[5])*sin(xd[4])*sin(xd[4
 4304              	r3, r0
 4305 3d38 D4379FE5 		mov	r4, r1
 4306 3d3c 0C3093E5 		mov	r0, r3
 4307 3d40 0300A0E1 		mov	r1, r4
 4308 3d44 FEFFFFEB 		bl	sin
 4309 3d48 0030A0E1 		mov	r5, r0
 4310 3d4c 0140A0E1 		mov	r6, r1
 4311 3d50 0300A0E1 		ldr	r3, .L33
 4312 3d54 0410A0E1 		ldr	r3, [r3, #20]	@ float
 4313 3d58 FEFFFFEB 		mov	r0, r3
 4314 3d5c 0050A0E1 		bl	__extendsfdf2
 4315 3d60 0160A0E1 		mov	r3, r0
 4316 3d64 A8379FE5 		mov	r4, r1
 4317 3d68 143093E5 		mov	r0, r3
 4318 3d6c 0300A0E1 		mov	r1, r4
 4319 3d70 FEFFFFEB 		bl	sin
 4320 3d74 0030A0E1 		mov	r3, r0
 4321 3d78 0140A0E1 		mov	r4, r1
 4322 3d7c 0300A0E1 		mov	r0, r5
 4323 3d80 0410A0E1 		mov	r1, r6
 4324 3d84 FEFFFFEB 		mov	r2, r3
 4325 3d88 0030A0E1 		mov	r3, r4
 4326 3d8c 0140A0E1 		bl	__muldf3
 4327 3d90 0500A0E1 		mov	r3, r0
 4328 3d94 0610A0E1 		mov	r4, r1
 4329 3d98 0320A0E1 		mov	r5, r3
 4330 3d9c 0430A0E1 		mov	r6, r4
 4331 3da0 FEFFFFEB 		ldr	r3, .L33
 4332 3da4 0030A0E1 		ldr	r3, [r3, #16]	@ float
 4333 3da8 0140A0E1 		mov	r0, r3
 4334 3dac 0350A0E1 		bl	__extendsfdf2
 4335 3db0 0460A0E1 		mov	r3, r0
 4336 3db4 58379FE5 		mov	r4, r1
 4337 3db8 103093E5 		mov	r0, r3
 4338 3dbc 0300A0E1 		mov	r1, r4
 4339 3dc0 FEFFFFEB 		bl	sin
 4340 3dc4 0030A0E1 		mov	r3, r0
 4341 3dc8 0140A0E1 		mov	r4, r1
 4342 3dcc 0300A0E1 		mov	r0, r5
 4343 3dd0 0410A0E1 		mov	r1, r6
 4344 3dd4 FEFFFFEB 		mov	r2, r3
 4345 3dd8 0030A0E1 		mov	r3, r4
 4346 3ddc 0140A0E1 		bl	__muldf3
 4347 3de0 0500A0E1 		mov	r3, r0
 4348 3de4 0610A0E1 		mov	r4, r1
 4349 3de8 0320A0E1 		mov	r5, r3
 4350 3dec 0430A0E1 		mov	r6, r4
 4351 3df0 FEFFFFEB 		ldr	r3, .L33
 4352 3df4 0030A0E1 		ldr	r3, [r3, #16]	@ float
 4353 3df8 0140A0E1 		mov	r0, r3
 4354 3dfc 0350A0E1 		bl	__extendsfdf2
 4355 3e00 0460A0E1 		mov	r3, r0
 4356 3e04 08379FE5 		mov	r4, r1
 4357 3e08 103093E5 		mov	r0, r3
 4358 3e0c 0300A0E1 		mov	r1, r4
 4359 3e10 FEFFFFEB 		bl	sin
 4360 3e14 0030A0E1 		mov	r3, r0
 4361 3e18 0140A0E1 		mov	r4, r1
 4362 3e1c 0300A0E1 		mov	r0, r5
 4363 3e20 0410A0E1 		mov	r1, r6
 4364 3e24 FEFFFFEB 		mov	r2, r3
 4365 3e28 0030A0E1 		mov	r3, r4
 4366 3e2c 0140A0E1 		bl	__muldf3
 4367 3e30 0500A0E1 		mov	r3, r0
 4368 3e34 0610A0E1 		mov	r4, r1
 4369 3e38 0320A0E1 		mov	r0, r7
 4370 3e3c 0430A0E1 		mov	r1, r8
 4371 3e40 FEFFFFEB 		mov	r2, r3
 4372 3e44 0030A0E1 		mov	r3, r4
 4373 3e48 0140A0E1 		bl	__adddf3
 4374 3e4c 0370A0E1 		mov	r3, r0
 4375 3e50 0480A0E1 		mov	r4, r1
 4376 3e54 B8369FE5 		mov	r7, r3
 4377 3e58 0C3093E5 		mov	r8, r4
 4378 3e5c 0300A0E1 		ldr	r3, .L33
 4379 3e60 FEFFFFEB 		ldr	r3, [r3, #12]	@ float
 4380 3e64 0030A0E1 		mov	r0, r3
 4381 3e68 0140A0E1 		bl	__extendsfdf2
 4382 3e6c 0300A0E1 		mov	r3, r0
 4383 3e70 0410A0E1 		mov	r4, r1
 4384 3e74 FEFFFFEB 		mov	r0, r3
 4385 3e78 0050A0E1 		mov	r1, r4
 4386 3e7c 0160A0E1 		bl	cos
 4387 3e80 8C369FE5 		mov	r5, r0
 4388 3e84 143093E5 		mov	r6, r1
 4389 3e88 0300A0E1 		ldr	r3, .L33
 4390 3e8c FEFFFFEB 		ldr	r3, [r3, #20]	@ float
 4391 3e90 0030A0E1 		mov	r0, r3
 4392 3e94 0140A0E1 		bl	__extendsfdf2
 4393 3e98 0300A0E1 		mov	r3, r0
 4394 3e9c 0410A0E1 		mov	r4, r1
 4395 3ea0 FEFFFFEB 		mov	r0, r3
 4396 3ea4 0030A0E1 		mov	r1, r4
 4397 3ea8 0140A0E1 		bl	cos
 4398 3eac 0500A0E1 		mov	r3, r0
 4399 3eb0 0610A0E1 		mov	r4, r1
 4400 3eb4 0320A0E1 		mov	r0, r5
 4401 3eb8 0430A0E1 		mov	r1, r6
 4402 3ebc FEFFFFEB 		mov	r2, r3
 4403 3ec0 0030A0E1 		mov	r3, r4
 4404 3ec4 0140A0E1 		bl	__muldf3
 4405 3ec8 0350A0E1 		mov	r3, r0
 4406 3ecc 0460A0E1 		mov	r4, r1
 4407 3ed0 3C369FE5 		mov	r5, r3
 4408 3ed4 103093E5 		mov	r6, r4
 4409 3ed8 0300A0E1 		ldr	r3, .L33
 4410 3edc FEFFFFEB 		ldr	r3, [r3, #16]	@ float
 4411 3ee0 0030A0E1 		mov	r0, r3
 4412 3ee4 0140A0E1 		bl	__extendsfdf2
 4413 3ee8 0300A0E1 		mov	r3, r0
 4414 3eec 0410A0E1 		mov	r4, r1
 4415 3ef0 FEFFFFEB 		mov	r0, r3
 4416 3ef4 0030A0E1 		mov	r1, r4
 4417 3ef8 0140A0E1 		bl	sin
 4418 3efc 0500A0E1 		mov	r3, r0
 4419 3f00 0610A0E1 		mov	r4, r1
 4420 3f04 0320A0E1 		mov	r0, r5
 4421 3f08 0430A0E1 		mov	r1, r6
 4422 3f0c FEFFFFEB 		mov	r2, r3
 4423 3f10 0030A0E1 		mov	r3, r4
 4424 3f14 0140A0E1 		bl	__muldf3
 4425 3f18 0350A0E1 		mov	r3, r0
 4426 3f1c 0460A0E1 		mov	r4, r1
 4427 3f20 EC359FE5 		mov	r0, r7
 4428 3f24 103093E5 		mov	r1, r8
 4429 3f28 0300A0E1 		mov	r2, r3
 4430 3f2c FEFFFFEB 		mov	r3, r4
 4431 3f30 0030A0E1 		bl	__adddf3
 4432 3f34 0140A0E1 		mov	r3, r0
 4433 3f38 0300A0E1 		mov	r4, r1
 4434 3f3c 0410A0E1 		mov	r7, r3
 4435 3f40 FEFFFFEB 		mov	r8, r4
 4436 3f44 0030A0E1 		ldr	r3, .L33
 4437 3f48 0140A0E1 		ldr	r3, [r3, #12]	@ float
 4438 3f4c 0500A0E1 		mov	r0, r3
 4439 3f50 0610A0E1 		bl	__extendsfdf2
 4440 3f54 0320A0E1 		mov	r3, r0
 4441 3f58 0430A0E1 		mov	r4, r1
 4442 3f5c FEFFFFEB 		mov	r0, r3
 4443 3f60 0030A0E1 		mov	r1, r4
 4444 3f64 0140A0E1 		bl	cos
 4445 3f68 0700A0E1 		mov	r5, r0
 4446 3f6c 0810A0E1 		mov	r6, r1
 4447 3f70 0320A0E1 		ldr	r3, .L33
 4448 3f74 0430A0E1 		ldr	r3, [r3, #12]	@ float
 4449 3f78 FEFFFFEB 		mov	r0, r3
 4450 3f7c 0030A0E1 		bl	__extendsfdf2
 4451 3f80 0140A0E1 		mov	r3, r0
 4452 3f84 0370A0E1 		mov	r4, r1
 4453 3f88 0480A0E1 		mov	r0, r3
 4454 3f8c 80359FE5 		mov	r1, r4
 4455 3f90 0C3093E5 		bl	cos
 4456 3f94 0300A0E1 		mov	r3, r0
 4457 3f98 FEFFFFEB 		mov	r4, r1
 4458 3f9c 0030A0E1 		mov	r0, r5
 4459 3fa0 0140A0E1 		mov	r1, r6
 4460 3fa4 0300A0E1 		mov	r2, r3
 4461 3fa8 0410A0E1 		mov	r3, r4
 4462 3fac FEFFFFEB 		bl	__muldf3
 4463 3fb0 0050A0E1 		mov	r3, r0
 4464 3fb4 0160A0E1 		mov	r4, r1
 4465 3fb8 54359FE5 		mov	r5, r3
 4466 3fbc 143093E5 		mov	r6, r4
 4467 3fc0 0300A0E1 		ldr	r3, .L33
 4468 3fc4 FEFFFFEB 		ldr	r3, [r3, #16]	@ float
 4469 3fc8 0030A0E1 		mov	r0, r3
 4470 3fcc 0140A0E1 		bl	__extendsfdf2
 4471 3fd0 0300A0E1 		mov	r3, r0
 4472 3fd4 0410A0E1 		mov	r4, r1
 4473 3fd8 FEFFFFEB 		mov	r0, r3
 4474 3fdc 0030A0E1 		mov	r1, r4
 4475 3fe0 0140A0E1 		bl	cos
 4476 3fe4 0500A0E1 		mov	r3, r0
 4477 3fe8 0610A0E1 		mov	r4, r1
 4478 3fec 0320A0E1 		mov	r0, r5
 4479 3ff0 0430A0E1 		mov	r1, r6
 4480 3ff4 FEFFFFEB 		mov	r2, r3
 4481 3ff8 0030A0E1 		mov	r3, r4
 4482 3ffc 0140A0E1 		bl	__muldf3
 4483 4000 0350A0E1 		mov	r3, r0
 4484 4004 0460A0E1 		mov	r4, r1
 4485 4008 04359FE5 		mov	r5, r3
 4486 400c 103093E5 		mov	r6, r4
 4487 4010 0300A0E1 		ldr	r3, .L33
 4488 4014 FEFFFFEB 		ldr	r3, [r3, #16]	@ float
 4489 4018 0030A0E1 		mov	r0, r3
 4490 401c 0140A0E1 		bl	__extendsfdf2
 4491 4020 0300A0E1 		mov	r3, r0
 4492 4024 0410A0E1 		mov	r4, r1
 4493 4028 FEFFFFEB 		mov	r0, r3
 4494 402c 0030A0E1 		mov	r1, r4
 4495 4030 0140A0E1 		bl	cos
 4496 4034 0500A0E1 		mov	r3, r0
 4497 4038 0610A0E1 		mov	r4, r1
 4498 403c 0320A0E1 		mov	r0, r5
 4499 4040 0430A0E1 		mov	r1, r6
 4500 4044 FEFFFFEB 		mov	r2, r3
 4501 4048 0030A0E1 		mov	r3, r4
 4502 404c 0140A0E1 		bl	__muldf3
 4503 4050 0700A0E1 		mov	r3, r0
 4504 4054 0810A0E1 		mov	r4, r1
 4505 4058 0320A0E1 		mov	r5, r3
 4506 405c 0430A0E1 		mov	r6, r4
 4507 4060 FEFFFFEB 		ldr	r3, .L33
 4508 4064 0030A0E1 		ldr	r3, [r3, #20]	@ float
 4509 4068 0140A0E1 		mov	r0, r3
 4510 406c 0370A0E1 		bl	__extendsfdf2
 4511 4070 0480A0E1 		mov	r3, r0
 4512 4074 98349FE5 		mov	r4, r1
 4513 4078 0C3093E5 		mov	r0, r3
 4514 407c 0300A0E1 		mov	r1, r4
 4515 4080 FEFFFFEB 		bl	cos
 4516 4084 0030A0E1 		mov	r3, r0
 4517 4088 0140A0E1 		mov	r4, r1
 4518 408c 0300A0E1 		mov	r0, r5
 4519 4090 0410A0E1 		mov	r1, r6
 4520 4094 FEFFFFEB 		mov	r2, r3
 4521 4098 0050A0E1 		mov	r3, r4
 4522 409c 0160A0E1 		bl	__muldf3
 4523 40a0 6C349FE5 		mov	r3, r0
 4524 40a4 0C3093E5 		mov	r4, r1
 4525 40a8 0300A0E1 		mov	r5, r3
 4526 40ac FEFFFFEB 		mov	r6, r4
 4527 40b0 0030A0E1 		ldr	r3, .L33
 4528 40b4 0140A0E1 		ldr	r3, [r3, #20]	@ float
 4529 40b8 0300A0E1 		mov	r0, r3
 4530 40bc 0410A0E1 		bl	__extendsfdf2
 4531 40c0 FEFFFFEB 		mov	r3, r0
 4532 40c4 0030A0E1 		mov	r4, r1
 4533 40c8 0140A0E1 		mov	r0, r3
 4534 40cc 0500A0E1 		mov	r1, r4
 4535 40d0 0610A0E1 		bl	cos
 4536 40d4 0320A0E1 		mov	r3, r0
 4537 40d8 0430A0E1 		mov	r4, r1
 4538 40dc FEFFFFEB 		mov	r0, r5
 4539 40e0 0030A0E1 		mov	r1, r6
 4540 40e4 0140A0E1 		mov	r2, r3
 4541 40e8 0350A0E1 		mov	r3, r4
 4542 40ec 0460A0E1 		bl	__muldf3
 4543 40f0 1C349FE5 		mov	r3, r0
 4544 40f4 103093E5 		mov	r4, r1
 4545 40f8 0300A0E1 		mov	r9, r3
 4546 40fc FEFFFFEB 		mov	sl, r4
 4547 4100 0030A0E1 		ldr	r3, .L33
 4548 4104 0140A0E1 		ldr	r3, [r3, #12]	@ float
 4549 4108 0300A0E1 		mov	r0, r3
 4550 410c 0410A0E1 		bl	__extendsfdf2
 4551 4110 FEFFFFEB 		mov	r3, r0
 4552 4114 0030A0E1 		mov	r4, r1
 4553 4118 0140A0E1 		mov	r0, r3
 4554 411c 0500A0E1 		mov	r1, r4
 4555 4120 0610A0E1 		bl	cos
 4556 4124 0320A0E1 		mov	r5, r0
 4557 4128 0430A0E1 		mov	r6, r1
 4558 412c FEFFFFEB 		ldr	r3, .L33
 4559 4130 0030A0E1 		ldr	r3, [r3, #12]	@ float
 4560 4134 0140A0E1 		mov	r0, r3
 4561 4138 0350A0E1 		bl	__extendsfdf2
 4562 413c 0460A0E1 		mov	r3, r0
 4563 4140 CC339FE5 		mov	r4, r1
 4564 4144 103093E5 		mov	r0, r3
 4565 4148 0300A0E1 		mov	r1, r4
 4566 414c FEFFFFEB 		bl	cos
 4567 4150 0030A0E1 		mov	r3, r0
 4568 4154 0140A0E1 		mov	r4, r1
 4569 4158 0300A0E1 		mov	r0, r5
 4570 415c 0410A0E1 		mov	r1, r6
 4571 4160 FEFFFFEB 		mov	r2, r3
 4572 4164 0030A0E1 		mov	r3, r4
 4573 4168 0140A0E1 		bl	__muldf3
 4574 416c 0500A0E1 		mov	r3, r0
 4575 4170 0610A0E1 		mov	r4, r1
 4576 4174 0320A0E1 		mov	r5, r3
 4577 4178 0430A0E1 		mov	r6, r4
 4578 417c FEFFFFEB 		ldr	r3, .L33
 4579 4180 0030A0E1 		ldr	r3, [r3, #16]	@ float
 4580 4184 0140A0E1 		mov	r0, r3
 4581 4188 0350A0E1 		bl	__extendsfdf2
 4582 418c 0460A0E1 		mov	r3, r0
 4583 4190 7C339FE5 		mov	r4, r1
 4584 4194 143093E5 		mov	r0, r3
 4585 4198 0300A0E1 		mov	r1, r4
 4586 419c FEFFFFEB 		bl	cos
 4587 41a0 0030A0E1 		mov	r3, r0
 4588 41a4 0140A0E1 		mov	r4, r1
 4589 41a8 0300A0E1 		mov	r0, r5
 4590 41ac 0410A0E1 		mov	r1, r6
 4591 41b0 FEFFFFEB 		mov	r2, r3
 4592 41b4 0030A0E1 		mov	r3, r4
 4593 41b8 0140A0E1 		bl	__muldf3
 4594 41bc 0500A0E1 		mov	r3, r0
 4595 41c0 0610A0E1 		mov	r4, r1
 4596 41c4 0320A0E1 		mov	r5, r3
 4597 41c8 0430A0E1 		mov	r6, r4
 4598 41cc FEFFFFEB 		ldr	r3, .L33
 4599 41d0 0030A0E1 		ldr	r3, [r3, #16]	@ float
 4600 41d4 0140A0E1 		mov	r0, r3
 4601 41d8 0350A0E1 		bl	__extendsfdf2
 4602 41dc 0460A0E1 		mov	r3, r0
 4603 41e0 2C339FE5 		mov	r4, r1
 4604 41e4 143093E5 		mov	r0, r3
 4605 41e8 0300A0E1 		mov	r1, r4
 4606 41ec FEFFFFEB 		bl	cos
 4607 41f0 0030A0E1 		mov	r3, r0
 4608 41f4 0140A0E1 		mov	r4, r1
 4609 41f8 0300A0E1 		mov	r0, r5
 4610 41fc 0410A0E1 		mov	r1, r6
 4611 4200 FEFFFFEB 		mov	r2, r3
 4612 4204 0030A0E1 		mov	r3, r4
 4613 4208 0140A0E1 		bl	__muldf3
 4614 420c 0500A0E1 		mov	r3, r0
 4615 4210 0610A0E1 		mov	r4, r1
 4616 4214 0320A0E1 		mov	r5, r3
 4617 4218 0430A0E1 		mov	r6, r4
 4618 421c FEFFFFEB 		ldr	r3, .L33
 4619 4220 0030A0E1 		ldr	r3, [r3, #20]	@ float
 4620 4224 0140A0E1 		mov	r0, r3
 4621 4228 0390A0E1 		bl	__extendsfdf2
 4622 422c 04A0A0E1 		mov	r3, r0
 4623 4230 DC329FE5 		mov	r4, r1
 4624 4234 0C3093E5 		mov	r0, r3
 4625 4238 0300A0E1 		mov	r1, r4
 4626 423c FEFFFFEB 		bl	sin
 4627 4240 0030A0E1 		mov	r3, r0
 4628 4244 0140A0E1 		mov	r4, r1
 4629 4248 0300A0E1 		mov	r0, r5
 4630 424c 0410A0E1 		mov	r1, r6
 4631 4250 FEFFFFEB 		mov	r2, r3
 4632 4254 0050A0E1 		mov	r3, r4
 4633 4258 0160A0E1 		bl	__muldf3
 4634 425c B0329FE5 		mov	r3, r0
 4635 4260 0C3093E5 		mov	r4, r1
 4636 4264 0300A0E1 		mov	r5, r3
 4637 4268 FEFFFFEB 		mov	r6, r4
 4638 426c 0030A0E1 		ldr	r3, .L33
 4639 4270 0140A0E1 		ldr	r3, [r3, #20]	@ float
 4640 4274 0300A0E1 		mov	r0, r3
 4641 4278 0410A0E1 		bl	__extendsfdf2
 4642 427c FEFFFFEB 		mov	r3, r0
 4643 4280 0030A0E1 		mov	r4, r1
 4644 4284 0140A0E1 		mov	r0, r3
 4645 4288 0500A0E1 		mov	r1, r4
 4646 428c 0610A0E1 		bl	sin
 4647 4290 0320A0E1 		mov	r3, r0
 4648 4294 0430A0E1 		mov	r4, r1
 4649 4298 FEFFFFEB 		mov	r0, r5
 4650 429c 0030A0E1 		mov	r1, r6
 4651 42a0 0140A0E1 		mov	r2, r3
 4652 42a4 0350A0E1 		mov	r3, r4
 4653 42a8 0460A0E1 		bl	__muldf3
 4654 42ac 60329FE5 		mov	r3, r0
 4655 42b0 103093E5 		mov	r4, r1
 4656 42b4 0300A0E1 		mov	r0, r9
 4657 42b8 FEFFFFEB 		mov	r1, sl
 4658 42bc 0030A0E1 		mov	r2, r3
 4659 42c0 0140A0E1 		mov	r3, r4
 4660 42c4 0300A0E1 		bl	__adddf3
 4661 42c8 0410A0E1 		mov	r3, r0
 4662 42cc FEFFFFEB 		mov	r4, r1
 4663 42d0 0030A0E1 		mov	r9, r3
 4664 42d4 0140A0E1 		mov	sl, r4
 4665 42d8 0500A0E1 		ldr	r3, .L33
 4666 42dc 0610A0E1 		ldr	r3, [r3, #12]	@ float
 4667 42e0 0320A0E1 		mov	r0, r3
 4668 42e4 0430A0E1 		bl	__extendsfdf2
 4669 42e8 FEFFFFEB 		mov	r3, r0
 4670 42ec 0030A0E1 		mov	r4, r1
 4671 42f0 0140A0E1 		mov	r0, r3
 4672 42f4 0350A0E1 		mov	r1, r4
 4673 42f8 0460A0E1 		bl	cos
 4674 42fc 10329FE5 		mov	r5, r0
 4675 4300 103093E5 		mov	r6, r1
 4676 4304 0300A0E1 		ldr	r3, .L33
 4677 4308 FEFFFFEB 		ldr	r3, [r3, #12]	@ float
 4678 430c 0030A0E1 		mov	r0, r3
 4679 4310 0140A0E1 		bl	__extendsfdf2
 4680 4314 0300A0E1 		mov	r3, r0
 4681 4318 0410A0E1 		mov	r4, r1
 4682 431c FEFFFFEB 		mov	r0, r3
 4683 4320 0030A0E1 		mov	r1, r4
 4684 4324 0140A0E1 		bl	cos
 4685 4328 0500A0E1 		mov	r3, r0
 4686 432c 0610A0E1 		mov	r4, r1
 4687 4330 0320A0E1 		mov	r0, r5
 4688 4334 0430A0E1 		mov	r1, r6
 4689 4338 FEFFFFEB 		mov	r2, r3
 4690 433c 0030A0E1 		mov	r3, r4
 4691 4340 0140A0E1 		bl	__muldf3
 4692 4344 0350A0E1 		mov	r3, r0
 4693 4348 0460A0E1 		mov	r4, r1
 4694 434c C0319FE5 		mov	r5, r3
 4695 4350 143093E5 		mov	r6, r4
 4696 4354 0300A0E1 		ldr	r3, .L33
 4697 4358 FEFFFFEB 		ldr	r3, [r3, #20]	@ float
 4698 435c 0030A0E1 		mov	r0, r3
 4699 4360 0140A0E1 		bl	__extendsfdf2
 4700 4364 0300A0E1 		mov	r3, r0
 4701 4368 0410A0E1 		mov	r4, r1
 4702 436c FEFFFFEB 		mov	r0, r3
 4703 4370 0030A0E1 		mov	r1, r4
 4704 4374 0140A0E1 		bl	cos
 4705 4378 0500A0E1 		mov	r3, r0
 4706 437c 0610A0E1 		mov	r4, r1
 4707 4380 0320A0E1 		mov	r0, r5
 4708 4384 0430A0E1 		mov	r1, r6
 4709 4388 FEFFFFEB 		mov	r2, r3
 4710 438c 0030A0E1 		mov	r3, r4
 4711 4390 0140A0E1 		bl	__muldf3
 4712 4394 0350A0E1 		mov	r3, r0
 4713 4398 0460A0E1 		mov	r4, r1
 4714 439c 70319FE5 		mov	r5, r3
 4715 43a0 143093E5 		mov	r6, r4
 4716 43a4 0300A0E1 		ldr	r3, .L33
 4717 43a8 FEFFFFEB 		ldr	r3, [r3, #20]	@ float
 4718 43ac 0030A0E1 		mov	r0, r3
 4719 43b0 0140A0E1 		bl	__extendsfdf2
 4720 43b4 0300A0E1 		mov	r3, r0
 4721 43b8 0410A0E1 		mov	r4, r1
 4722 43bc FEFFFFEB 		mov	r0, r3
 4723 43c0 0030A0E1 		mov	r1, r4
 4724 43c4 0140A0E1 		bl	cos
 4725 43c8 0500A0E1 		mov	r3, r0
 4726 43cc 0610A0E1 		mov	r4, r1
 4727 43d0 0320A0E1 		mov	r0, r5
 4728 43d4 0430A0E1 		mov	r1, r6
 4729 43d8 FEFFFFEB 		mov	r2, r3
 4730 43dc 0030A0E1 		mov	r3, r4
 4731 43e0 0140A0E1 		b	.L34
 4732 43e4 0900A0E1 	.L35:
 4733 43e8 0A10A0E1 		.align	2
 4734 43ec 0320A0E1 	.L33:
 4735 43f0 0430A0E1 		.word	xd
 4736 43f4 FEFFFFEB 		.word	xd
 4737 43f8 0030A0E1 	.L34:
 4738 43fc 0140A0E1 		bl	__muldf3
 4739 4400 0390A0E1 		mov	r3, r0
 4740 4404 04A0A0E1 		mov	r4, r1
 4741 4408 04319FE5 		mov	r5, r3
 4742 440c 0C3093E5 		mov	r6, r4
 4743 4410 0300A0E1 		ldr	r3, .L33+4
 4744 4414 FEFFFFEB 		ldr	r3, [r3, #16]	@ float
 4745 4418 0030A0E1 		mov	r0, r3
 4746 441c 0140A0E1 		bl	__extendsfdf2
 4747 4420 0300A0E1 		mov	r3, r0
 4748 4424 0410A0E1 		mov	r4, r1
 4749 4428 FEFFFFEB 		mov	r0, r3
 4750 442c 0050A0E1 		mov	r1, r4
 4751 4430 0160A0E1 		bl	sin
 4752 4434 D8309FE5 		mov	r3, r0
 4753 4438 0C3093E5 		mov	r4, r1
 4754 443c 0300A0E1 		mov	r0, r5
 4755 4440 FEFFFFEB 		mov	r1, r6
 4756 4444 0030A0E1 		mov	r2, r3
 4757 4448 0140A0E1 		mov	r3, r4
 4758 444c 0300A0E1 		bl	__muldf3
 4759 4450 0410A0E1 		mov	r3, r0
 4760 4454 FEFFFFEB 		mov	r4, r1
 4761 4458 0030A0E1 		mov	r5, r3
 4762 445c 0140A0E1 		mov	r6, r4
 4763 4460 0500A0E1 		ldr	r3, .L33+4
 4764 4464 0610A0E1 		ldr	r3, [r3, #16]	@ float
 4765 4468 0320A0E1 		mov	r0, r3
 4766 446c 0430A0E1 		bl	__extendsfdf2
 4767 4470 FEFFFFEB 		mov	r3, r0
 4768 4474 0030A0E1 		mov	r4, r1
 4769 4478 0140A0E1 		mov	r0, r3
 4770 447c 0350A0E1 		mov	r1, r4
 4771 4480 0460A0E1 		bl	sin
 4772 4484 88309FE5 		mov	r3, r0
 4773 4488 143093E5 		mov	r4, r1
 4774 448c 0300A0E1 		mov	r0, r5
 4775 4490 FEFFFFEB 		mov	r1, r6
 4776 4494 0030A0E1 		mov	r2, r3
 4777 4498 0140A0E1 		mov	r3, r4
 4778 449c 0300A0E1 		bl	__muldf3
 4779 44a0 0410A0E1 		mov	r3, r0
 4780 44a4 FEFFFFEB 		mov	r4, r1
 4781 44a8 0030A0E1 		mov	r0, r9
 4782 44ac 0140A0E1 		mov	r1, sl
 4783 44b0 0500A0E1 		mov	r2, r3
 4784 44b4 0610A0E1 		mov	r3, r4
 4785 44b8 0320A0E1 		bl	__adddf3
 4786 44bc 0430A0E1 		mov	r3, r0
 4787 44c0 FEFFFFEB 		mov	r4, r1
 4788 44c4 0030A0E1 		mov	r9, r3
 4789 44c8 0140A0E1 		mov	sl, r4
 4790 44cc 0350A0E1 		ldr	r3, .L33+4
 4791 44d0 0460A0E1 		ldr	r3, [r3, #12]	@ float
 4792 44d4 38309FE5 		mov	r0, r3
 4793 44d8 143093E5 		bl	__extendsfdf2
 4794 44dc 0300A0E1 		mov	r3, r0
 4795 44e0 FEFFFFEB 		mov	r4, r1
 4796 44e4 0030A0E1 		mov	r0, r3
 4797 44e8 0140A0E1 		mov	r1, r4
 4798 44ec 0300A0E1 		bl	cos
 4799 44f0 0410A0E1 		mov	r5, r0
 4800 44f4 FEFFFFEB 		mov	r6, r1
 4801 44f8 0030A0E1 		ldr	r3, .L33+4
 4802 44fc 0140A0E1 		ldr	r3, [r3, #12]	@ float
 4803 4500 0500A0E1 		mov	r0, r3
 4804 4504 0610A0E1 		bl	__extendsfdf2
 4805 4508 0320A0E1 		mov	r3, r0
 4806 450c 0430A0E1 		mov	r4, r1
 4807 4510 010000EA 		mov	r0, r3
 4808              		mov	r1, r4
 4809              		bl	cos
 4810              		mov	r3, r0
 4811 4514 00000000 		mov	r4, r1
 4812 4518 00000000 		mov	r0, r5
 4813              		mov	r1, r6
 4814 451c FEFFFFEB 		mov	r2, r3
 4815 4520 0030A0E1 		mov	r3, r4
 4816 4524 0140A0E1 		bl	__muldf3
 4817 4528 0350A0E1 		mov	r3, r0
 4818 452c 0460A0E1 		mov	r4, r1
 4819 4530 20301FE5 		mov	r5, r3
 4820 4534 103093E5 		mov	r6, r4
 4821 4538 0300A0E1 		ldr	r3, .L33+4
 4822 453c FEFFFFEB 		ldr	r3, [r3, #16]	@ float
 4823 4540 0030A0E1 		mov	r0, r3
 4824 4544 0140A0E1 		bl	__extendsfdf2
 4825 4548 0300A0E1 		mov	r3, r0
 4826 454c 0410A0E1 		mov	r4, r1
 4827 4550 FEFFFFEB 		mov	r0, r3
 4828 4554 0030A0E1 		mov	r1, r4
 4829 4558 0140A0E1 		bl	sin
 4830 455c 0500A0E1 		mov	r3, r0
 4831 4560 0610A0E1 		mov	r4, r1
 4832 4564 0320A0E1 		mov	r0, r5
 4833 4568 0430A0E1 		mov	r1, r6
 4834 456c FEFFFFEB 		mov	r2, r3
 4835 4570 0030A0E1 		mov	r3, r4
 4836 4574 0140A0E1 		bl	__muldf3
 4837 4578 0350A0E1 		mov	r3, r0
 4838 457c 0460A0E1 		mov	r4, r1
 4839 4580 70301FE5 		mov	r5, r3
 4840 4584 103093E5 		mov	r6, r4
 4841 4588 0300A0E1 		ldr	r3, .L33+4
 4842 458c FEFFFFEB 		ldr	r3, [r3, #16]	@ float
 4843 4590 0030A0E1 		mov	r0, r3
 4844 4594 0140A0E1 		bl	__extendsfdf2
 4845 4598 0300A0E1 		mov	r3, r0
 4846 459c 0410A0E1 		mov	r4, r1
 4847 45a0 FEFFFFEB 		mov	r0, r3
 4848 45a4 0030A0E1 		mov	r1, r4
 4849 45a8 0140A0E1 		bl	sin
 4850 45ac 0500A0E1 		mov	r3, r0
 4851 45b0 0610A0E1 		mov	r4, r1
 4852 45b4 0320A0E1 		mov	r0, r5
 4853 45b8 0430A0E1 		mov	r1, r6
 4854 45bc FEFFFFEB 		mov	r2, r3
 4855 45c0 0030A0E1 		mov	r3, r4
 4856 45c4 0140A0E1 		bl	__muldf3
 4857 45c8 0900A0E1 		mov	r3, r0
 4858 45cc 0A10A0E1 		mov	r4, r1
 4859 45d0 0320A0E1 		mov	r5, r3
 4860 45d4 0430A0E1 		mov	r6, r4
 4861 45d8 FEFFFFEB 		ldr	r3, .L33+4
 4862 45dc 0030A0E1 		ldr	r3, [r3, #20]	@ float
 4863 45e0 0140A0E1 		mov	r0, r3
 4864 45e4 0390A0E1 		bl	__extendsfdf2
 4865 45e8 04A0A0E1 		mov	r3, r0
 4866 45ec DC301FE5 		mov	r4, r1
 4867 45f0 0C3093E5 		mov	r0, r3
 4868 45f4 0300A0E1 		mov	r1, r4
 4869 45f8 FEFFFFEB 		bl	sin
 4870 45fc 0030A0E1 		mov	r3, r0
 4871 4600 0140A0E1 		mov	r4, r1
 4872 4604 0300A0E1 		mov	r0, r5
 4873 4608 0410A0E1 		mov	r1, r6
 4874 460c FEFFFFEB 		mov	r2, r3
 4875 4610 0050A0E1 		mov	r3, r4
 4876 4614 0160A0E1 		bl	__muldf3
 4877 4618 08311FE5 		mov	r3, r0
 4878 461c 0C3093E5 		mov	r4, r1
 4879 4620 0300A0E1 		mov	r5, r3
 4880 4624 FEFFFFEB 		mov	r6, r4
 4881 4628 0030A0E1 		ldr	r3, .L33+4
 4882 462c 0140A0E1 		ldr	r3, [r3, #20]	@ float
 4883 4630 0300A0E1 		mov	r0, r3
 4884 4634 0410A0E1 		bl	__extendsfdf2
 4885 4638 FEFFFFEB 		mov	r3, r0
 4886 463c 0030A0E1 		mov	r4, r1
 4887 4640 0140A0E1 		mov	r0, r3
 4888 4644 0500A0E1 		mov	r1, r4
 4889 4648 0610A0E1 		bl	sin
 4890 464c 0320A0E1 		mov	r3, r0
 4891 4650 0430A0E1 		mov	r4, r1
 4892 4654 FEFFFFEB 		mov	r0, r5
 4893 4658 0030A0E1 		mov	r1, r6
 4894 465c 0140A0E1 		mov	r2, r3
 4895 4660 0350A0E1 		mov	r3, r4
 4896 4664 0460A0E1 		bl	__muldf3
 4897 4668 58311FE5 		mov	r3, r0
 4898 466c 103093E5 		mov	r4, r1
 4899 4670 0300A0E1 		mov	r0, r9
 4900 4674 FEFFFFEB 		mov	r1, sl
 4901 4678 0030A0E1 		mov	r2, r3
 4902 467c 0140A0E1 		mov	r3, r4
 4903 4680 0300A0E1 		bl	__adddf3
 4904 4684 0410A0E1 		mov	r3, r0
 4905 4688 FEFFFFEB 		mov	r4, r1
 4906 468c 0030A0E1 		mov	r9, r3
 4907 4690 0140A0E1 		mov	sl, r4
 4908 4694 0500A0E1 		ldr	r3, .L33+4
 4909 4698 0610A0E1 		ldr	r3, [r3, #16]	@ float
 4910 469c 0320A0E1 		mov	r0, r3
 4911 46a0 0430A0E1 		bl	__extendsfdf2
 4912 46a4 FEFFFFEB 		mov	r3, r0
 4913 46a8 0030A0E1 		mov	r4, r1
 4914 46ac 0140A0E1 		mov	r0, r3
 4915 46b0 0350A0E1 		mov	r1, r4
 4916 46b4 0460A0E1 		bl	cos
 4917 46b8 A8311FE5 		mov	r5, r0
 4918 46bc 103093E5 		mov	r6, r1
 4919 46c0 0300A0E1 		ldr	r3, .L33+4
 4920 46c4 FEFFFFEB 		ldr	r3, [r3, #16]	@ float
 4921 46c8 0030A0E1 		mov	r0, r3
 4922 46cc 0140A0E1 		bl	__extendsfdf2
 4923 46d0 0300A0E1 		mov	r3, r0
 4924 46d4 0410A0E1 		mov	r4, r1
 4925 46d8 FEFFFFEB 		mov	r0, r3
 4926 46dc 0030A0E1 		mov	r1, r4
 4927 46e0 0140A0E1 		bl	cos
 4928 46e4 0500A0E1 		mov	r3, r0
 4929 46e8 0610A0E1 		mov	r4, r1
 4930 46ec 0320A0E1 		mov	r0, r5
 4931 46f0 0430A0E1 		mov	r1, r6
 4932 46f4 FEFFFFEB 		mov	r2, r3
 4933 46f8 0030A0E1 		mov	r3, r4
 4934 46fc 0140A0E1 		bl	__muldf3
 4935 4700 0350A0E1 		mov	r3, r0
 4936 4704 0460A0E1 		mov	r4, r1
 4937 4708 F8311FE5 		mov	r5, r3
 4938 470c 143093E5 		mov	r6, r4
 4939 4710 0300A0E1 		ldr	r3, .L33+4
 4940 4714 FEFFFFEB 		ldr	r3, [r3, #20]	@ float
 4941 4718 0030A0E1 		mov	r0, r3
 4942 471c 0140A0E1 		bl	__extendsfdf2
 4943 4720 0300A0E1 		mov	r3, r0
 4944 4724 0410A0E1 		mov	r4, r1
 4945 4728 FEFFFFEB 		mov	r0, r3
 4946 472c 0030A0E1 		mov	r1, r4
 4947 4730 0140A0E1 		bl	cos
 4948 4734 0500A0E1 		mov	r3, r0
 4949 4738 0610A0E1 		mov	r4, r1
 4950 473c 0320A0E1 		mov	r0, r5
 4951 4740 0430A0E1 		mov	r1, r6
 4952 4744 FEFFFFEB 		mov	r2, r3
 4953 4748 0030A0E1 		mov	r3, r4
 4954 474c 0140A0E1 		bl	__muldf3
 4955 4750 0350A0E1 		mov	r3, r0
 4956 4754 0460A0E1 		mov	r4, r1
 4957 4758 48321FE5 		mov	r5, r3
 4958 475c 143093E5 		mov	r6, r4
 4959 4760 0300A0E1 		ldr	r3, .L33+4
 4960 4764 FEFFFFEB 		ldr	r3, [r3, #20]	@ float
 4961 4768 0030A0E1 		mov	r0, r3
 4962 476c 0140A0E1 		bl	__extendsfdf2
 4963 4770 0300A0E1 		mov	r3, r0
 4964 4774 0410A0E1 		mov	r4, r1
 4965 4778 FEFFFFEB 		mov	r0, r3
 4966 477c 0030A0E1 		mov	r1, r4
 4967 4780 0140A0E1 		bl	cos
 4968 4784 0500A0E1 		mov	r3, r0
 4969 4788 0610A0E1 		mov	r4, r1
 4970 478c 0320A0E1 		mov	r0, r5
 4971 4790 0430A0E1 		mov	r1, r6
 4972 4794 FEFFFFEB 		mov	r2, r3
 4973 4798 0030A0E1 		mov	r3, r4
 4974 479c 0140A0E1 		bl	__muldf3
 4975 47a0 0900A0E1 		mov	r3, r0
 4976 47a4 0A10A0E1 		mov	r4, r1
 4977 47a8 0320A0E1 		mov	r5, r3
 4978 47ac 0430A0E1 		mov	r6, r4
 4979 47b0 FEFFFFEB 		ldr	r3, .L33+4
 4980 47b4 0030A0E1 		ldr	r3, [r3, #12]	@ float
 4981 47b8 0140A0E1 		mov	r0, r3
 4982 47bc 0390A0E1 		bl	__extendsfdf2
 4983 47c0 04A0A0E1 		mov	r3, r0
 4984 47c4 B4321FE5 		mov	r4, r1
 4985 47c8 103093E5 		mov	r0, r3
 4986 47cc 0300A0E1 		mov	r1, r4
 4987 47d0 FEFFFFEB 		bl	sin
 4988 47d4 0030A0E1 		mov	r3, r0
 4989 47d8 0140A0E1 		mov	r4, r1
 4990 47dc 0300A0E1 		mov	r0, r5
 4991 47e0 0410A0E1 		mov	r1, r6
 4992 47e4 FEFFFFEB 		mov	r2, r3
 4993 47e8 0050A0E1 		mov	r3, r4
 4994 47ec 0160A0E1 		bl	__muldf3
 4995 47f0 E0321FE5 		mov	r3, r0
 4996 47f4 103093E5 		mov	r4, r1
 4997 47f8 0300A0E1 		mov	r5, r3
 4998 47fc FEFFFFEB 		mov	r6, r4
 4999 4800 0030A0E1 		ldr	r3, .L33+4
 5000 4804 0140A0E1 		ldr	r3, [r3, #12]	@ float
 5001 4808 0300A0E1 		mov	r0, r3
 5002 480c 0410A0E1 		bl	__extendsfdf2
 5003 4810 FEFFFFEB 		mov	r3, r0
 5004 4814 0030A0E1 		mov	r4, r1
 5005 4818 0140A0E1 		mov	r0, r3
 5006 481c 0500A0E1 		mov	r1, r4
 5007 4820 0610A0E1 		bl	sin
 5008 4824 0320A0E1 		mov	r3, r0
 5009 4828 0430A0E1 		mov	r4, r1
 5010 482c FEFFFFEB 		mov	r0, r5
 5011 4830 0030A0E1 		mov	r1, r6
 5012 4834 0140A0E1 		mov	r2, r3
 5013 4838 0350A0E1 		mov	r3, r4
 5014 483c 0460A0E1 		bl	__muldf3
 5015 4840 30331FE5 		mov	r3, r0
 5016 4844 143093E5 		mov	r4, r1
 5017 4848 0300A0E1 		mov	r0, r9
 5018 484c FEFFFFEB 		mov	r1, sl
 5019 4850 0030A0E1 		mov	r2, r3
 5020 4854 0140A0E1 		mov	r3, r4
 5021 4858 0300A0E1 		bl	__adddf3
 5022 485c 0410A0E1 		mov	r3, r0
 5023 4860 FEFFFFEB 		mov	r4, r1
 5024 4864 0030A0E1 		mov	r9, r3
 5025 4868 0140A0E1 		mov	sl, r4
 5026 486c 0500A0E1 		ldr	r3, .L33+4
 5027 4870 0610A0E1 		ldr	r3, [r3, #16]	@ float
 5028 4874 0320A0E1 		mov	r0, r3
 5029 4878 0430A0E1 		bl	__extendsfdf2
 5030 487c FEFFFFEB 		mov	r3, r0
 5031 4880 0030A0E1 		mov	r4, r1
 5032 4884 0140A0E1 		mov	r0, r3
 5033 4888 0350A0E1 		mov	r1, r4
 5034 488c 0460A0E1 		bl	cos
 5035 4890 80331FE5 		mov	r5, r0
 5036 4894 143093E5 		mov	r6, r1
 5037 4898 0300A0E1 		ldr	r3, .L33+4
 5038 489c FEFFFFEB 		ldr	r3, [r3, #16]	@ float
 5039 48a0 0030A0E1 		mov	r0, r3
 5040 48a4 0140A0E1 		bl	__extendsfdf2
 5041 48a8 0300A0E1 		mov	r3, r0
 5042 48ac 0410A0E1 		mov	r4, r1
 5043 48b0 FEFFFFEB 		mov	r0, r3
 5044 48b4 0030A0E1 		mov	r1, r4
 5045 48b8 0140A0E1 		bl	cos
 5046 48bc 0500A0E1 		mov	r3, r0
 5047 48c0 0610A0E1 		mov	r4, r1
 5048 48c4 0320A0E1 		mov	r0, r5
 5049 48c8 0430A0E1 		mov	r1, r6
 5050 48cc FEFFFFEB 		mov	r2, r3
 5051 48d0 0030A0E1 		mov	r3, r4
 5052 48d4 0140A0E1 		bl	__muldf3
 5053 48d8 0350A0E1 		mov	r3, r0
 5054 48dc 0460A0E1 		mov	r4, r1
 5055 48e0 D0331FE5 		mov	r5, r3
 5056 48e4 0C3093E5 		mov	r6, r4
 5057 48e8 0300A0E1 		ldr	r3, .L33+4
 5058 48ec FEFFFFEB 		ldr	r3, [r3, #12]	@ float
 5059 48f0 0030A0E1 		mov	r0, r3
 5060 48f4 0140A0E1 		bl	__extendsfdf2
 5061 48f8 0300A0E1 		mov	r3, r0
 5062 48fc 0410A0E1 		mov	r4, r1
 5063 4900 FEFFFFEB 		mov	r0, r3
 5064 4904 0030A0E1 		mov	r1, r4
 5065 4908 0140A0E1 		bl	sin
 5066 490c 0500A0E1 		mov	r3, r0
 5067 4910 0610A0E1 		mov	r4, r1
 5068 4914 0320A0E1 		mov	r0, r5
 5069 4918 0430A0E1 		mov	r1, r6
 5070 491c FEFFFFEB 		mov	r2, r3
 5071 4920 0030A0E1 		mov	r3, r4
 5072 4924 0140A0E1 		bl	__muldf3
 5073 4928 0350A0E1 		mov	r3, r0
 5074 492c 0460A0E1 		mov	r4, r1
 5075 4930 20341FE5 		mov	r5, r3
 5076 4934 0C3093E5 		mov	r6, r4
 5077 4938 0300A0E1 		ldr	r3, .L33+4
 5078 493c FEFFFFEB 		ldr	r3, [r3, #12]	@ float
 5079 4940 0030A0E1 		mov	r0, r3
 5080 4944 0140A0E1 		bl	__extendsfdf2
 5081 4948 0300A0E1 		mov	r3, r0
 5082 494c 0410A0E1 		mov	r4, r1
 5083 4950 FEFFFFEB 		mov	r0, r3
 5084 4954 0030A0E1 		mov	r1, r4
 5085 4958 0140A0E1 		bl	sin
 5086 495c 0500A0E1 		mov	r3, r0
 5087 4960 0610A0E1 		mov	r4, r1
 5088 4964 0320A0E1 		mov	r0, r5
 5089 4968 0430A0E1 		mov	r1, r6
 5090 496c FEFFFFEB 		mov	r2, r3
 5091 4970 0030A0E1 		mov	r3, r4
 5092 4974 0140A0E1 		bl	__muldf3
 5093 4978 0900A0E1 		mov	r3, r0
 5094 497c 0A10A0E1 		mov	r4, r1
 5095 4980 0320A0E1 		mov	r5, r3
 5096 4984 0430A0E1 		mov	r6, r4
 5097 4988 FEFFFFEB 		ldr	r3, .L33+4
 5098 498c 0030A0E1 		ldr	r3, [r3, #20]	@ float
 5099 4990 0140A0E1 		mov	r0, r3
 5100 4994 0390A0E1 		bl	__extendsfdf2
 5101 4998 04A0A0E1 		mov	r3, r0
 5102 499c 8C341FE5 		mov	r4, r1
 5103 49a0 103093E5 		mov	r0, r3
 5104 49a4 0300A0E1 		mov	r1, r4
 5105 49a8 FEFFFFEB 		bl	sin
 5106 49ac 0030A0E1 		mov	r3, r0
 5107 49b0 0140A0E1 		mov	r4, r1
 5108 49b4 0300A0E1 		mov	r0, r5
 5109 49b8 0410A0E1 		mov	r1, r6
 5110 49bc FEFFFFEB 		mov	r2, r3
 5111 49c0 0050A0E1 		mov	r3, r4
 5112 49c4 0160A0E1 		bl	__muldf3
 5113 49c8 B8341FE5 		mov	r3, r0
 5114 49cc 103093E5 		mov	r4, r1
 5115 49d0 0300A0E1 		mov	r5, r3
 5116 49d4 FEFFFFEB 		mov	r6, r4
 5117 49d8 0030A0E1 		ldr	r3, .L33+4
 5118 49dc 0140A0E1 		ldr	r3, [r3, #20]	@ float
 5119 49e0 0300A0E1 		mov	r0, r3
 5120 49e4 0410A0E1 		bl	__extendsfdf2
 5121 49e8 FEFFFFEB 		mov	r3, r0
 5122 49ec 0030A0E1 		mov	r4, r1
 5123 49f0 0140A0E1 		mov	r0, r3
 5124 49f4 0500A0E1 		mov	r1, r4
 5125 49f8 0610A0E1 		bl	sin
 5126 49fc 0320A0E1 		mov	r3, r0
 5127 4a00 0430A0E1 		mov	r4, r1
 5128 4a04 FEFFFFEB 		mov	r0, r5
 5129 4a08 0030A0E1 		mov	r1, r6
 5130 4a0c 0140A0E1 		mov	r2, r3
 5131 4a10 0350A0E1 		mov	r3, r4
 5132 4a14 0460A0E1 		bl	__muldf3
 5133 4a18 08351FE5 		mov	r3, r0
 5134 4a1c 0C3093E5 		mov	r4, r1
 5135 4a20 0300A0E1 		mov	r0, r9
 5136 4a24 FEFFFFEB 		mov	r1, sl
 5137 4a28 0030A0E1 		mov	r2, r3
 5138 4a2c 0140A0E1 		mov	r3, r4
 5139 4a30 0300A0E1 		bl	__adddf3
 5140 4a34 0410A0E1 		mov	r3, r0
 5141 4a38 FEFFFFEB 		mov	r4, r1
 5142 4a3c 0030A0E1 		mov	r9, r3
 5143 4a40 0140A0E1 		mov	sl, r4
 5144 4a44 0500A0E1 		ldr	r3, .L33+4
 5145 4a48 0610A0E1 		ldr	r3, [r3, #20]	@ float
 5146 4a4c 0320A0E1 		mov	r0, r3
 5147 4a50 0430A0E1 		bl	__extendsfdf2
 5148 4a54 FEFFFFEB 		mov	r3, r0
 5149 4a58 0030A0E1 		mov	r4, r1
 5150 4a5c 0140A0E1 		mov	r0, r3
 5151 4a60 0350A0E1 		mov	r1, r4
 5152 4a64 0460A0E1 		bl	cos
 5153 4a68 58351FE5 		mov	r5, r0
 5154 4a6c 0C3093E5 		mov	r6, r1
 5155 4a70 0300A0E1 		ldr	r3, .L33+4
 5156 4a74 FEFFFFEB 		ldr	r3, [r3, #20]	@ float
 5157 4a78 0030A0E1 		mov	r0, r3
 5158 4a7c 0140A0E1 		bl	__extendsfdf2
 5159 4a80 0300A0E1 		mov	r3, r0
 5160 4a84 0410A0E1 		mov	r4, r1
 5161 4a88 FEFFFFEB 		mov	r0, r3
 5162 4a8c 0030A0E1 		mov	r1, r4
 5163 4a90 0140A0E1 		bl	cos
 5164 4a94 0500A0E1 		mov	r3, r0
 5165 4a98 0610A0E1 		mov	r4, r1
 5166 4a9c 0320A0E1 		mov	r0, r5
 5167 4aa0 0430A0E1 		mov	r1, r6
 5168 4aa4 FEFFFFEB 		mov	r2, r3
 5169 4aa8 0030A0E1 		mov	r3, r4
 5170 4aac 0140A0E1 		bl	__muldf3
 5171 4ab0 0350A0E1 		mov	r3, r0
 5172 4ab4 0460A0E1 		mov	r4, r1
 5173 4ab8 A8351FE5 		mov	r5, r3
 5174 4abc 143093E5 		mov	r6, r4
 5175 4ac0 0300A0E1 		ldr	r3, .L33+4
 5176 4ac4 FEFFFFEB 		ldr	r3, [r3, #12]	@ float
 5177 4ac8 0030A0E1 		mov	r0, r3
 5178 4acc 0140A0E1 		bl	__extendsfdf2
 5179 4ad0 0300A0E1 		mov	r3, r0
 5180 4ad4 0410A0E1 		mov	r4, r1
 5181 4ad8 FEFFFFEB 		mov	r0, r3
 5182 4adc 0030A0E1 		mov	r1, r4
 5183 4ae0 0140A0E1 		bl	sin
 5184 4ae4 0500A0E1 		mov	r3, r0
 5185 4ae8 0610A0E1 		mov	r4, r1
 5186 4aec 0320A0E1 		mov	r0, r5
 5187 4af0 0430A0E1 		mov	r1, r6
 5188 4af4 FEFFFFEB 		mov	r2, r3
 5189 4af8 0030A0E1 		mov	r3, r4
 5190 4afc 0140A0E1 		bl	__muldf3
 5191 4b00 0350A0E1 		mov	r3, r0
 5192 4b04 0460A0E1 		mov	r4, r1
 5193 4b08 F8351FE5 		mov	r5, r3
 5194 4b0c 143093E5 		mov	r6, r4
 5195 4b10 0300A0E1 		ldr	r3, .L33+4
 5196 4b14 FEFFFFEB 		ldr	r3, [r3, #12]	@ float
 5197 4b18 0030A0E1 		mov	r0, r3
 5198 4b1c 0140A0E1 		bl	__extendsfdf2
 5199 4b20 0300A0E1 		mov	r3, r0
 5200 4b24 0410A0E1 		mov	r4, r1
 5201 4b28 FEFFFFEB 		mov	r0, r3
 5202 4b2c 0030A0E1 		mov	r1, r4
 5203 4b30 0140A0E1 		bl	sin
 5204 4b34 0500A0E1 		mov	r3, r0
 5205 4b38 0610A0E1 		mov	r4, r1
 5206 4b3c 0320A0E1 		mov	r0, r5
 5207 4b40 0430A0E1 		mov	r1, r6
 5208 4b44 FEFFFFEB 		mov	r2, r3
 5209 4b48 0030A0E1 		mov	r3, r4
 5210 4b4c 0140A0E1 		bl	__muldf3
 5211 4b50 0900A0E1 		mov	r3, r0
 5212 4b54 0A10A0E1 		mov	r4, r1
 5213 4b58 0320A0E1 		mov	r5, r3
 5214 4b5c 0430A0E1 		mov	r6, r4
 5215 4b60 FEFFFFEB 		ldr	r3, .L33+4
 5216 4b64 0030A0E1 		ldr	r3, [r3, #16]	@ float
 5217 4b68 0140A0E1 		mov	r0, r3
 5218 4b6c 0390A0E1 		bl	__extendsfdf2
 5219 4b70 04A0A0E1 		mov	r3, r0
 5220 4b74 64361FE5 		mov	r4, r1
 5221 4b78 143093E5 		mov	r0, r3
 5222 4b7c 0300A0E1 		mov	r1, r4
 5223 4b80 FEFFFFEB 		bl	sin
 5224 4b84 0030A0E1 		mov	r3, r0
 5225 4b88 0140A0E1 		mov	r4, r1
 5226 4b8c 0300A0E1 		mov	r0, r5
 5227 4b90 0410A0E1 		mov	r1, r6
 5228 4b94 FEFFFFEB 		mov	r2, r3
 5229 4b98 0050A0E1 		mov	r3, r4
 5230 4b9c 0160A0E1 		bl	__muldf3
 5231 4ba0 90361FE5 		mov	r3, r0
 5232 4ba4 143093E5 		mov	r4, r1
 5233 4ba8 0300A0E1 		mov	r5, r3
 5234 4bac FEFFFFEB 		mov	r6, r4
 5235 4bb0 0030A0E1 		ldr	r3, .L33+4
 5236 4bb4 0140A0E1 		ldr	r3, [r3, #16]	@ float
 5237 4bb8 0300A0E1 		mov	r0, r3
 5238 4bbc 0410A0E1 		bl	__extendsfdf2
 5239 4bc0 FEFFFFEB 		mov	r3, r0
 5240 4bc4 0030A0E1 		mov	r4, r1
 5241 4bc8 0140A0E1 		mov	r0, r3
 5242 4bcc 0500A0E1 		mov	r1, r4
 5243 4bd0 0610A0E1 		bl	sin
 5244 4bd4 0320A0E1 		mov	r3, r0
 5245 4bd8 0430A0E1 		mov	r4, r1
 5246 4bdc FEFFFFEB 		mov	r0, r5
 5247 4be0 0030A0E1 		mov	r1, r6
 5248 4be4 0140A0E1 		mov	r2, r3
 5249 4be8 0350A0E1 		mov	r3, r4
 5250 4bec 0460A0E1 		bl	__muldf3
 5251 4bf0 E0361FE5 		mov	r3, r0
 5252 4bf4 0C3093E5 		mov	r4, r1
 5253 4bf8 0300A0E1 		mov	r0, r9
 5254 4bfc FEFFFFEB 		mov	r1, sl
 5255 4c00 0030A0E1 		mov	r2, r3
 5256 4c04 0140A0E1 		mov	r3, r4
 5257 4c08 0300A0E1 		bl	__adddf3
 5258 4c0c 0410A0E1 		mov	r3, r0
 5259 4c10 FEFFFFEB 		mov	r4, r1
 5260 4c14 0030A0E1 		mov	r9, r3
 5261 4c18 0140A0E1 		mov	sl, r4
 5262 4c1c 0500A0E1 		ldr	r3, .L33+4
 5263 4c20 0610A0E1 		ldr	r3, [r3, #12]	@ float
 5264 4c24 0320A0E1 		mov	r0, r3
 5265 4c28 0430A0E1 		bl	__extendsfdf2
 5266 4c2c FEFFFFEB 		mov	r3, r0
 5267 4c30 0030A0E1 		mov	r4, r1
 5268 4c34 0140A0E1 		mov	r0, r3
 5269 4c38 0350A0E1 		mov	r1, r4
 5270 4c3c 0460A0E1 		bl	sin
 5271 4c40 30371FE5 		mov	r5, r0
 5272 4c44 0C3093E5 		mov	r6, r1
 5273 4c48 0300A0E1 		ldr	r3, .L33+4
 5274 4c4c FEFFFFEB 		ldr	r3, [r3, #12]	@ float
 5275 4c50 0030A0E1 		mov	r0, r3
 5276 4c54 0140A0E1 		bl	__extendsfdf2
 5277 4c58 0300A0E1 		mov	r3, r0
 5278 4c5c 0410A0E1 		mov	r4, r1
 5279 4c60 FEFFFFEB 		mov	r0, r3
 5280 4c64 0030A0E1 		mov	r1, r4
 5281 4c68 0140A0E1 		bl	sin
 5282 4c6c 0500A0E1 		mov	r3, r0
 5283 4c70 0610A0E1 		mov	r4, r1
 5284 4c74 0320A0E1 		mov	r0, r5
 5285 4c78 0430A0E1 		mov	r1, r6
 5286 4c7c FEFFFFEB 		mov	r2, r3
 5287 4c80 0030A0E1 		mov	r3, r4
 5288 4c84 0140A0E1 		bl	__muldf3
 5289 4c88 0350A0E1 		mov	r3, r0
 5290 4c8c 0460A0E1 		mov	r4, r1
 5291 4c90 80371FE5 		mov	r5, r3
 5292 4c94 103093E5 		mov	r6, r4
 5293 4c98 0300A0E1 		ldr	r3, .L33+4
 5294 4c9c FEFFFFEB 		ldr	r3, [r3, #16]	@ float
 5295 4ca0 0030A0E1 		mov	r0, r3
 5296 4ca4 0140A0E1 		bl	__extendsfdf2
 5297 4ca8 0300A0E1 		mov	r3, r0
 5298 4cac 0410A0E1 		mov	r4, r1
 5299 4cb0 FEFFFFEB 		mov	r0, r3
 5300 4cb4 0030A0E1 		mov	r1, r4
 5301 4cb8 0140A0E1 		bl	sin
 5302 4cbc 0500A0E1 		mov	r3, r0
 5303 4cc0 0610A0E1 		mov	r4, r1
 5304 4cc4 0320A0E1 		mov	r0, r5
 5305 4cc8 0430A0E1 		mov	r1, r6
 5306 4ccc FEFFFFEB 		mov	r2, r3
 5307 4cd0 0030A0E1 		mov	r3, r4
 5308 4cd4 0140A0E1 		bl	__muldf3
 5309 4cd8 0350A0E1 		mov	r3, r0
 5310 4cdc 0460A0E1 		mov	r4, r1
 5311 4ce0 D0371FE5 		mov	r5, r3
 5312 4ce4 103093E5 		mov	r6, r4
 5313 4ce8 0300A0E1 		ldr	r3, .L33+4
 5314 4cec FEFFFFEB 		ldr	r3, [r3, #16]	@ float
 5315 4cf0 0030A0E1 		mov	r0, r3
 5316 4cf4 0140A0E1 		bl	__extendsfdf2
 5317 4cf8 0300A0E1 		mov	r3, r0
 5318 4cfc 0410A0E1 		mov	r4, r1
 5319 4d00 FEFFFFEB 		mov	r0, r3
 5320 4d04 0030A0E1 		mov	r1, r4
 5321 4d08 0140A0E1 		bl	sin
 5322 4d0c 0500A0E1 		mov	r3, r0
 5323 4d10 0610A0E1 		mov	r4, r1
 5324 4d14 0320A0E1 		mov	r0, r5
 5325 4d18 0430A0E1 		mov	r1, r6
 5326 4d1c FEFFFFEB 		mov	r2, r3
 5327 4d20 0030A0E1 		mov	r3, r4
 5328 4d24 0140A0E1 		bl	__muldf3
 5329 4d28 0900A0E1 		mov	r3, r0
 5330 4d2c 0A10A0E1 		mov	r4, r1
 5331 4d30 0320A0E1 		mov	r5, r3
 5332 4d34 0430A0E1 		mov	r6, r4
 5333 4d38 FEFFFFEB 		ldr	r3, .L33+4
 5334 4d3c 0030A0E1 		ldr	r3, [r3, #20]	@ float
 5335 4d40 0140A0E1 		mov	r0, r3
 5336 4d44 0390A0E1 		bl	__extendsfdf2
 5337 4d48 04A0A0E1 		mov	r3, r0
 5338 4d4c 3C381FE5 		mov	r4, r1
 5339 4d50 0C3093E5 		mov	r0, r3
 5340 4d54 0300A0E1 		mov	r1, r4
 5341 4d58 FEFFFFEB 		bl	sin
 5342 4d5c 0030A0E1 		mov	r3, r0
 5343 4d60 0140A0E1 		mov	r4, r1
 5344 4d64 0300A0E1 		mov	r0, r5
 5345 4d68 0410A0E1 		mov	r1, r6
 5346 4d6c FEFFFFEB 		mov	r2, r3
 5347 4d70 0050A0E1 		mov	r3, r4
 5348 4d74 0160A0E1 		bl	__muldf3
 5349 4d78 68381FE5 		mov	r3, r0
 5350 4d7c 0C3093E5 		mov	r4, r1
 5351 4d80 0300A0E1 		mov	r5, r3
 5352 4d84 FEFFFFEB 		mov	r6, r4
 5353 4d88 0030A0E1 		ldr	r3, .L33+4
 5354 4d8c 0140A0E1 		ldr	r3, [r3, #20]	@ float
 5355 4d90 0300A0E1 		mov	r0, r3
 5356 4d94 0410A0E1 		bl	__extendsfdf2
 5357 4d98 FEFFFFEB 		mov	r3, r0
 5358 4d9c 0030A0E1 		mov	r4, r1
 5359 4da0 0140A0E1 		mov	r0, r3
 5360 4da4 0500A0E1 		mov	r1, r4
 5361 4da8 0610A0E1 		bl	sin
 5362 4dac 0320A0E1 		mov	r3, r0
 5363 4db0 0430A0E1 		mov	r4, r1
 5364 4db4 FEFFFFEB 		mov	r0, r5
 5365 4db8 0030A0E1 		mov	r1, r6
 5366 4dbc 0140A0E1 		mov	r2, r3
 5367 4dc0 0350A0E1 		mov	r3, r4
 5368 4dc4 0460A0E1 		bl	__muldf3
 5369 4dc8 B8381FE5 		mov	r3, r0
 5370 4dcc 103093E5 		mov	r4, r1
 5371 4dd0 0300A0E1 		mov	r0, r9
 5372 4dd4 FEFFFFEB 		mov	r1, sl
 5373 4dd8 0030A0E1 		mov	r2, r3
 5374 4ddc 0140A0E1 		mov	r3, r4
 5375 4de0 0300A0E1 		bl	__adddf3
 5376 4de4 0410A0E1 		mov	r3, r0
 5377 4de8 FEFFFFEB 		mov	r4, r1
 5378 4dec 0030A0E1 		mov	r0, r7
 5379 4df0 0140A0E1 		mov	r1, r8
 5380 4df4 0500A0E1 		mov	r2, r3
 5381 4df8 0610A0E1 		mov	r3, r4
 5382 4dfc 0320A0E1 		bl	__divdf3
 5383 4e00 0430A0E1 		mov	r3, r0
 5384 4e04 FEFFFFEB 		mov	r4, r1
 5385 4e08 0030A0E1 		mov	r0, r3
 5386 4e0c 0140A0E1 		mov	r1, r4
 5387 4e10 0350A0E1 		bl	__truncdfsf2
 5388 4e14 0460A0E1 		mov	r3, r0
 5389 4e18 08391FE5 		str	r3, [fp, #-140]	@ float
 5390 4e1c 103093E5 		.loc 1 272 0
 5391 4e20 0300A0E1 		ldr	r3, .L33+4
 5392 4e24 FEFFFFEB 		ldr	r3, [r3, #12]	@ float
 5393 4e28 0030A0E1 		mov	r0, r3
 5394 4e2c 0140A0E1 		bl	__extendsfdf2
 5395 4e30 0300A0E1 		mov	r3, r0
 5396 4e34 0410A0E1 		mov	r4, r1
 5397 4e38 FEFFFFEB 		mov	r0, r3
 5398 4e3c 0030A0E1 		mov	r1, r4
 5399 4e40 0140A0E1 		bl	cos
 5400 4e44 0500A0E1 		mov	r5, r0
 5401 4e48 0610A0E1 		mov	r6, r1
 5402 4e4c 0320A0E1 		ldr	r3, .L33+4
 5403 4e50 0430A0E1 		ldr	r3, [r3, #16]	@ float
 5404 4e54 FEFFFFEB 		mov	r0, r3
 5405 4e58 0030A0E1 		bl	__extendsfdf2
 5406 4e5c 0140A0E1 		mov	r3, r0
 5407 4e60 0350A0E1 		mov	r4, r1
 5408 4e64 0460A0E1 		mov	r0, r3
 5409 4e68 58391FE5 		mov	r1, r4
 5410 4e6c 143093E5 		bl	cos
 5411 4e70 0300A0E1 		mov	r3, r0
 5412 4e74 FEFFFFEB 		mov	r4, r1
 5413 4e78 0030A0E1 		mov	r0, r5
 5414 4e7c 0140A0E1 		mov	r1, r6
 5415 4e80 0300A0E1 		mov	r2, r3
 5416 4e84 0410A0E1 		mov	r3, r4
 5417 4e88 FEFFFFEB 		bl	__muldf3
 5418 4e8c 0030A0E1 		mov	r3, r0
 5419 4e90 0140A0E1 		mov	r4, r1
 5420 4e94 0500A0E1 		mov	r5, r3
 5421 4e98 0610A0E1 		mov	r6, r4
 5422 4e9c 0320A0E1 		ldr	r3, .L33+4
 5423 4ea0 0430A0E1 		ldr	r3, [r3, #16]	@ float
 5424 4ea4 FEFFFFEB 		mov	r0, r3
 5425 4ea8 0030A0E1 		bl	__extendsfdf2
 5426 4eac 0140A0E1 		mov	r3, r0
 5427 4eb0 0350A0E1 		mov	r4, r1
 5428 4eb4 0460A0E1 		mov	r0, r3
 5429 4eb8 A8391FE5 		mov	r1, r4
 5430 4ebc 143093E5 		bl	cos
 5431 4ec0 0300A0E1 		mov	r3, r0
 5432 4ec4 FEFFFFEB 		mov	r4, r1
 5433 4ec8 0030A0E1 		mov	r0, r5
 5434 4ecc 0140A0E1 		mov	r1, r6
 5435 4ed0 0300A0E1 		mov	r2, r3
 5436 4ed4 0410A0E1 		mov	r3, r4
 5437 4ed8 FEFFFFEB 		bl	__muldf3
 5438 4edc 0030A0E1 		mov	r3, r0
 5439 4ee0 0140A0E1 		mov	r4, r1
 5440 4ee4 0500A0E1 		mov	r5, r3
 5441 4ee8 0610A0E1 		mov	r6, r4
 5442 4eec 0320A0E1 		ldr	r3, .L33+4
 5443 4ef0 0430A0E1 		ldr	r3, [r3, #20]	@ float
 5444 4ef4 FEFFFFEB 		mov	r0, r3
 5445 4ef8 0030A0E1 		bl	__extendsfdf2
 5446 4efc 0140A0E1 		mov	r3, r0
 5447 4f00 0900A0E1 		mov	r4, r1
 5448 4f04 0A10A0E1 		mov	r0, r3
 5449 4f08 0320A0E1 		mov	r1, r4
 5450 4f0c 0430A0E1 		bl	sin
 5451 4f10 FEFFFFEB 		mov	r3, r0
 5452 4f14 0030A0E1 		mov	r4, r1
 5453 4f18 0140A0E1 		mov	r0, r5
 5454 4f1c 0700A0E1 		mov	r1, r6
 5455 4f20 0810A0E1 		mov	r2, r3
 5456 4f24 0320A0E1 		mov	r3, r4
 5457 4f28 0430A0E1 		bl	__muldf3
 5458 4f2c FEFFFFEB 		mov	r3, r0
 5459 4f30 0030A0E1 		mov	r4, r1
 5460 4f34 0140A0E1 		mov	r7, r3
 5461 4f38 0300A0E1 		mov	r8, r4
 5462 4f3c 0410A0E1 		ldr	r3, .L33+4
 5463 4f40 FEFFFFEB 		ldr	r3, [r3, #20]	@ float
 5464 4f44 0030A0E1 		mov	r0, r3
 5465 4f48 8C300BE5 		bl	__extendsfdf2
 272:lab.c         **** 	Rinv[7] = -(cos(xd[3])*cos(xd[4])*cos(xd[4])*sin(xd[5]) - cos(xd[5])*sin(xd[3])*sin(xd[4]) + cos(x
 5466              	0
 5467 4f4c 3C3A1FE5 		mov	r4, r1
 5468 4f50 0C3093E5 		mov	r0, r5
 5469 4f54 0300A0E1 		mov	r1, r6
 5470 4f58 FEFFFFEB 		mov	r2, r3
 5471 4f5c 0030A0E1 		mov	r3, r4
 5472 4f60 0140A0E1 		bl	__muldf3
 5473 4f64 0300A0E1 		mov	r3, r0
 5474 4f68 0410A0E1 		mov	r4, r1
 5475 4f6c FEFFFFEB 		mov	r5, r3
 5476 4f70 0050A0E1 		mov	r6, r4
 5477 4f74 0160A0E1 		ldr	r3, .L33+4
 5478 4f78 683A1FE5 		ldr	r3, [r3, #16]	@ float
 5479 4f7c 103093E5 		mov	r0, r3
 5480 4f80 0300A0E1 		bl	__extendsfdf2
 5481 4f84 FEFFFFEB 		mov	r3, r0
 5482 4f88 0030A0E1 		mov	r4, r1
 5483 4f8c 0140A0E1 		mov	r0, r3
 5484 4f90 0300A0E1 		mov	r1, r4
 5485 4f94 0410A0E1 		bl	sin
 5486 4f98 FEFFFFEB 		mov	r3, r0
 5487 4f9c 0030A0E1 		mov	r4, r1
 5488 4fa0 0140A0E1 		mov	r0, r5
 5489 4fa4 0500A0E1 		mov	r1, r6
 5490 4fa8 0610A0E1 		mov	r2, r3
 5491 4fac 0320A0E1 		mov	r3, r4
 5492 4fb0 0430A0E1 		bl	__muldf3
 5493 4fb4 FEFFFFEB 		mov	r3, r0
 5494 4fb8 0030A0E1 		mov	r4, r1
 5495 4fbc 0140A0E1 		mov	r0, r7
 5496 4fc0 0350A0E1 		mov	r1, r8
 5497 4fc4 0460A0E1 		mov	r2, r3
 5498 4fc8 B83A1FE5 		mov	r3, r4
 5499 4fcc 103093E5 		bl	__subdf3
 5500 4fd0 0300A0E1 		mov	r3, r0
 5501 4fd4 FEFFFFEB 		mov	r4, r1
 5502 4fd8 0030A0E1 		mov	r7, r3
 5503 4fdc 0140A0E1 		mov	r8, r4
 5504 4fe0 0300A0E1 		ldr	r3, .L33+4
 5505 4fe4 0410A0E1 		ldr	r3, [r3, #12]	@ float
 5506 4fe8 FEFFFFEB 		mov	r0, r3
 5507 4fec 0030A0E1 		bl	__extendsfdf2
 5508 4ff0 0140A0E1 		mov	r3, r0
 5509 4ff4 0500A0E1 		mov	r4, r1
 5510 4ff8 0610A0E1 		mov	r0, r3
 5511 4ffc 0320A0E1 		mov	r1, r4
 5512 5000 0430A0E1 		bl	cos
 5513 5004 FEFFFFEB 		mov	r5, r0
 5514 5008 0030A0E1 		mov	r6, r1
 5515 500c 0140A0E1 		ldr	r3, .L33+4
 5516 5010 0350A0E1 		ldr	r3, [r3, #16]	@ float
 5517 5014 0460A0E1 		mov	r0, r3
 5518 5018 083B1FE5 		bl	__extendsfdf2
 5519 501c 143093E5 		mov	r3, r0
 5520 5020 0300A0E1 		mov	r4, r1
 5521 5024 FEFFFFEB 		mov	r0, r3
 5522 5028 0030A0E1 		mov	r1, r4
 5523 502c 0140A0E1 		bl	sin
 5524 5030 0300A0E1 		mov	r3, r0
 5525 5034 0410A0E1 		mov	r4, r1
 5526 5038 FEFFFFEB 		mov	r0, r5
 5527 503c 0030A0E1 		mov	r1, r6
 5528 5040 0140A0E1 		mov	r2, r3
 5529 5044 0500A0E1 		mov	r3, r4
 5530 5048 0610A0E1 		bl	__muldf3
 5531 504c 0320A0E1 		mov	r3, r0
 5532 5050 0430A0E1 		mov	r4, r1
 5533 5054 FEFFFFEB 		mov	r5, r3
 5534 5058 0030A0E1 		mov	r6, r4
 5535 505c 0140A0E1 		ldr	r3, .L33+4
 5536 5060 0370A0E1 		ldr	r3, [r3, #16]	@ float
 5537 5064 0480A0E1 		mov	r0, r3
 5538 5068 583B1FE5 		bl	__extendsfdf2
 5539 506c 143093E5 		mov	r3, r0
 5540 5070 0300A0E1 		mov	r4, r1
 5541 5074 FEFFFFEB 		mov	r0, r3
 5542 5078 0030A0E1 		mov	r1, r4
 5543 507c 0140A0E1 		bl	sin
 5544 5080 0300A0E1 		mov	r3, r0
 5545 5084 0410A0E1 		mov	r4, r1
 5546 5088 FEFFFFEB 		mov	r0, r5
 5547 508c 0050A0E1 		mov	r1, r6
 5548 5090 0160A0E1 		mov	r2, r3
 5549 5094 843B1FE5 		mov	r3, r4
 5550 5098 0C3093E5 		bl	__muldf3
 5551 509c 0300A0E1 		mov	r3, r0
 5552 50a0 FEFFFFEB 		mov	r4, r1
 5553 50a4 0030A0E1 		mov	r5, r3
 5554 50a8 0140A0E1 		mov	r6, r4
 5555 50ac 0300A0E1 		ldr	r3, .L33+4
 5556 50b0 0410A0E1 		ldr	r3, [r3, #20]	@ float
 5557 50b4 FEFFFFEB 		mov	r0, r3
 5558 50b8 0030A0E1 		bl	__extendsfdf2
 5559 50bc 0140A0E1 		mov	r3, r0
 5560 50c0 0500A0E1 		mov	r4, r1
 5561 50c4 0610A0E1 		mov	r0, r3
 5562 50c8 0320A0E1 		mov	r1, r4
 5563 50cc 0430A0E1 		bl	sin
 5564 50d0 FEFFFFEB 		mov	r3, r0
 5565 50d4 0030A0E1 		mov	r4, r1
 5566 50d8 0140A0E1 		mov	r0, r5
 5567 50dc 0350A0E1 		mov	r1, r6
 5568 50e0 0460A0E1 		mov	r2, r3
 5569 50e4 D43B1FE5 		mov	r3, r4
 5570 50e8 103093E5 		bl	__muldf3
 5571 50ec 0300A0E1 		mov	r3, r0
 5572 50f0 FEFFFFEB 		mov	r4, r1
 5573 50f4 0030A0E1 		mov	r0, r7
 5574 50f8 0140A0E1 		mov	r1, r8
 5575 50fc 0300A0E1 		mov	r2, r3
 5576 5100 0410A0E1 		mov	r3, r4
 5577 5104 FEFFFFEB 		bl	__adddf3
 5578 5108 0030A0E1 		mov	r3, r0
 5579 510c 0140A0E1 		mov	r4, r1
 5580 5110 0500A0E1 		eor	r7, r3, #-2147483648
 5581 5114 0610A0E1 		mov	r8, r4
 5582 5118 0320A0E1 		ldr	r3, .L33+4
 5583 511c 0430A0E1 		ldr	r3, [r3, #12]	@ float
 5584 5120 FEFFFFEB 		mov	r0, r3
 5585 5124 0030A0E1 		bl	__extendsfdf2
 5586 5128 0140A0E1 		mov	r3, r0
 5587 512c 0700A0E1 		mov	r4, r1
 5588 5130 0810A0E1 		mov	r0, r3
 5589 5134 0320A0E1 		mov	r1, r4
 5590 5138 0430A0E1 		bl	cos
 5591 513c FEFFFFEB 		mov	r5, r0
 5592 5140 0030A0E1 		mov	r6, r1
 5593 5144 0140A0E1 		ldr	r3, .L33+4
 5594 5148 0370A0E1 		ldr	r3, [r3, #12]	@ float
 5595 514c 0480A0E1 		mov	r0, r3
 5596 5150 403C1FE5 		bl	__extendsfdf2
 5597 5154 0C3093E5 		mov	r3, r0
 5598 5158 0300A0E1 		mov	r4, r1
 5599 515c FEFFFFEB 		mov	r0, r3
 5600 5160 0030A0E1 		mov	r1, r4
 5601 5164 0140A0E1 		bl	cos
 5602 5168 0300A0E1 		mov	r3, r0
 5603 516c 0410A0E1 		mov	r4, r1
 5604 5170 FEFFFFEB 		mov	r0, r5
 5605 5174 0050A0E1 		mov	r1, r6
 5606 5178 0160A0E1 		mov	r2, r3
 5607 517c 6C3C1FE5 		mov	r3, r4
 5608 5180 103093E5 		bl	__muldf3
 5609 5184 0300A0E1 		mov	r3, r0
 5610 5188 FEFFFFEB 		mov	r4, r1
 5611 518c 0030A0E1 		mov	r5, r3
 5612 5190 0140A0E1 		mov	r6, r4
 5613 5194 0300A0E1 		ldr	r3, .L33+4
 5614 5198 0410A0E1 		ldr	r3, [r3, #16]	@ float
 5615 519c FEFFFFEB 		mov	r0, r3
 5616 51a0 0030A0E1 		bl	__extendsfdf2
 5617 51a4 0140A0E1 		mov	r3, r0
 5618 51a8 0500A0E1 		mov	r4, r1
 5619 51ac 0610A0E1 		mov	r0, r3
 5620 51b0 0320A0E1 		mov	r1, r4
 5621 51b4 0430A0E1 		bl	cos
 5622 51b8 FEFFFFEB 		mov	r3, r0
 5623 51bc 0030A0E1 		mov	r4, r1
 5624 51c0 0140A0E1 		mov	r0, r5
 5625 51c4 0350A0E1 		mov	r1, r6
 5626 51c8 0460A0E1 		mov	r2, r3
 5627 51cc BC3C1FE5 		mov	r3, r4
 5628 51d0 103093E5 		bl	__muldf3
 5629 51d4 0300A0E1 		mov	r3, r0
 5630 51d8 FEFFFFEB 		mov	r4, r1
 5631 51dc 0030A0E1 		mov	r5, r3
 5632 51e0 0140A0E1 		mov	r6, r4
 5633 51e4 0300A0E1 		ldr	r3, .L33+4
 5634 51e8 0410A0E1 		ldr	r3, [r3, #16]	@ float
 5635 51ec FEFFFFEB 		mov	r0, r3
 5636 51f0 0030A0E1 		bl	__extendsfdf2
 5637 51f4 0140A0E1 		mov	r3, r0
 5638 51f8 0500A0E1 		mov	r4, r1
 5639 51fc 0610A0E1 		mov	r0, r3
 5640 5200 0320A0E1 		mov	r1, r4
 5641 5204 0430A0E1 		bl	cos
 5642 5208 FEFFFFEB 		mov	r3, r0
 5643 520c 0030A0E1 		mov	r4, r1
 5644 5210 0140A0E1 		mov	r0, r5
 5645 5214 0350A0E1 		mov	r1, r6
 5646 5218 0460A0E1 		mov	r2, r3
 5647 521c 0C3D1FE5 		mov	r3, r4
 5648 5220 143093E5 		bl	__muldf3
 5649 5224 0300A0E1 		mov	r3, r0
 5650 5228 FEFFFFEB 		mov	r4, r1
 5651 522c 0030A0E1 		mov	r5, r3
 5652 5230 0140A0E1 		mov	r6, r4
 5653 5234 0300A0E1 		ldr	r3, .L33+4
 5654 5238 0410A0E1 		ldr	r3, [r3, #20]	@ float
 5655 523c FEFFFFEB 		mov	r0, r3
 5656 5240 0030A0E1 		bl	__extendsfdf2
 5657 5244 0140A0E1 		mov	r3, r0
 5658 5248 0500A0E1 		mov	r4, r1
 5659 524c 0610A0E1 		mov	r0, r3
 5660 5250 0320A0E1 		mov	r1, r4
 5661 5254 0430A0E1 		bl	cos
 5662 5258 FEFFFFEB 		mov	r3, r0
 5663 525c 0030A0E1 		mov	r4, r1
 5664 5260 0140A0E1 		mov	r0, r5
 5665 5264 0700A0E1 		mov	r1, r6
 5666 5268 0810A0E1 		mov	r2, r3
 5667 526c 0320A0E1 		mov	r3, r4
 5668 5270 0430A0E1 		bl	__muldf3
 5669 5274 FEFFFFEB 		mov	r3, r0
 5670 5278 0030A0E1 		mov	r4, r1
 5671 527c 0140A0E1 		mov	r5, r3
 5672 5280 027123E2 		mov	r6, r4
 5673 5284 0480A0E1 		ldr	r3, .L33+4
 5674 5288 783D1FE5 		ldr	r3, [r3, #20]	@ float
 5675 528c 0C3093E5 		mov	r0, r3
 5676 5290 0300A0E1 		bl	__extendsfdf2
 5677 5294 FEFFFFEB 		mov	r3, r0
 5678 5298 0030A0E1 		mov	r4, r1
 5679 529c 0140A0E1 		mov	r0, r3
 5680 52a0 0300A0E1 		mov	r1, r4
 5681 52a4 0410A0E1 		bl	cos
 5682 52a8 FEFFFFEB 		mov	r3, r0
 5683 52ac 0050A0E1 		mov	r4, r1
 5684 52b0 0160A0E1 		mov	r0, r5
 5685 52b4 A43D1FE5 		mov	r1, r6
 5686 52b8 0C3093E5 		mov	r2, r3
 5687 52bc 0300A0E1 		mov	r3, r4
 5688 52c0 FEFFFFEB 		bl	__muldf3
 5689 52c4 0030A0E1 		mov	r3, r0
 5690 52c8 0140A0E1 		mov	r4, r1
 5691 52cc 0300A0E1 		mov	r9, r3
 5692 52d0 0410A0E1 		mov	sl, r4
 5693 52d4 FEFFFFEB 		ldr	r3, .L33+4
 5694 52d8 0030A0E1 		ldr	r3, [r3, #12]	@ float
 5695 52dc 0140A0E1 		mov	r0, r3
 5696 52e0 0500A0E1 		bl	__extendsfdf2
 5697 52e4 0610A0E1 		mov	r3, r0
 5698 52e8 0320A0E1 		mov	r4, r1
 5699 52ec 0430A0E1 		mov	r0, r3
 5700 52f0 FEFFFFEB 		mov	r1, r4
 5701 52f4 0030A0E1 		bl	cos
 5702 52f8 0140A0E1 		mov	r5, r0
 5703 52fc 0350A0E1 		mov	r6, r1
 5704 5300 0460A0E1 		ldr	r3, .L33+4
 5705 5304 F43D1FE5 		ldr	r3, [r3, #12]	@ float
 5706 5308 103093E5 		mov	r0, r3
 5707 530c 0300A0E1 		bl	__extendsfdf2
 5708 5310 FEFFFFEB 		mov	r3, r0
 5709 5314 0030A0E1 		mov	r4, r1
 5710 5318 0140A0E1 		mov	r0, r3
 5711 531c 0300A0E1 		mov	r1, r4
 5712 5320 0410A0E1 		bl	cos
 5713 5324 FEFFFFEB 		mov	r3, r0
 5714 5328 0030A0E1 		mov	r4, r1
 5715 532c 0140A0E1 		mov	r0, r5
 5716 5330 0500A0E1 		mov	r1, r6
 5717 5334 0610A0E1 		mov	r2, r3
 5718 5338 0320A0E1 		mov	r3, r4
 5719 533c 0430A0E1 		bl	__muldf3
 5720 5340 FEFFFFEB 		mov	r3, r0
 5721 5344 0030A0E1 		mov	r4, r1
 5722 5348 0140A0E1 		mov	r5, r3
 5723 534c 0350A0E1 		mov	r6, r4
 5724 5350 0460A0E1 		ldr	r3, .L33+4
 5725 5354 443E1FE5 		ldr	r3, [r3, #16]	@ float
 5726 5358 103093E5 		mov	r0, r3
 5727 535c 0300A0E1 		bl	__extendsfdf2
 5728 5360 FEFFFFEB 		mov	r3, r0
 5729 5364 0030A0E1 		mov	r4, r1
 5730 5368 0140A0E1 		mov	r0, r3
 5731 536c 0300A0E1 		mov	r1, r4
 5732 5370 0410A0E1 		bl	cos
 5733 5374 FEFFFFEB 		mov	r3, r0
 5734 5378 0030A0E1 		mov	r4, r1
 5735 537c 0140A0E1 		mov	r0, r5
 5736 5380 0500A0E1 		mov	r1, r6
 5737 5384 0610A0E1 		mov	r2, r3
 5738 5388 0320A0E1 		mov	r3, r4
 5739 538c 0430A0E1 		bl	__muldf3
 5740 5390 FEFFFFEB 		mov	r3, r0
 5741 5394 0030A0E1 		mov	r4, r1
 5742 5398 0140A0E1 		mov	r5, r3
 5743 539c 0350A0E1 		mov	r6, r4
 5744 53a0 0460A0E1 		ldr	r3, .L36
 5745 53a4 943E1FE5 		ldr	r3, [r3, #16]	@ float
 5746 53a8 143093E5 		mov	r0, r3
 5747 53ac 0300A0E1 		bl	__extendsfdf2
 5748 53b0 FEFFFFEB 		mov	r3, r0
 5749 53b4 0030A0E1 		mov	r4, r1
 5750 53b8 0140A0E1 		mov	r0, r3
 5751 53bc 0300A0E1 		mov	r1, r4
 5752 53c0 0410A0E1 		bl	cos
 5753 53c4 FEFFFFEB 		mov	r3, r0
 5754 53c8 0030A0E1 		mov	r4, r1
 5755 53cc 0140A0E1 		mov	r0, r5
 5756 53d0 0500A0E1 		mov	r1, r6
 5757 53d4 0610A0E1 		mov	r2, r3
 5758 53d8 0320A0E1 		mov	r3, r4
 5759 53dc 0430A0E1 		bl	__muldf3
 5760 53e0 FEFFFFEB 		mov	r3, r0
 5761 53e4 0030A0E1 		mov	r4, r1
 5762 53e8 0140A0E1 		mov	r5, r3
 5763 53ec 0350A0E1 		mov	r6, r4
 5764 53f0 0460A0E1 		ldr	r3, .L36
 5765 53f4 E43E1FE5 		ldr	r3, [r3, #20]	@ float
 5766 53f8 143093E5 		mov	r0, r3
 5767 53fc 0300A0E1 		bl	__extendsfdf2
 5768 5400 FEFFFFEB 		mov	r3, r0
 5769 5404 0030A0E1 		mov	r4, r1
 5770 5408 0140A0E1 		mov	r0, r3
 5771 540c 0300A0E1 		mov	r1, r4
 5772 5410 0410A0E1 		bl	sin
 5773 5414 FEFFFFEB 		mov	r3, r0
 5774 5418 0030A0E1 		mov	r4, r1
 5775 541c 0140A0E1 		mov	r0, r5
 5776 5420 0500A0E1 		mov	r1, r6
 5777 5424 0610A0E1 		mov	r2, r3
 5778 5428 0320A0E1 		mov	r3, r4
 5779 542c 0430A0E1 		bl	__muldf3
 5780 5430 FEFFFFEB 		mov	r3, r0
 5781 5434 0030A0E1 		mov	r4, r1
 5782 5438 0140A0E1 		mov	r5, r3
 5783 543c 0390A0E1 		mov	r6, r4
 5784 5440 04A0A0E1 		ldr	r3, .L36
 5785 5444 343F1FE5 		ldr	r3, [r3, #20]	@ float
 5786 5448 0C3093E5 		mov	r0, r3
 5787 544c 0300A0E1 		bl	__extendsfdf2
 5788 5450 FEFFFFEB 		mov	r3, r0
 5789 5454 0030A0E1 		mov	r4, r1
 5790 5458 0140A0E1 		mov	r0, r3
 5791 545c 0300A0E1 		mov	r1, r4
 5792 5460 0410A0E1 		bl	sin
 5793 5464 FEFFFFEB 		mov	r3, r0
 5794 5468 0050A0E1 		mov	r4, r1
 5795 546c 0160A0E1 		mov	r0, r5
 5796 5470 603F1FE5 		mov	r1, r6
 5797 5474 0C3093E5 		mov	r2, r3
 5798 5478 0300A0E1 		mov	r3, r4
 5799 547c FEFFFFEB 		bl	__muldf3
 5800 5480 0030A0E1 		mov	r3, r0
 5801 5484 0140A0E1 		mov	r4, r1
 5802 5488 0300A0E1 		mov	r0, r9
 5803 548c 0410A0E1 		mov	r1, sl
 5804 5490 FEFFFFEB 		mov	r2, r3
 5805 5494 0030A0E1 		mov	r3, r4
 5806 5498 0140A0E1 		bl	__adddf3
 5807 549c 0500A0E1 		mov	r3, r0
 5808 54a0 0610A0E1 		mov	r4, r1
 5809 54a4 0320A0E1 		mov	r9, r3
 5810 54a8 0430A0E1 		mov	sl, r4
 5811 54ac FEFFFFEB 		ldr	r3, .L36
 5812 54b0 0030A0E1 		ldr	r3, [r3, #12]	@ float
 5813 54b4 0140A0E1 		mov	r0, r3
 5814 54b8 0350A0E1 		bl	__extendsfdf2
 5815 54bc 0460A0E1 		mov	r3, r0
 5816 54c0 B03F1FE5 		mov	r4, r1
 5817 54c4 103093E5 		mov	r0, r3
 5818 54c8 0300A0E1 		mov	r1, r4
 5819 54cc FEFFFFEB 		bl	cos
 5820 54d0 0030A0E1 		mov	r5, r0
 5821 54d4 0140A0E1 		mov	r6, r1
 5822 54d8 0300A0E1 		ldr	r3, .L36
 5823 54dc 0410A0E1 		ldr	r3, [r3, #12]	@ float
 5824 54e0 FEFFFFEB 		mov	r0, r3
 5825 54e4 0030A0E1 		bl	__extendsfdf2
 5826 54e8 0140A0E1 		mov	r3, r0
 5827 54ec 0500A0E1 		mov	r4, r1
 5828 54f0 0610A0E1 		mov	r0, r3
 5829 54f4 0320A0E1 		mov	r1, r4
 5830 54f8 0430A0E1 		bl	cos
 5831 54fc FEFFFFEB 		mov	r3, r0
 5832 5500 0030A0E1 		mov	r4, r1
 5833 5504 0140A0E1 		mov	r0, r5
 5834 5508 0350A0E1 		mov	r1, r6
 5835 550c 0460A0E1 		mov	r2, r3
 5836 5510 F03F9FE5 		mov	r3, r4
 5837 5514 103093E5 		bl	__muldf3
 5838 5518 0300A0E1 		mov	r3, r0
 5839 551c FEFFFFEB 		mov	r4, r1
 5840 5520 0030A0E1 		mov	r5, r3
 5841 5524 0140A0E1 		mov	r6, r4
 5842 5528 0300A0E1 		ldr	r3, .L36
 5843 552c 0410A0E1 		ldr	r3, [r3, #20]	@ float
 5844 5530 FEFFFFEB 		mov	r0, r3
 5845 5534 0030A0E1 		bl	__extendsfdf2
 5846 5538 0140A0E1 		mov	r3, r0
 5847 553c 0500A0E1 		mov	r4, r1
 5848 5540 0610A0E1 		mov	r0, r3
 5849 5544 0320A0E1 		mov	r1, r4
 5850 5548 0430A0E1 		bl	cos
 5851 554c FEFFFFEB 		mov	r3, r0
 5852 5550 0030A0E1 		mov	r4, r1
 5853 5554 0140A0E1 		mov	r0, r5
 5854 5558 0350A0E1 		mov	r1, r6
 5855 555c 0460A0E1 		mov	r2, r3
 5856 5560 A03F9FE5 		mov	r3, r4
 5857 5564 143093E5 		bl	__muldf3
 5858 5568 0300A0E1 		mov	r3, r0
 5859 556c FEFFFFEB 		mov	r4, r1
 5860 5570 0030A0E1 		mov	r5, r3
 5861 5574 0140A0E1 		mov	r6, r4
 5862 5578 0300A0E1 		ldr	r3, .L36
 5863 557c 0410A0E1 		ldr	r3, [r3, #20]	@ float
 5864 5580 FEFFFFEB 		mov	r0, r3
 5865 5584 0030A0E1 		bl	__extendsfdf2
 5866 5588 0140A0E1 		mov	r3, r0
 5867 558c 0500A0E1 		mov	r4, r1
 5868 5590 0610A0E1 		mov	r0, r3
 5869 5594 0320A0E1 		mov	r1, r4
 5870 5598 0430A0E1 		bl	cos
 5871 559c FEFFFFEB 		mov	r3, r0
 5872 55a0 0030A0E1 		mov	r4, r1
 5873 55a4 0140A0E1 		mov	r0, r5
 5874 55a8 0350A0E1 		mov	r1, r6
 5875 55ac 0460A0E1 		mov	r2, r3
 5876 55b0 503F9FE5 		mov	r3, r4
 5877 55b4 143093E5 		bl	__muldf3
 5878 55b8 0300A0E1 		mov	r3, r0
 5879 55bc FEFFFFEB 		mov	r4, r1
 5880 55c0 0030A0E1 		mov	r5, r3
 5881 55c4 0140A0E1 		mov	r6, r4
 5882 55c8 0300A0E1 		ldr	r3, .L36
 5883 55cc 0410A0E1 		ldr	r3, [r3, #16]	@ float
 5884 55d0 FEFFFFEB 		mov	r0, r3
 5885 55d4 0030A0E1 		bl	__extendsfdf2
 5886 55d8 0140A0E1 		mov	r3, r0
 5887 55dc 0500A0E1 		mov	r4, r1
 5888 55e0 0610A0E1 		mov	r0, r3
 5889 55e4 0320A0E1 		mov	r1, r4
 5890 55e8 0430A0E1 		bl	sin
 5891 55ec FEFFFFEB 		mov	r3, r0
 5892 55f0 0030A0E1 		mov	r4, r1
 5893 55f4 0140A0E1 		mov	r0, r5
 5894 55f8 0900A0E1 		mov	r1, r6
 5895 55fc 0A10A0E1 		mov	r2, r3
 5896 5600 0320A0E1 		mov	r3, r4
 5897 5604 0430A0E1 		bl	__muldf3
 5898 5608 FEFFFFEB 		mov	r3, r0
 5899 560c 0030A0E1 		mov	r4, r1
 5900 5610 0140A0E1 		mov	r5, r3
 5901 5614 0390A0E1 		mov	r6, r4
 5902 5618 04A0A0E1 		ldr	r3, .L36
 5903 561c E43E9FE5 		ldr	r3, [r3, #16]	@ float
 5904 5620 0C3093E5 		mov	r0, r3
 5905 5624 0300A0E1 		bl	__extendsfdf2
 5906 5628 FEFFFFEB 		mov	r3, r0
 5907 562c 0030A0E1 		mov	r4, r1
 5908 5630 0140A0E1 		mov	r0, r3
 5909 5634 0300A0E1 		mov	r1, r4
 5910 5638 0410A0E1 		bl	sin
 5911 563c FEFFFFEB 		mov	r3, r0
 5912 5640 0050A0E1 		mov	r4, r1
 5913 5644 0160A0E1 		mov	r0, r5
 5914 5648 B83E9FE5 		mov	r1, r6
 5915 564c 0C3093E5 		mov	r2, r3
 5916 5650 0300A0E1 		mov	r3, r4
 5917 5654 FEFFFFEB 		bl	__muldf3
 5918 5658 0030A0E1 		mov	r3, r0
 5919 565c 0140A0E1 		mov	r4, r1
 5920 5660 0300A0E1 		mov	r0, r9
 5921 5664 0410A0E1 		mov	r1, sl
 5922 5668 FEFFFFEB 		mov	r2, r3
 5923 566c 0030A0E1 		mov	r3, r4
 5924 5670 0140A0E1 		bl	__adddf3
 5925 5674 0500A0E1 		mov	r3, r0
 5926 5678 0610A0E1 		mov	r4, r1
 5927 567c 0320A0E1 		mov	r9, r3
 5928 5680 0430A0E1 		mov	sl, r4
 5929 5684 FEFFFFEB 		ldr	r3, .L36
 5930 5688 0030A0E1 		ldr	r3, [r3, #12]	@ float
 5931 568c 0140A0E1 		mov	r0, r3
 5932 5690 0350A0E1 		bl	__extendsfdf2
 5933 5694 0460A0E1 		mov	r3, r0
 5934 5698 683E9FE5 		mov	r4, r1
 5935 569c 143093E5 		mov	r0, r3
 5936 56a0 0300A0E1 		mov	r1, r4
 5937 56a4 FEFFFFEB 		bl	cos
 5938 56a8 0030A0E1 		mov	r5, r0
 5939 56ac 0140A0E1 		mov	r6, r1
 5940 56b0 0300A0E1 		ldr	r3, .L36
 5941 56b4 0410A0E1 		ldr	r3, [r3, #12]	@ float
 5942 56b8 FEFFFFEB 		mov	r0, r3
 5943 56bc 0030A0E1 		bl	__extendsfdf2
 5944 56c0 0140A0E1 		mov	r3, r0
 5945 56c4 0500A0E1 		mov	r4, r1
 5946 56c8 0610A0E1 		mov	r0, r3
 5947 56cc 0320A0E1 		mov	r1, r4
 5948 56d0 0430A0E1 		bl	cos
 5949 56d4 FEFFFFEB 		mov	r3, r0
 5950 56d8 0030A0E1 		mov	r4, r1
 5951 56dc 0140A0E1 		mov	r0, r5
 5952 56e0 0350A0E1 		mov	r1, r6
 5953 56e4 0460A0E1 		mov	r2, r3
 5954 56e8 183E9FE5 		mov	r3, r4
 5955 56ec 143093E5 		bl	__muldf3
 5956 56f0 0300A0E1 		mov	r3, r0
 5957 56f4 FEFFFFEB 		mov	r4, r1
 5958 56f8 0030A0E1 		mov	r5, r3
 5959 56fc 0140A0E1 		mov	r6, r4
 5960 5700 0300A0E1 		ldr	r3, .L36
 5961 5704 0410A0E1 		ldr	r3, [r3, #16]	@ float
 5962 5708 FEFFFFEB 		mov	r0, r3
 5963 570c 0030A0E1 		bl	__extendsfdf2
 5964 5710 0140A0E1 		mov	r3, r0
 5965 5714 0500A0E1 		mov	r4, r1
 5966 5718 0610A0E1 		mov	r0, r3
 5967 571c 0320A0E1 		mov	r1, r4
 5968 5720 0430A0E1 		bl	sin
 5969 5724 FEFFFFEB 		mov	r3, r0
 5970 5728 0030A0E1 		mov	r4, r1
 5971 572c 0140A0E1 		mov	r0, r5
 5972 5730 0350A0E1 		mov	r1, r6
 5973 5734 0460A0E1 		mov	r2, r3
 5974 5738 C83D9FE5 		mov	r3, r4
 5975 573c 103093E5 		bl	__muldf3
 5976 5740 0300A0E1 		mov	r3, r0
 5977 5744 FEFFFFEB 		mov	r4, r1
 5978 5748 0030A0E1 		mov	r5, r3
 5979 574c 0140A0E1 		mov	r6, r4
 5980 5750 0300A0E1 		ldr	r3, .L36
 5981 5754 0410A0E1 		ldr	r3, [r3, #16]	@ float
 5982 5758 FEFFFFEB 		mov	r0, r3
 5983 575c 0030A0E1 		bl	__extendsfdf2
 5984 5760 0140A0E1 		mov	r3, r0
 5985 5764 0500A0E1 		mov	r4, r1
 5986 5768 0610A0E1 		mov	r0, r3
 5987 576c 0320A0E1 		mov	r1, r4
 5988 5770 0430A0E1 		bl	sin
 5989 5774 FEFFFFEB 		mov	r3, r0
 5990 5778 0030A0E1 		mov	r4, r1
 5991 577c 0140A0E1 		mov	r0, r5
 5992 5780 0350A0E1 		mov	r1, r6
 5993 5784 0460A0E1 		mov	r2, r3
 5994 5788 783D9FE5 		mov	r3, r4
 5995 578c 103093E5 		bl	__muldf3
 5996 5790 0300A0E1 		mov	r3, r0
 5997 5794 FEFFFFEB 		mov	r4, r1
 5998 5798 0030A0E1 		mov	r5, r3
 5999 579c 0140A0E1 		mov	r6, r4
 6000 57a0 0300A0E1 		ldr	r3, .L36
 6001 57a4 0410A0E1 		ldr	r3, [r3, #20]	@ float
 6002 57a8 FEFFFFEB 		mov	r0, r3
 6003 57ac 0030A0E1 		bl	__extendsfdf2
 6004 57b0 0140A0E1 		mov	r3, r0
 6005 57b4 0500A0E1 		mov	r4, r1
 6006 57b8 0610A0E1 		mov	r0, r3
 6007 57bc 0320A0E1 		mov	r1, r4
 6008 57c0 0430A0E1 		bl	sin
 6009 57c4 FEFFFFEB 		mov	r3, r0
 6010 57c8 0030A0E1 		mov	r4, r1
 6011 57cc 0140A0E1 		mov	r0, r5
 6012 57d0 0900A0E1 		mov	r1, r6
 6013 57d4 0A10A0E1 		mov	r2, r3
 6014 57d8 0320A0E1 		mov	r3, r4
 6015 57dc 0430A0E1 		bl	__muldf3
 6016 57e0 FEFFFFEB 		mov	r3, r0
 6017 57e4 0030A0E1 		mov	r4, r1
 6018 57e8 0140A0E1 		mov	r5, r3
 6019 57ec 0390A0E1 		mov	r6, r4
 6020 57f0 04A0A0E1 		ldr	r3, .L36
 6021 57f4 0C3D9FE5 		ldr	r3, [r3, #20]	@ float
 6022 57f8 0C3093E5 		mov	r0, r3
 6023 57fc 0300A0E1 		bl	__extendsfdf2
 6024 5800 FEFFFFEB 		mov	r3, r0
 6025 5804 0030A0E1 		mov	r4, r1
 6026 5808 0140A0E1 		mov	r0, r3
 6027 580c 0300A0E1 		mov	r1, r4
 6028 5810 0410A0E1 		bl	sin
 6029 5814 FEFFFFEB 		mov	r3, r0
 6030 5818 0050A0E1 		mov	r4, r1
 6031 581c 0160A0E1 		mov	r0, r5
 6032 5820 E03C9FE5 		mov	r1, r6
 6033 5824 0C3093E5 		mov	r2, r3
 6034 5828 0300A0E1 		mov	r3, r4
 6035 582c FEFFFFEB 		bl	__muldf3
 6036 5830 0030A0E1 		mov	r3, r0
 6037 5834 0140A0E1 		mov	r4, r1
 6038 5838 0300A0E1 		mov	r0, r9
 6039 583c 0410A0E1 		mov	r1, sl
 6040 5840 FEFFFFEB 		mov	r2, r3
 6041 5844 0030A0E1 		mov	r3, r4
 6042 5848 0140A0E1 		bl	__adddf3
 6043 584c 0500A0E1 		mov	r3, r0
 6044 5850 0610A0E1 		mov	r4, r1
 6045 5854 0320A0E1 		mov	r9, r3
 6046 5858 0430A0E1 		mov	sl, r4
 6047 585c FEFFFFEB 		ldr	r3, .L36
 6048 5860 0030A0E1 		ldr	r3, [r3, #16]	@ float
 6049 5864 0140A0E1 		mov	r0, r3
 6050 5868 0350A0E1 		bl	__extendsfdf2
 6051 586c 0460A0E1 		mov	r3, r0
 6052 5870 903C9FE5 		mov	r4, r1
 6053 5874 103093E5 		mov	r0, r3
 6054 5878 0300A0E1 		mov	r1, r4
 6055 587c FEFFFFEB 		bl	cos
 6056 5880 0030A0E1 		mov	r5, r0
 6057 5884 0140A0E1 		mov	r6, r1
 6058 5888 0300A0E1 		ldr	r3, .L36
 6059 588c 0410A0E1 		ldr	r3, [r3, #16]	@ float
 6060 5890 FEFFFFEB 		mov	r0, r3
 6061 5894 0030A0E1 		bl	__extendsfdf2
 6062 5898 0140A0E1 		mov	r3, r0
 6063 589c 0500A0E1 		mov	r4, r1
 6064 58a0 0610A0E1 		mov	r0, r3
 6065 58a4 0320A0E1 		mov	r1, r4
 6066 58a8 0430A0E1 		bl	cos
 6067 58ac FEFFFFEB 		mov	r3, r0
 6068 58b0 0030A0E1 		mov	r4, r1
 6069 58b4 0140A0E1 		mov	r0, r5
 6070 58b8 0350A0E1 		mov	r1, r6
 6071 58bc 0460A0E1 		mov	r2, r3
 6072 58c0 403C9FE5 		mov	r3, r4
 6073 58c4 103093E5 		bl	__muldf3
 6074 58c8 0300A0E1 		mov	r3, r0
 6075 58cc FEFFFFEB 		mov	r4, r1
 6076 58d0 0030A0E1 		mov	r5, r3
 6077 58d4 0140A0E1 		mov	r6, r4
 6078 58d8 0300A0E1 		ldr	r3, .L36
 6079 58dc 0410A0E1 		ldr	r3, [r3, #20]	@ float
 6080 58e0 FEFFFFEB 		mov	r0, r3
 6081 58e4 0030A0E1 		bl	__extendsfdf2
 6082 58e8 0140A0E1 		mov	r3, r0
 6083 58ec 0500A0E1 		mov	r4, r1
 6084 58f0 0610A0E1 		mov	r0, r3
 6085 58f4 0320A0E1 		mov	r1, r4
 6086 58f8 0430A0E1 		bl	cos
 6087 58fc FEFFFFEB 		mov	r3, r0
 6088 5900 0030A0E1 		mov	r4, r1
 6089 5904 0140A0E1 		mov	r0, r5
 6090 5908 0350A0E1 		mov	r1, r6
 6091 590c 0460A0E1 		mov	r2, r3
 6092 5910 F03B9FE5 		mov	r3, r4
 6093 5914 143093E5 		bl	__muldf3
 6094 5918 0300A0E1 		mov	r3, r0
 6095 591c FEFFFFEB 		mov	r4, r1
 6096 5920 0030A0E1 		mov	r5, r3
 6097 5924 0140A0E1 		mov	r6, r4
 6098 5928 0300A0E1 		ldr	r3, .L36
 6099 592c 0410A0E1 		ldr	r3, [r3, #20]	@ float
 6100 5930 FEFFFFEB 		mov	r0, r3
 6101 5934 0030A0E1 		bl	__extendsfdf2
 6102 5938 0140A0E1 		mov	r3, r0
 6103 593c 0500A0E1 		mov	r4, r1
 6104 5940 0610A0E1 		mov	r0, r3
 6105 5944 0320A0E1 		mov	r1, r4
 6106 5948 0430A0E1 		bl	cos
 6107 594c FEFFFFEB 		mov	r3, r0
 6108 5950 0030A0E1 		mov	r4, r1
 6109 5954 0140A0E1 		mov	r0, r5
 6110 5958 0350A0E1 		mov	r1, r6
 6111 595c 0460A0E1 		mov	r2, r3
 6112 5960 A03B9FE5 		mov	r3, r4
 6113 5964 143093E5 		bl	__muldf3
 6114 5968 0300A0E1 		mov	r3, r0
 6115 596c FEFFFFEB 		mov	r4, r1
 6116 5970 0030A0E1 		mov	r5, r3
 6117 5974 0140A0E1 		mov	r6, r4
 6118 5978 0300A0E1 		ldr	r3, .L36
 6119 597c 0410A0E1 		ldr	r3, [r3, #12]	@ float
 6120 5980 FEFFFFEB 		mov	r0, r3
 6121 5984 0030A0E1 		bl	__extendsfdf2
 6122 5988 0140A0E1 		mov	r3, r0
 6123 598c 0500A0E1 		mov	r4, r1
 6124 5990 0610A0E1 		mov	r0, r3
 6125 5994 0320A0E1 		mov	r1, r4
 6126 5998 0430A0E1 		bl	sin
 6127 599c FEFFFFEB 		mov	r3, r0
 6128 59a0 0030A0E1 		mov	r4, r1
 6129 59a4 0140A0E1 		mov	r0, r5
 6130 59a8 0900A0E1 		mov	r1, r6
 6131 59ac 0A10A0E1 		mov	r2, r3
 6132 59b0 0320A0E1 		mov	r3, r4
 6133 59b4 0430A0E1 		bl	__muldf3
 6134 59b8 FEFFFFEB 		mov	r3, r0
 6135 59bc 0030A0E1 		mov	r4, r1
 6136 59c0 0140A0E1 		mov	r5, r3
 6137 59c4 0390A0E1 		mov	r6, r4
 6138 59c8 04A0A0E1 		ldr	r3, .L36
 6139 59cc 343B9FE5 		ldr	r3, [r3, #12]	@ float
 6140 59d0 103093E5 		mov	r0, r3
 6141 59d4 0300A0E1 		bl	__extendsfdf2
 6142 59d8 FEFFFFEB 		mov	r3, r0
 6143 59dc 0030A0E1 		mov	r4, r1
 6144 59e0 0140A0E1 		mov	r0, r3
 6145 59e4 0300A0E1 		mov	r1, r4
 6146 59e8 0410A0E1 		bl	sin
 6147 59ec FEFFFFEB 		mov	r3, r0
 6148 59f0 0050A0E1 		mov	r4, r1
 6149 59f4 0160A0E1 		mov	r0, r5
 6150 59f8 083B9FE5 		mov	r1, r6
 6151 59fc 103093E5 		mov	r2, r3
 6152 5a00 0300A0E1 		mov	r3, r4
 6153 5a04 FEFFFFEB 		bl	__muldf3
 6154 5a08 0030A0E1 		mov	r3, r0
 6155 5a0c 0140A0E1 		mov	r4, r1
 6156 5a10 0300A0E1 		mov	r0, r9
 6157 5a14 0410A0E1 		mov	r1, sl
 6158 5a18 FEFFFFEB 		mov	r2, r3
 6159 5a1c 0030A0E1 		mov	r3, r4
 6160 5a20 0140A0E1 		bl	__adddf3
 6161 5a24 0500A0E1 		mov	r3, r0
 6162 5a28 0610A0E1 		mov	r4, r1
 6163 5a2c 0320A0E1 		mov	r9, r3
 6164 5a30 0430A0E1 		mov	sl, r4
 6165 5a34 FEFFFFEB 		ldr	r3, .L36
 6166 5a38 0030A0E1 		ldr	r3, [r3, #16]	@ float
 6167 5a3c 0140A0E1 		mov	r0, r3
 6168 5a40 0350A0E1 		bl	__extendsfdf2
 6169 5a44 0460A0E1 		mov	r3, r0
 6170 5a48 B83A9FE5 		mov	r4, r1
 6171 5a4c 143093E5 		mov	r0, r3
 6172 5a50 0300A0E1 		mov	r1, r4
 6173 5a54 FEFFFFEB 		bl	cos
 6174 5a58 0030A0E1 		mov	r5, r0
 6175 5a5c 0140A0E1 		mov	r6, r1
 6176 5a60 0300A0E1 		ldr	r3, .L36
 6177 5a64 0410A0E1 		ldr	r3, [r3, #16]	@ float
 6178 5a68 FEFFFFEB 		mov	r0, r3
 6179 5a6c 0030A0E1 		bl	__extendsfdf2
 6180 5a70 0140A0E1 		mov	r3, r0
 6181 5a74 0500A0E1 		mov	r4, r1
 6182 5a78 0610A0E1 		mov	r0, r3
 6183 5a7c 0320A0E1 		mov	r1, r4
 6184 5a80 0430A0E1 		bl	cos
 6185 5a84 FEFFFFEB 		mov	r3, r0
 6186 5a88 0030A0E1 		mov	r4, r1
 6187 5a8c 0140A0E1 		mov	r0, r5
 6188 5a90 0350A0E1 		mov	r1, r6
 6189 5a94 0460A0E1 		mov	r2, r3
 6190 5a98 683A9FE5 		mov	r3, r4
 6191 5a9c 143093E5 		bl	__muldf3
 6192 5aa0 0300A0E1 		mov	r3, r0
 6193 5aa4 FEFFFFEB 		mov	r4, r1
 6194 5aa8 0030A0E1 		mov	r5, r3
 6195 5aac 0140A0E1 		mov	r6, r4
 6196 5ab0 0300A0E1 		ldr	r3, .L36
 6197 5ab4 0410A0E1 		ldr	r3, [r3, #12]	@ float
 6198 5ab8 FEFFFFEB 		mov	r0, r3
 6199 5abc 0030A0E1 		bl	__extendsfdf2
 6200 5ac0 0140A0E1 		mov	r3, r0
 6201 5ac4 0500A0E1 		mov	r4, r1
 6202 5ac8 0610A0E1 		mov	r0, r3
 6203 5acc 0320A0E1 		mov	r1, r4
 6204 5ad0 0430A0E1 		bl	sin
 6205 5ad4 FEFFFFEB 		mov	r3, r0
 6206 5ad8 0030A0E1 		mov	r4, r1
 6207 5adc 0140A0E1 		mov	r0, r5
 6208 5ae0 0350A0E1 		mov	r1, r6
 6209 5ae4 0460A0E1 		mov	r2, r3
 6210 5ae8 183A9FE5 		mov	r3, r4
 6211 5aec 0C3093E5 		bl	__muldf3
 6212 5af0 0300A0E1 		mov	r3, r0
 6213 5af4 FEFFFFEB 		mov	r4, r1
 6214 5af8 0030A0E1 		mov	r5, r3
 6215 5afc 0140A0E1 		mov	r6, r4
 6216 5b00 0300A0E1 		ldr	r3, .L36
 6217 5b04 0410A0E1 		ldr	r3, [r3, #12]	@ float
 6218 5b08 FEFFFFEB 		mov	r0, r3
 6219 5b0c 0030A0E1 		bl	__extendsfdf2
 6220 5b10 0140A0E1 		mov	r3, r0
 6221 5b14 0500A0E1 		mov	r4, r1
 6222 5b18 0610A0E1 		mov	r0, r3
 6223 5b1c 0320A0E1 		mov	r1, r4
 6224 5b20 0430A0E1 		bl	sin
 6225 5b24 FEFFFFEB 		mov	r3, r0
 6226 5b28 0030A0E1 		mov	r4, r1
 6227 5b2c 0140A0E1 		mov	r0, r5
 6228 5b30 0350A0E1 		mov	r1, r6
 6229 5b34 0460A0E1 		mov	r2, r3
 6230 5b38 C8399FE5 		mov	r3, r4
 6231 5b3c 0C3093E5 		bl	__muldf3
 6232 5b40 0300A0E1 		mov	r3, r0
 6233 5b44 FEFFFFEB 		mov	r4, r1
 6234 5b48 0030A0E1 		mov	r5, r3
 6235 5b4c 0140A0E1 		mov	r6, r4
 6236 5b50 0300A0E1 		ldr	r3, .L36
 6237 5b54 0410A0E1 		ldr	r3, [r3, #20]	@ float
 6238 5b58 FEFFFFEB 		mov	r0, r3
 6239 5b5c 0030A0E1 		bl	__extendsfdf2
 6240 5b60 0140A0E1 		mov	r3, r0
 6241 5b64 0500A0E1 		mov	r4, r1
 6242 5b68 0610A0E1 		mov	r0, r3
 6243 5b6c 0320A0E1 		mov	r1, r4
 6244 5b70 0430A0E1 		bl	sin
 6245 5b74 FEFFFFEB 		mov	r3, r0
 6246 5b78 0030A0E1 		mov	r4, r1
 6247 5b7c 0140A0E1 		mov	r0, r5
 6248 5b80 0900A0E1 		mov	r1, r6
 6249 5b84 0A10A0E1 		mov	r2, r3
 6250 5b88 0320A0E1 		mov	r3, r4
 6251 5b8c 0430A0E1 		bl	__muldf3
 6252 5b90 FEFFFFEB 		mov	r3, r0
 6253 5b94 0030A0E1 		mov	r4, r1
 6254 5b98 0140A0E1 		mov	r5, r3
 6255 5b9c 0390A0E1 		mov	r6, r4
 6256 5ba0 04A0A0E1 		ldr	r3, .L36
 6257 5ba4 5C399FE5 		ldr	r3, [r3, #20]	@ float
 6258 5ba8 103093E5 		mov	r0, r3
 6259 5bac 0300A0E1 		bl	__extendsfdf2
 6260 5bb0 FEFFFFEB 		mov	r3, r0
 6261 5bb4 0030A0E1 		mov	r4, r1
 6262 5bb8 0140A0E1 		mov	r0, r3
 6263 5bbc 0300A0E1 		mov	r1, r4
 6264 5bc0 0410A0E1 		bl	sin
 6265 5bc4 FEFFFFEB 		mov	r3, r0
 6266 5bc8 0050A0E1 		mov	r4, r1
 6267 5bcc 0160A0E1 		mov	r0, r5
 6268 5bd0 30399FE5 		mov	r1, r6
 6269 5bd4 103093E5 		mov	r2, r3
 6270 5bd8 0300A0E1 		mov	r3, r4
 6271 5bdc FEFFFFEB 		bl	__muldf3
 6272 5be0 0030A0E1 		mov	r3, r0
 6273 5be4 0140A0E1 		mov	r4, r1
 6274 5be8 0300A0E1 		mov	r0, r9
 6275 5bec 0410A0E1 		mov	r1, sl
 6276 5bf0 FEFFFFEB 		mov	r2, r3
 6277 5bf4 0030A0E1 		mov	r3, r4
 6278 5bf8 0140A0E1 		bl	__adddf3
 6279 5bfc 0500A0E1 		mov	r3, r0
 6280 5c00 0610A0E1 		mov	r4, r1
 6281 5c04 0320A0E1 		mov	r9, r3
 6282 5c08 0430A0E1 		mov	sl, r4
 6283 5c0c FEFFFFEB 		ldr	r3, .L36
 6284 5c10 0030A0E1 		ldr	r3, [r3, #20]	@ float
 6285 5c14 0140A0E1 		mov	r0, r3
 6286 5c18 0350A0E1 		bl	__extendsfdf2
 6287 5c1c 0460A0E1 		mov	r3, r0
 6288 5c20 E0389FE5 		mov	r4, r1
 6289 5c24 0C3093E5 		mov	r0, r3
 6290 5c28 0300A0E1 		mov	r1, r4
 6291 5c2c FEFFFFEB 		bl	cos
 6292 5c30 0030A0E1 		mov	r5, r0
 6293 5c34 0140A0E1 		mov	r6, r1
 6294 5c38 0300A0E1 		ldr	r3, .L36
 6295 5c3c 0410A0E1 		ldr	r3, [r3, #20]	@ float
 6296 5c40 FEFFFFEB 		mov	r0, r3
 6297 5c44 0030A0E1 		bl	__extendsfdf2
 6298 5c48 0140A0E1 		mov	r3, r0
 6299 5c4c 0500A0E1 		mov	r4, r1
 6300 5c50 0610A0E1 		mov	r0, r3
 6301 5c54 0320A0E1 		mov	r1, r4
 6302 5c58 0430A0E1 		bl	cos
 6303 5c5c FEFFFFEB 		mov	r3, r0
 6304 5c60 0030A0E1 		mov	r4, r1
 6305 5c64 0140A0E1 		mov	r0, r5
 6306 5c68 0350A0E1 		mov	r1, r6
 6307 5c6c 0460A0E1 		mov	r2, r3
 6308 5c70 90389FE5 		mov	r3, r4
 6309 5c74 0C3093E5 		bl	__muldf3
 6310 5c78 0300A0E1 		mov	r3, r0
 6311 5c7c FEFFFFEB 		mov	r4, r1
 6312 5c80 0030A0E1 		mov	r5, r3
 6313 5c84 0140A0E1 		mov	r6, r4
 6314 5c88 0300A0E1 		ldr	r3, .L36
 6315 5c8c 0410A0E1 		ldr	r3, [r3, #12]	@ float
 6316 5c90 FEFFFFEB 		mov	r0, r3
 6317 5c94 0030A0E1 		bl	__extendsfdf2
 6318 5c98 0140A0E1 		mov	r3, r0
 6319 5c9c 0500A0E1 		mov	r4, r1
 6320 5ca0 0610A0E1 		mov	r0, r3
 6321 5ca4 0320A0E1 		mov	r1, r4
 6322 5ca8 0430A0E1 		bl	sin
 6323 5cac FEFFFFEB 		mov	r3, r0
 6324 5cb0 0030A0E1 		mov	r4, r1
 6325 5cb4 0140A0E1 		mov	r0, r5
 6326 5cb8 0350A0E1 		mov	r1, r6
 6327 5cbc 0460A0E1 		mov	r2, r3
 6328 5cc0 40389FE5 		mov	r3, r4
 6329 5cc4 143093E5 		bl	__muldf3
 6330 5cc8 0300A0E1 		mov	r3, r0
 6331 5ccc FEFFFFEB 		mov	r4, r1
 6332 5cd0 0030A0E1 		mov	r5, r3
 6333 5cd4 0140A0E1 		mov	r6, r4
 6334 5cd8 0300A0E1 		ldr	r3, .L36
 6335 5cdc 0410A0E1 		ldr	r3, [r3, #12]	@ float
 6336 5ce0 FEFFFFEB 		mov	r0, r3
 6337 5ce4 0030A0E1 		bl	__extendsfdf2
 6338 5ce8 0140A0E1 		mov	r3, r0
 6339 5cec 0500A0E1 		mov	r4, r1
 6340 5cf0 0610A0E1 		mov	r0, r3
 6341 5cf4 0320A0E1 		mov	r1, r4
 6342 5cf8 0430A0E1 		bl	sin
 6343 5cfc FEFFFFEB 		mov	r3, r0
 6344 5d00 0030A0E1 		mov	r4, r1
 6345 5d04 0140A0E1 		mov	r0, r5
 6346 5d08 0350A0E1 		mov	r1, r6
 6347 5d0c 0460A0E1 		mov	r2, r3
 6348 5d10 F0379FE5 		mov	r3, r4
 6349 5d14 143093E5 		bl	__muldf3
 6350 5d18 0300A0E1 		mov	r3, r0
 6351 5d1c FEFFFFEB 		mov	r4, r1
 6352 5d20 0030A0E1 		mov	r5, r3
 6353 5d24 0140A0E1 		mov	r6, r4
 6354 5d28 0300A0E1 		ldr	r3, .L36
 6355 5d2c 0410A0E1 		ldr	r3, [r3, #16]	@ float
 6356 5d30 FEFFFFEB 		mov	r0, r3
 6357 5d34 0030A0E1 		bl	__extendsfdf2
 6358 5d38 0140A0E1 		mov	r3, r0
 6359 5d3c 0500A0E1 		mov	r4, r1
 6360 5d40 0610A0E1 		mov	r0, r3
 6361 5d44 0320A0E1 		mov	r1, r4
 6362 5d48 0430A0E1 		bl	sin
 6363 5d4c FEFFFFEB 		mov	r3, r0
 6364 5d50 0030A0E1 		mov	r4, r1
 6365 5d54 0140A0E1 		mov	r0, r5
 6366 5d58 0900A0E1 		mov	r1, r6
 6367 5d5c 0A10A0E1 		mov	r2, r3
 6368 5d60 0320A0E1 		mov	r3, r4
 6369 5d64 0430A0E1 		bl	__muldf3
 6370 5d68 FEFFFFEB 		mov	r3, r0
 6371 5d6c 0030A0E1 		mov	r4, r1
 6372 5d70 0140A0E1 		mov	r5, r3
 6373 5d74 0390A0E1 		mov	r6, r4
 6374 5d78 04A0A0E1 		ldr	r3, .L36
 6375 5d7c 84379FE5 		ldr	r3, [r3, #16]	@ float
 6376 5d80 143093E5 		mov	r0, r3
 6377 5d84 0300A0E1 		bl	__extendsfdf2
 6378 5d88 FEFFFFEB 		mov	r3, r0
 6379 5d8c 0030A0E1 		mov	r4, r1
 6380 5d90 0140A0E1 		mov	r0, r3
 6381 5d94 0300A0E1 		mov	r1, r4
 6382 5d98 0410A0E1 		bl	sin
 6383 5d9c FEFFFFEB 		mov	r3, r0
 6384 5da0 0050A0E1 		mov	r4, r1
 6385 5da4 0160A0E1 		mov	r0, r5
 6386 5da8 58379FE5 		mov	r1, r6
 6387 5dac 143093E5 		mov	r2, r3
 6388 5db0 0300A0E1 		mov	r3, r4
 6389 5db4 FEFFFFEB 		bl	__muldf3
 6390 5db8 0030A0E1 		mov	r3, r0
 6391 5dbc 0140A0E1 		mov	r4, r1
 6392 5dc0 0300A0E1 		mov	r0, r9
 6393 5dc4 0410A0E1 		mov	r1, sl
 6394 5dc8 FEFFFFEB 		mov	r2, r3
 6395 5dcc 0030A0E1 		mov	r3, r4
 6396 5dd0 0140A0E1 		bl	__adddf3
 6397 5dd4 0500A0E1 		mov	r3, r0
 6398 5dd8 0610A0E1 		mov	r4, r1
 6399 5ddc 0320A0E1 		mov	r9, r3
 6400 5de0 0430A0E1 		mov	sl, r4
 6401 5de4 FEFFFFEB 		ldr	r3, .L36
 6402 5de8 0030A0E1 		ldr	r3, [r3, #12]	@ float
 6403 5dec 0140A0E1 		mov	r0, r3
 6404 5df0 0350A0E1 		bl	__extendsfdf2
 6405 5df4 0460A0E1 		mov	r3, r0
 6406 5df8 08379FE5 		mov	r4, r1
 6407 5dfc 0C3093E5 		mov	r0, r3
 6408 5e00 0300A0E1 		mov	r1, r4
 6409 5e04 FEFFFFEB 		bl	sin
 6410 5e08 0030A0E1 		mov	r5, r0
 6411 5e0c 0140A0E1 		mov	r6, r1
 6412 5e10 0300A0E1 		ldr	r3, .L36
 6413 5e14 0410A0E1 		ldr	r3, [r3, #12]	@ float
 6414 5e18 FEFFFFEB 		mov	r0, r3
 6415 5e1c 0030A0E1 		bl	__extendsfdf2
 6416 5e20 0140A0E1 		mov	r3, r0
 6417 5e24 0500A0E1 		mov	r4, r1
 6418 5e28 0610A0E1 		mov	r0, r3
 6419 5e2c 0320A0E1 		mov	r1, r4
 6420 5e30 0430A0E1 		bl	sin
 6421 5e34 FEFFFFEB 		mov	r3, r0
 6422 5e38 0030A0E1 		mov	r4, r1
 6423 5e3c 0140A0E1 		mov	r0, r5
 6424 5e40 0350A0E1 		mov	r1, r6
 6425 5e44 0460A0E1 		mov	r2, r3
 6426 5e48 B8369FE5 		mov	r3, r4
 6427 5e4c 0C3093E5 		bl	__muldf3
 6428 5e50 0300A0E1 		mov	r3, r0
 6429 5e54 FEFFFFEB 		mov	r4, r1
 6430 5e58 0030A0E1 		mov	r5, r3
 6431 5e5c 0140A0E1 		mov	r6, r4
 6432 5e60 0300A0E1 		ldr	r3, .L36
 6433 5e64 0410A0E1 		ldr	r3, [r3, #16]	@ float
 6434 5e68 FEFFFFEB 		mov	r0, r3
 6435 5e6c 0030A0E1 		bl	__extendsfdf2
 6436 5e70 0140A0E1 		mov	r3, r0
 6437 5e74 0500A0E1 		mov	r4, r1
 6438 5e78 0610A0E1 		mov	r0, r3
 6439 5e7c 0320A0E1 		mov	r1, r4
 6440 5e80 0430A0E1 		bl	sin
 6441 5e84 FEFFFFEB 		mov	r3, r0
 6442 5e88 0030A0E1 		mov	r4, r1
 6443 5e8c 0140A0E1 		mov	r0, r5
 6444 5e90 0350A0E1 		mov	r1, r6
 6445 5e94 0460A0E1 		mov	r2, r3
 6446 5e98 68369FE5 		mov	r3, r4
 6447 5e9c 103093E5 		bl	__muldf3
 6448 5ea0 0300A0E1 		mov	r3, r0
 6449 5ea4 FEFFFFEB 		mov	r4, r1
 6450 5ea8 0030A0E1 		mov	r5, r3
 6451 5eac 0140A0E1 		mov	r6, r4
 6452 5eb0 0300A0E1 		ldr	r3, .L36
 6453 5eb4 0410A0E1 		ldr	r3, [r3, #16]	@ float
 6454 5eb8 FEFFFFEB 		mov	r0, r3
 6455 5ebc 0030A0E1 		bl	__extendsfdf2
 6456 5ec0 0140A0E1 		mov	r3, r0
 6457 5ec4 0500A0E1 		mov	r4, r1
 6458 5ec8 0610A0E1 		mov	r0, r3
 6459 5ecc 0320A0E1 		mov	r1, r4
 6460 5ed0 0430A0E1 		bl	sin
 6461 5ed4 FEFFFFEB 		mov	r3, r0
 6462 5ed8 0030A0E1 		mov	r4, r1
 6463 5edc 0140A0E1 		mov	r0, r5
 6464 5ee0 0350A0E1 		mov	r1, r6
 6465 5ee4 0460A0E1 		mov	r2, r3
 6466 5ee8 18369FE5 		mov	r3, r4
 6467 5eec 103093E5 		bl	__muldf3
 6468 5ef0 0300A0E1 		mov	r3, r0
 6469 5ef4 FEFFFFEB 		mov	r4, r1
 6470 5ef8 0030A0E1 		mov	r5, r3
 6471 5efc 0140A0E1 		mov	r6, r4
 6472 5f00 0300A0E1 		ldr	r3, .L36
 6473 5f04 0410A0E1 		ldr	r3, [r3, #20]	@ float
 6474 5f08 FEFFFFEB 		mov	r0, r3
 6475 5f0c 0030A0E1 		bl	__extendsfdf2
 6476 5f10 0140A0E1 		mov	r3, r0
 6477 5f14 0500A0E1 		mov	r4, r1
 6478 5f18 0610A0E1 		mov	r0, r3
 6479 5f1c 0320A0E1 		mov	r1, r4
 6480 5f20 0430A0E1 		bl	sin
 6481 5f24 FEFFFFEB 		mov	r3, r0
 6482 5f28 0030A0E1 		mov	r4, r1
 6483 5f2c 0140A0E1 		mov	r0, r5
 6484 5f30 0900A0E1 		mov	r1, r6
 6485 5f34 0A10A0E1 		mov	r2, r3
 6486 5f38 0320A0E1 		mov	r3, r4
 6487 5f3c 0430A0E1 		bl	__muldf3
 6488 5f40 FEFFFFEB 		mov	r3, r0
 6489 5f44 0030A0E1 		mov	r4, r1
 6490 5f48 0140A0E1 		mov	r5, r3
 6491 5f4c 0390A0E1 		mov	r6, r4
 6492 5f50 04A0A0E1 		ldr	r3, .L36
 6493 5f54 AC359FE5 		ldr	r3, [r3, #20]	@ float
 6494 5f58 0C3093E5 		mov	r0, r3
 6495 5f5c 0300A0E1 		bl	__extendsfdf2
 6496 5f60 FEFFFFEB 		mov	r3, r0
 6497 5f64 0030A0E1 		mov	r4, r1
 6498 5f68 0140A0E1 		mov	r0, r3
 6499 5f6c 0300A0E1 		mov	r1, r4
 6500 5f70 0410A0E1 		bl	sin
 6501 5f74 FEFFFFEB 		mov	r3, r0
 6502 5f78 0050A0E1 		mov	r4, r1
 6503 5f7c 0160A0E1 		mov	r0, r5
 6504 5f80 80359FE5 		mov	r1, r6
 6505 5f84 0C3093E5 		mov	r2, r3
 6506 5f88 0300A0E1 		mov	r3, r4
 6507 5f8c FEFFFFEB 		bl	__muldf3
 6508 5f90 0030A0E1 		mov	r3, r0
 6509 5f94 0140A0E1 		mov	r4, r1
 6510 5f98 0300A0E1 		mov	r0, r9
 6511 5f9c 0410A0E1 		mov	r1, sl
 6512 5fa0 FEFFFFEB 		mov	r2, r3
 6513 5fa4 0030A0E1 		mov	r3, r4
 6514 5fa8 0140A0E1 		bl	__adddf3
 6515 5fac 0500A0E1 		mov	r3, r0
 6516 5fb0 0610A0E1 		mov	r4, r1
 6517 5fb4 0320A0E1 		mov	r0, r7
 6518 5fb8 0430A0E1 		mov	r1, r8
 6519 5fbc FEFFFFEB 		mov	r2, r3
 6520 5fc0 0030A0E1 		mov	r3, r4
 6521 5fc4 0140A0E1 		bl	__divdf3
 6522 5fc8 0350A0E1 		mov	r3, r0
 6523 5fcc 0460A0E1 		mov	r4, r1
 6524 5fd0 30359FE5 		mov	r0, r3
 6525 5fd4 103093E5 		mov	r1, r4
 6526 5fd8 0300A0E1 		bl	__truncdfsf2
 6527 5fdc FEFFFFEB 		mov	r3, r0
 6528 5fe0 0030A0E1 		str	r3, [fp, #-136]	@ float
 6529 5fe4 0140A0E1 		.loc 1 273 0
 6530 5fe8 0300A0E1 		ldr	r3, .L36
 6531 5fec 0410A0E1 		ldr	r3, [r3, #12]	@ float
 6532 5ff0 FEFFFFEB 		mov	r0, r3
 6533 5ff4 0030A0E1 		bl	__extendsfdf2
 6534 5ff8 0140A0E1 		mov	r3, r0
 6535 5ffc 0500A0E1 		mov	r4, r1
 6536 6000 0610A0E1 		mov	r0, r3
 6537 6004 0320A0E1 		mov	r1, r4
 6538 6008 0430A0E1 		bl	cos
 6539 600c FEFFFFEB 		mov	r5, r0
 6540 6010 0030A0E1 		mov	r6, r1
 6541 6014 0140A0E1 		ldr	r3, .L36
 6542 6018 0350A0E1 		ldr	r3, [r3, #16]	@ float
 6543 601c 0460A0E1 		mov	r0, r3
 6544 6020 E0349FE5 		bl	__extendsfdf2
 6545 6024 103093E5 		mov	r3, r0
 6546 6028 0300A0E1 		mov	r4, r1
 6547 602c FEFFFFEB 		mov	r0, r3
 6548 6030 0030A0E1 		mov	r1, r4
 6549 6034 0140A0E1 		bl	cos
 6550 6038 0300A0E1 		mov	r3, r0
 6551 603c 0410A0E1 		mov	r4, r1
 6552 6040 FEFFFFEB 		mov	r0, r5
 6553 6044 0030A0E1 		mov	r1, r6
 6554 6048 0140A0E1 		mov	r2, r3
 6555 604c 0500A0E1 		mov	r3, r4
 6556 6050 0610A0E1 		bl	__muldf3
 6557 6054 0320A0E1 		mov	r3, r0
 6558 6058 0430A0E1 		mov	r4, r1
 6559 605c FEFFFFEB 		mov	r5, r3
 6560 6060 0030A0E1 		mov	r6, r4
 6561 6064 0140A0E1 		ldr	r3, .L36
 6562 6068 0350A0E1 		ldr	r3, [r3, #16]	@ float
 6563 606c 0460A0E1 		mov	r0, r3
 6564 6070 90349FE5 		bl	__extendsfdf2
 6565 6074 143093E5 		mov	r3, r0
 6566 6078 0300A0E1 		mov	r4, r1
 6567 607c FEFFFFEB 		mov	r0, r3
 6568 6080 0030A0E1 		mov	r1, r4
 6569 6084 0140A0E1 		bl	cos
 6570 6088 0300A0E1 		mov	r3, r0
 6571 608c 0410A0E1 		mov	r4, r1
 6572 6090 FEFFFFEB 		mov	r0, r5
 6573 6094 0030A0E1 		mov	r1, r6
 6574 6098 0140A0E1 		mov	r2, r3
 6575 609c 0500A0E1 		mov	r3, r4
 6576 60a0 0610A0E1 		bl	__muldf3
 6577 60a4 0320A0E1 		mov	r3, r0
 6578 60a8 0430A0E1 		mov	r4, r1
 6579 60ac FEFFFFEB 		mov	r5, r3
 6580 60b0 0030A0E1 		mov	r6, r4
 6581 60b4 0140A0E1 		ldr	r3, .L36
 6582 60b8 0350A0E1 		ldr	r3, [r3, #20]	@ float
 6583 60bc 0460A0E1 		mov	r0, r3
 6584 60c0 40349FE5 		bl	__extendsfdf2
 6585 60c4 143093E5 		mov	r3, r0
 6586 60c8 0300A0E1 		mov	r4, r1
 6587 60cc FEFFFFEB 		mov	r0, r3
 6588 60d0 0030A0E1 		mov	r1, r4
 6589 60d4 0140A0E1 		bl	sin
 6590 60d8 0300A0E1 		mov	r3, r0
 6591 60dc 0410A0E1 		mov	r4, r1
 6592 60e0 FEFFFFEB 		mov	r0, r5
 6593 60e4 0030A0E1 		mov	r1, r6
 6594 60e8 0140A0E1 		mov	r2, r3
 6595 60ec 0500A0E1 		mov	r3, r4
 6596 60f0 0610A0E1 		bl	__muldf3
 6597 60f4 0320A0E1 		mov	r3, r0
 6598 60f8 0430A0E1 		mov	r4, r1
 6599 60fc FEFFFFEB 		mov	r7, r3
 6600 6100 0030A0E1 		mov	r8, r4
 6601 6104 0140A0E1 		ldr	r3, .L36
 6602 6108 0900A0E1 		ldr	r3, [r3, #20]	@ float
 6603 610c 0A10A0E1 		mov	r0, r3
 6604 6110 0320A0E1 		bl	__extendsfdf2
 6605 6114 0430A0E1 		mov	r3, r0
 6606 6118 FEFFFFEB 		mov	r4, r1
 6607 611c 0030A0E1 		mov	r0, r3
 6608 6120 0140A0E1 		mov	r1, r4
 6609 6124 0700A0E1 		bl	cos
 6610 6128 0810A0E1 		mov	r5, r0
 6611 612c 0320A0E1 		mov	r6, r1
 6612 6130 0430A0E1 		ldr	r3, .L36
 6613 6134 FEFFFFEB 		ldr	r3, [r3, #12]	@ float
 6614 6138 0030A0E1 		mov	r0, r3
 6615 613c 0140A0E1 		bl	__extendsfdf2
 6616 6140 0300A0E1 		mov	r3, r0
 6617 6144 0410A0E1 		mov	r4, r1
 6618 6148 FEFFFFEB 		mov	r0, r3
 6619 614c 0030A0E1 		mov	r1, r4
 6620 6150 88300BE5 		bl	sin
 273:lab.c         **** 	Rinv[8] = -(cos(xd[3])*cos(xd[4])*cos(xd[4])*sin(xd[5]) - cos(xd[5])*sin(xd[3])*sin(xd[4]) + cos(x
 6621              	0
 6622 6154 AC339FE5 		mov	r4, r1
 6623 6158 0C3093E5 		mov	r0, r3
 6624 615c 0300A0E1 		mov	r1, r4
 6625 6160 FEFFFFEB 		bl	sin
 6626 6164 0030A0E1 		mov	r3, r0
 6627 6168 0140A0E1 		mov	r4, r1
 6628 616c 0300A0E1 		mov	r0, r5
 6629 6170 0410A0E1 		mov	r1, r6
 6630 6174 FEFFFFEB 		mov	r2, r3
 6631 6178 0050A0E1 		mov	r3, r4
 6632 617c 0160A0E1 		bl	__muldf3
 6633 6180 80339FE5 		mov	r3, r0
 6634 6184 103093E5 		mov	r4, r1
 6635 6188 0300A0E1 		mov	r0, r7
 6636 618c FEFFFFEB 		mov	r1, r8
 6637 6190 0030A0E1 		mov	r2, r3
 6638 6194 0140A0E1 		mov	r3, r4
 6639 6198 0300A0E1 		bl	__subdf3
 6640 619c 0410A0E1 		mov	r3, r0
 6641 61a0 FEFFFFEB 		mov	r4, r1
 6642 61a4 0030A0E1 		mov	r7, r3
 6643 61a8 0140A0E1 		mov	r8, r4
 6644 61ac 0500A0E1 		ldr	r3, .L36
 6645 61b0 0610A0E1 		ldr	r3, [r3, #12]	@ float
 6646 61b4 0320A0E1 		mov	r0, r3
 6647 61b8 0430A0E1 		bl	__extendsfdf2
 6648 61bc FEFFFFEB 		mov	r3, r0
 6649 61c0 0030A0E1 		mov	r4, r1
 6650 61c4 0140A0E1 		mov	r0, r3
 6651 61c8 0350A0E1 		mov	r1, r4
 6652 61cc 0460A0E1 		bl	cos
 6653 61d0 30339FE5 		mov	r5, r0
 6654 61d4 103093E5 		mov	r6, r1
 6655 61d8 0300A0E1 		ldr	r3, .L36
 6656 61dc FEFFFFEB 		ldr	r3, [r3, #16]	@ float
 6657 61e0 0030A0E1 		mov	r0, r3
 6658 61e4 0140A0E1 		bl	__extendsfdf2
 6659 61e8 0300A0E1 		mov	r3, r0
 6660 61ec 0410A0E1 		mov	r4, r1
 6661 61f0 FEFFFFEB 		mov	r0, r3
 6662 61f4 0030A0E1 		mov	r1, r4
 6663 61f8 0140A0E1 		bl	sin
 6664 61fc 0500A0E1 		mov	r3, r0
 6665 6200 0610A0E1 		mov	r4, r1
 6666 6204 0320A0E1 		mov	r0, r5
 6667 6208 0430A0E1 		mov	r1, r6
 6668 620c FEFFFFEB 		mov	r2, r3
 6669 6210 0030A0E1 		mov	r3, r4
 6670 6214 0140A0E1 		bl	__muldf3
 6671 6218 0350A0E1 		mov	r3, r0
 6672 621c 0460A0E1 		mov	r4, r1
 6673 6220 E0329FE5 		mov	r5, r3
 6674 6224 143093E5 		mov	r6, r4
 6675 6228 0300A0E1 		ldr	r3, .L36
 6676 622c FEFFFFEB 		ldr	r3, [r3, #16]	@ float
 6677 6230 0030A0E1 		mov	r0, r3
 6678 6234 0140A0E1 		bl	__extendsfdf2
 6679 6238 0300A0E1 		mov	r3, r0
 6680 623c 0410A0E1 		mov	r4, r1
 6681 6240 FEFFFFEB 		mov	r0, r3
 6682 6244 0030A0E1 		mov	r1, r4
 6683 6248 0140A0E1 		bl	sin
 6684 624c 0500A0E1 		mov	r3, r0
 6685 6250 0610A0E1 		mov	r4, r1
 6686 6254 0320A0E1 		mov	r0, r5
 6687 6258 0430A0E1 		mov	r1, r6
 6688 625c FEFFFFEB 		mov	r2, r3
 6689 6260 0030A0E1 		mov	r3, r4
 6690 6264 0140A0E1 		bl	__muldf3
 6691 6268 0370A0E1 		mov	r3, r0
 6692 626c 0480A0E1 		mov	r4, r1
 6693 6270 90329FE5 		mov	r5, r3
 6694 6274 143093E5 		mov	r6, r4
 6695 6278 0300A0E1 		ldr	r3, .L36
 6696 627c FEFFFFEB 		ldr	r3, [r3, #20]	@ float
 6697 6280 0030A0E1 		mov	r0, r3
 6698 6284 0140A0E1 		bl	__extendsfdf2
 6699 6288 0300A0E1 		mov	r3, r0
 6700 628c 0410A0E1 		mov	r4, r1
 6701 6290 FEFFFFEB 		mov	r0, r3
 6702 6294 0050A0E1 		mov	r1, r4
 6703 6298 0160A0E1 		bl	sin
 6704 629c 64329FE5 		mov	r3, r0
 6705 62a0 0C3093E5 		mov	r4, r1
 6706 62a4 0300A0E1 		mov	r0, r5
 6707 62a8 FEFFFFEB 		mov	r1, r6
 6708 62ac 0030A0E1 		mov	r2, r3
 6709 62b0 0140A0E1 		mov	r3, r4
 6710 62b4 0300A0E1 		bl	__muldf3
 6711 62b8 0410A0E1 		mov	r3, r0
 6712 62bc FEFFFFEB 		mov	r4, r1
 6713 62c0 0030A0E1 		mov	r0, r7
 6714 62c4 0140A0E1 		mov	r1, r8
 6715 62c8 0500A0E1 		mov	r2, r3
 6716 62cc 0610A0E1 		mov	r3, r4
 6717 62d0 0320A0E1 		bl	__adddf3
 6718 62d4 0430A0E1 		mov	r3, r0
 6719 62d8 FEFFFFEB 		mov	r4, r1
 6720 62dc 0030A0E1 		eor	r7, r3, #-2147483648
 6721 62e0 0140A0E1 		mov	r8, r4
 6722 62e4 0350A0E1 		ldr	r3, .L36
 6723 62e8 0460A0E1 		ldr	r3, [r3, #12]	@ float
 6724 62ec 14329FE5 		mov	r0, r3
 6725 62f0 103093E5 		bl	__extendsfdf2
 6726 62f4 0300A0E1 		mov	r3, r0
 6727 62f8 FEFFFFEB 		mov	r4, r1
 6728 62fc 0030A0E1 		mov	r0, r3
 6729 6300 0140A0E1 		mov	r1, r4
 6730 6304 0300A0E1 		bl	cos
 6731 6308 0410A0E1 		mov	r5, r0
 6732 630c FEFFFFEB 		mov	r6, r1
 6733 6310 0030A0E1 		ldr	r3, .L36
 6734 6314 0140A0E1 		ldr	r3, [r3, #12]	@ float
 6735 6318 0500A0E1 		mov	r0, r3
 6736 631c 0610A0E1 		bl	__extendsfdf2
 6737 6320 0320A0E1 		mov	r3, r0
 6738 6324 0430A0E1 		mov	r4, r1
 6739 6328 FEFFFFEB 		mov	r0, r3
 6740 632c 0030A0E1 		mov	r1, r4
 6741 6330 0140A0E1 		bl	cos
 6742 6334 0700A0E1 		mov	r3, r0
 6743 6338 0810A0E1 		mov	r4, r1
 6744 633c 0320A0E1 		mov	r0, r5
 6745 6340 0430A0E1 		mov	r1, r6
 6746 6344 FEFFFFEB 		mov	r2, r3
 6747 6348 0030A0E1 		mov	r3, r4
 6748 634c 0140A0E1 		bl	__muldf3
 6749 6350 0370A0E1 		mov	r3, r0
 6750 6354 0480A0E1 		mov	r4, r1
 6751 6358 A8319FE5 		b	.L37
 6752 635c 0C3093E5 	.L38:
 6753 6360 0300A0E1 		.align	2
 6754 6364 FEFFFFEB 	.L36:
 6755 6368 0030A0E1 		.word	xd
 6756 636c 0140A0E1 		.word	C.23.3776
 6757 6370 0300A0E1 		.word	n_des
 6758 6374 0410A0E1 		.word	fsum_des
 6759 6378 FEFFFFEB 		.word	mass
 6760 637c 0050A0E1 		.word	nz_eq
 6761 6380 0160A0E1 	.L37:
 6762 6384 7C319FE5 		mov	r5, r3
 6763 6388 103093E5 		mov	r6, r4
 6764 638c 0300A0E1 		ldr	r3, .L36
 6765 6390 FEFFFFEB 		ldr	r3, [r3, #16]	@ float
 6766 6394 0030A0E1 		mov	r0, r3
 6767 6398 0140A0E1 		bl	__extendsfdf2
 6768 639c 0300A0E1 		mov	r3, r0
 6769 63a0 0410A0E1 		mov	r4, r1
 6770 63a4 FEFFFFEB 		mov	r0, r3
 6771 63a8 0030A0E1 		mov	r1, r4
 6772 63ac 0140A0E1 		bl	cos
 6773 63b0 0500A0E1 		mov	r3, r0
 6774 63b4 0610A0E1 		mov	r4, r1
 6775 63b8 0320A0E1 		mov	r0, r5
 6776 63bc 0430A0E1 		mov	r1, r6
 6777 63c0 FEFFFFEB 		mov	r2, r3
 6778 63c4 0030A0E1 		mov	r3, r4
 6779 63c8 0140A0E1 		bl	__muldf3
 6780 63cc 0350A0E1 		mov	r3, r0
 6781 63d0 0460A0E1 		mov	r4, r1
 6782 63d4 2C319FE5 		mov	r5, r3
 6783 63d8 103093E5 		mov	r6, r4
 6784 63dc 0300A0E1 		ldr	r3, .L36
 6785 63e0 FEFFFFEB 		ldr	r3, [r3, #16]	@ float
 6786 63e4 0030A0E1 		mov	r0, r3
 6787 63e8 0140A0E1 		bl	__extendsfdf2
 6788 63ec 0300A0E1 		mov	r3, r0
 6789 63f0 0410A0E1 		mov	r4, r1
 6790 63f4 FEFFFFEB 		mov	r0, r3
 6791 63f8 0030A0E1 		mov	r1, r4
 6792 63fc 0140A0E1 		bl	cos
 6793 6400 0500A0E1 		mov	r3, r0
 6794 6404 0610A0E1 		mov	r4, r1
 6795 6408 0320A0E1 		mov	r0, r5
 6796 640c 0430A0E1 		mov	r1, r6
 6797 6410 FEFFFFEB 		mov	r2, r3
 6798 6414 0030A0E1 		mov	r3, r4
 6799 6418 0140A0E1 		bl	__muldf3
 6800 641c 0350A0E1 		mov	r3, r0
 6801 6420 0460A0E1 		mov	r4, r1
 6802 6424 DC309FE5 		mov	r5, r3
 6803 6428 143093E5 		mov	r6, r4
 6804 642c 0300A0E1 		ldr	r3, .L36
 6805 6430 FEFFFFEB 		ldr	r3, [r3, #20]	@ float
 6806 6434 0030A0E1 		mov	r0, r3
 6807 6438 0140A0E1 		bl	__extendsfdf2
 6808 643c 0300A0E1 		mov	r3, r0
 6809 6440 0410A0E1 		mov	r4, r1
 6810 6444 FEFFFFEB 		mov	r0, r3
 6811 6448 0030A0E1 		mov	r1, r4
 6812 644c 0140A0E1 		bl	cos
 6813 6450 0500A0E1 		mov	r3, r0
 6814 6454 0610A0E1 		mov	r4, r1
 6815 6458 0320A0E1 		mov	r0, r5
 6816 645c 0430A0E1 		mov	r1, r6
 6817 6460 FEFFFFEB 		mov	r2, r3
 6818 6464 0030A0E1 		mov	r3, r4
 6819 6468 0140A0E1 		bl	__muldf3
 6820 646c 0700A0E1 		mov	r3, r0
 6821 6470 0810A0E1 		mov	r4, r1
 6822 6474 0320A0E1 		mov	r5, r3
 6823 6478 0430A0E1 		mov	r6, r4
 6824 647c FEFFFFEB 		ldr	r3, .L36
 6825 6480 0030A0E1 		ldr	r3, [r3, #20]	@ float
 6826 6484 0140A0E1 		mov	r0, r3
 6827 6488 027123E2 		bl	__extendsfdf2
 6828 648c 0480A0E1 		mov	r3, r0
 6829 6490 70309FE5 		mov	r4, r1
 6830 6494 0C3093E5 		mov	r0, r3
 6831 6498 0300A0E1 		mov	r1, r4
 6832 649c FEFFFFEB 		bl	cos
 6833 64a0 0030A0E1 		mov	r3, r0
 6834 64a4 0140A0E1 		mov	r4, r1
 6835 64a8 0300A0E1 		mov	r0, r5
 6836 64ac 0410A0E1 		mov	r1, r6
 6837 64b0 FEFFFFEB 		mov	r2, r3
 6838 64b4 0050A0E1 		mov	r3, r4
 6839 64b8 0160A0E1 		bl	__muldf3
 6840 64bc 44309FE5 		mov	r3, r0
 6841 64c0 0C3093E5 		mov	r4, r1
 6842 64c4 0300A0E1 		mov	r9, r3
 6843 64c8 FEFFFFEB 		mov	sl, r4
 6844 64cc 0030A0E1 		ldr	r3, .L36
 6845 64d0 0140A0E1 		ldr	r3, [r3, #12]	@ float
 6846 64d4 0300A0E1 		mov	r0, r3
 6847 64d8 0410A0E1 		bl	__extendsfdf2
 6848 64dc FEFFFFEB 		mov	r3, r0
 6849 64e0 0030A0E1 		mov	r4, r1
 6850 64e4 0140A0E1 		mov	r0, r3
 6851 64e8 0500A0E1 		mov	r1, r4
 6852 64ec 0610A0E1 		bl	cos
 6853 64f0 0320A0E1 		mov	r5, r0
 6854 64f4 0430A0E1 		mov	r6, r1
 6855 64f8 FEFFFFEB 		ldr	r3, .L36
 6856 64fc 0030A0E1 		ldr	r3, [r3, #12]	@ float
 6857 6500 0140A0E1 		mov	r0, r3
 6858 6504 050000EA 		bl	__extendsfdf2
 6859              		mov	r3, r0
 6860              		mov	r4, r1
 6861              		mov	r0, r3
 6862 6508 00000000 		mov	r1, r4
 6863 650c 00000000 		bl	cos
 6864 6510 00000000 		mov	r3, r0
 6865 6514 00000000 		mov	r4, r1
 6866 6518 00000000 		mov	r0, r5
 6867 651c 00000000 		mov	r1, r6
 6868              		mov	r2, r3
 6869 6520 0350A0E1 		mov	r3, r4
 6870 6524 0460A0E1 		bl	__muldf3
 6871 6528 28301FE5 		mov	r3, r0
 6872 652c 103093E5 		mov	r4, r1
 6873 6530 0300A0E1 		mov	r5, r3
 6874 6534 FEFFFFEB 		mov	r6, r4
 6875 6538 0030A0E1 		ldr	r3, .L36
 6876 653c 0140A0E1 		ldr	r3, [r3, #16]	@ float
 6877 6540 0300A0E1 		mov	r0, r3
 6878 6544 0410A0E1 		bl	__extendsfdf2
 6879 6548 FEFFFFEB 		mov	r3, r0
 6880 654c 0030A0E1 		mov	r4, r1
 6881 6550 0140A0E1 		mov	r0, r3
 6882 6554 0500A0E1 		mov	r1, r4
 6883 6558 0610A0E1 		bl	cos
 6884 655c 0320A0E1 		mov	r3, r0
 6885 6560 0430A0E1 		mov	r4, r1
 6886 6564 FEFFFFEB 		mov	r0, r5
 6887 6568 0030A0E1 		mov	r1, r6
 6888 656c 0140A0E1 		mov	r2, r3
 6889 6570 0350A0E1 		mov	r3, r4
 6890 6574 0460A0E1 		bl	__muldf3
 6891 6578 78301FE5 		mov	r3, r0
 6892 657c 103093E5 		mov	r4, r1
 6893 6580 0300A0E1 		mov	r5, r3
 6894 6584 FEFFFFEB 		mov	r6, r4
 6895 6588 0030A0E1 		ldr	r3, .L36
 6896 658c 0140A0E1 		ldr	r3, [r3, #16]	@ float
 6897 6590 0300A0E1 		mov	r0, r3
 6898 6594 0410A0E1 		bl	__extendsfdf2
 6899 6598 FEFFFFEB 		mov	r3, r0
 6900 659c 0030A0E1 		mov	r4, r1
 6901 65a0 0140A0E1 		mov	r0, r3
 6902 65a4 0500A0E1 		mov	r1, r4
 6903 65a8 0610A0E1 		bl	cos
 6904 65ac 0320A0E1 		mov	r3, r0
 6905 65b0 0430A0E1 		mov	r4, r1
 6906 65b4 FEFFFFEB 		mov	r0, r5
 6907 65b8 0030A0E1 		mov	r1, r6
 6908 65bc 0140A0E1 		mov	r2, r3
 6909 65c0 0350A0E1 		mov	r3, r4
 6910 65c4 0460A0E1 		bl	__muldf3
 6911 65c8 C8301FE5 		mov	r3, r0
 6912 65cc 143093E5 		mov	r4, r1
 6913 65d0 0300A0E1 		mov	r5, r3
 6914 65d4 FEFFFFEB 		mov	r6, r4
 6915 65d8 0030A0E1 		ldr	r3, .L36
 6916 65dc 0140A0E1 		ldr	r3, [r3, #20]	@ float
 6917 65e0 0300A0E1 		mov	r0, r3
 6918 65e4 0410A0E1 		bl	__extendsfdf2
 6919 65e8 FEFFFFEB 		mov	r3, r0
 6920 65ec 0030A0E1 		mov	r4, r1
 6921 65f0 0140A0E1 		mov	r0, r3
 6922 65f4 0500A0E1 		mov	r1, r4
 6923 65f8 0610A0E1 		bl	sin
 6924 65fc 0320A0E1 		mov	r3, r0
 6925 6600 0430A0E1 		mov	r4, r1
 6926 6604 FEFFFFEB 		mov	r0, r5
 6927 6608 0030A0E1 		mov	r1, r6
 6928 660c 0140A0E1 		mov	r2, r3
 6929 6610 0350A0E1 		mov	r3, r4
 6930 6614 0460A0E1 		bl	__muldf3
 6931 6618 18311FE5 		mov	r3, r0
 6932 661c 143093E5 		mov	r4, r1
 6933 6620 0300A0E1 		mov	r5, r3
 6934 6624 FEFFFFEB 		mov	r6, r4
 6935 6628 0030A0E1 		ldr	r3, .L36
 6936 662c 0140A0E1 		ldr	r3, [r3, #20]	@ float
 6937 6630 0300A0E1 		mov	r0, r3
 6938 6634 0410A0E1 		bl	__extendsfdf2
 6939 6638 FEFFFFEB 		mov	r3, r0
 6940 663c 0030A0E1 		mov	r4, r1
 6941 6640 0140A0E1 		mov	r0, r3
 6942 6644 0500A0E1 		mov	r1, r4
 6943 6648 0610A0E1 		bl	sin
 6944 664c 0320A0E1 		mov	r3, r0
 6945 6650 0430A0E1 		mov	r4, r1
 6946 6654 FEFFFFEB 		mov	r0, r5
 6947 6658 0030A0E1 		mov	r1, r6
 6948 665c 0140A0E1 		mov	r2, r3
 6949 6660 0390A0E1 		mov	r3, r4
 6950 6664 04A0A0E1 		bl	__muldf3
 6951 6668 68311FE5 		mov	r3, r0
 6952 666c 0C3093E5 		mov	r4, r1
 6953 6670 0300A0E1 		mov	r0, r9
 6954 6674 FEFFFFEB 		mov	r1, sl
 6955 6678 0030A0E1 		mov	r2, r3
 6956 667c 0140A0E1 		mov	r3, r4
 6957 6680 0300A0E1 		bl	__adddf3
 6958 6684 0410A0E1 		mov	r3, r0
 6959 6688 FEFFFFEB 		mov	r4, r1
 6960 668c 0050A0E1 		mov	r9, r3
 6961 6690 0160A0E1 		mov	sl, r4
 6962 6694 94311FE5 		ldr	r3, .L36
 6963 6698 0C3093E5 		ldr	r3, [r3, #12]	@ float
 6964 669c 0300A0E1 		mov	r0, r3
 6965 66a0 FEFFFFEB 		bl	__extendsfdf2
 6966 66a4 0030A0E1 		mov	r3, r0
 6967 66a8 0140A0E1 		mov	r4, r1
 6968 66ac 0300A0E1 		mov	r0, r3
 6969 66b0 0410A0E1 		mov	r1, r4
 6970 66b4 FEFFFFEB 		bl	cos
 6971 66b8 0030A0E1 		mov	r5, r0
 6972 66bc 0140A0E1 		mov	r6, r1
 6973 66c0 0500A0E1 		ldr	r3, .L36
 6974 66c4 0610A0E1 		ldr	r3, [r3, #12]	@ float
 6975 66c8 0320A0E1 		mov	r0, r3
 6976 66cc 0430A0E1 		bl	__extendsfdf2
 6977 66d0 FEFFFFEB 		mov	r3, r0
 6978 66d4 0030A0E1 		mov	r4, r1
 6979 66d8 0140A0E1 		mov	r0, r3
 6980 66dc 0350A0E1 		mov	r1, r4
 6981 66e0 0460A0E1 		bl	cos
 6982 66e4 E4311FE5 		mov	r3, r0
 6983 66e8 103093E5 		mov	r4, r1
 6984 66ec 0300A0E1 		mov	r0, r5
 6985 66f0 FEFFFFEB 		mov	r1, r6
 6986 66f4 0030A0E1 		mov	r2, r3
 6987 66f8 0140A0E1 		mov	r3, r4
 6988 66fc 0300A0E1 		bl	__muldf3
 6989 6700 0410A0E1 		mov	r3, r0
 6990 6704 FEFFFFEB 		mov	r4, r1
 6991 6708 0030A0E1 		mov	r5, r3
 6992 670c 0140A0E1 		mov	r6, r4
 6993 6710 0500A0E1 		ldr	r3, .L36
 6994 6714 0610A0E1 		ldr	r3, [r3, #20]	@ float
 6995 6718 0320A0E1 		mov	r0, r3
 6996 671c 0430A0E1 		bl	__extendsfdf2
 6997 6720 FEFFFFEB 		mov	r3, r0
 6998 6724 0030A0E1 		mov	r4, r1
 6999 6728 0140A0E1 		mov	r0, r3
 7000 672c 0350A0E1 		mov	r1, r4
 7001 6730 0460A0E1 		bl	cos
 7002 6734 34321FE5 		mov	r3, r0
 7003 6738 103093E5 		mov	r4, r1
 7004 673c 0300A0E1 		mov	r0, r5
 7005 6740 FEFFFFEB 		mov	r1, r6
 7006 6744 0030A0E1 		mov	r2, r3
 7007 6748 0140A0E1 		mov	r3, r4
 7008 674c 0300A0E1 		bl	__muldf3
 7009 6750 0410A0E1 		mov	r3, r0
 7010 6754 FEFFFFEB 		mov	r4, r1
 7011 6758 0030A0E1 		mov	r5, r3
 7012 675c 0140A0E1 		mov	r6, r4
 7013 6760 0500A0E1 		ldr	r3, .L36
 7014 6764 0610A0E1 		ldr	r3, [r3, #20]	@ float
 7015 6768 0320A0E1 		mov	r0, r3
 7016 676c 0430A0E1 		bl	__extendsfdf2
 7017 6770 FEFFFFEB 		mov	r3, r0
 7018 6774 0030A0E1 		mov	r4, r1
 7019 6778 0140A0E1 		mov	r0, r3
 7020 677c 0350A0E1 		mov	r1, r4
 7021 6780 0460A0E1 		bl	cos
 7022 6784 84321FE5 		mov	r3, r0
 7023 6788 143093E5 		mov	r4, r1
 7024 678c 0300A0E1 		mov	r0, r5
 7025 6790 FEFFFFEB 		mov	r1, r6
 7026 6794 0030A0E1 		mov	r2, r3
 7027 6798 0140A0E1 		mov	r3, r4
 7028 679c 0300A0E1 		bl	__muldf3
 7029 67a0 0410A0E1 		mov	r3, r0
 7030 67a4 FEFFFFEB 		mov	r4, r1
 7031 67a8 0030A0E1 		mov	r5, r3
 7032 67ac 0140A0E1 		mov	r6, r4
 7033 67b0 0500A0E1 		ldr	r3, .L36
 7034 67b4 0610A0E1 		ldr	r3, [r3, #16]	@ float
 7035 67b8 0320A0E1 		mov	r0, r3
 7036 67bc 0430A0E1 		bl	__extendsfdf2
 7037 67c0 FEFFFFEB 		mov	r3, r0
 7038 67c4 0030A0E1 		mov	r4, r1
 7039 67c8 0140A0E1 		mov	r0, r3
 7040 67cc 0350A0E1 		mov	r1, r4
 7041 67d0 0460A0E1 		bl	sin
 7042 67d4 D4321FE5 		mov	r3, r0
 7043 67d8 143093E5 		mov	r4, r1
 7044 67dc 0300A0E1 		mov	r0, r5
 7045 67e0 FEFFFFEB 		mov	r1, r6
 7046 67e4 0030A0E1 		mov	r2, r3
 7047 67e8 0140A0E1 		mov	r3, r4
 7048 67ec 0300A0E1 		bl	__muldf3
 7049 67f0 0410A0E1 		mov	r3, r0
 7050 67f4 FEFFFFEB 		mov	r4, r1
 7051 67f8 0030A0E1 		mov	r5, r3
 7052 67fc 0140A0E1 		mov	r6, r4
 7053 6800 0500A0E1 		ldr	r3, .L36
 7054 6804 0610A0E1 		ldr	r3, [r3, #16]	@ float
 7055 6808 0320A0E1 		mov	r0, r3
 7056 680c 0430A0E1 		bl	__extendsfdf2
 7057 6810 FEFFFFEB 		mov	r3, r0
 7058 6814 0030A0E1 		mov	r4, r1
 7059 6818 0140A0E1 		mov	r0, r3
 7060 681c 0900A0E1 		mov	r1, r4
 7061 6820 0A10A0E1 		bl	sin
 7062 6824 0320A0E1 		mov	r3, r0
 7063 6828 0430A0E1 		mov	r4, r1
 7064 682c FEFFFFEB 		mov	r0, r5
 7065 6830 0030A0E1 		mov	r1, r6
 7066 6834 0140A0E1 		mov	r2, r3
 7067 6838 0390A0E1 		mov	r3, r4
 7068 683c 04A0A0E1 		bl	__muldf3
 7069 6840 40331FE5 		mov	r3, r0
 7070 6844 0C3093E5 		mov	r4, r1
 7071 6848 0300A0E1 		mov	r0, r9
 7072 684c FEFFFFEB 		mov	r1, sl
 7073 6850 0030A0E1 		mov	r2, r3
 7074 6854 0140A0E1 		mov	r3, r4
 7075 6858 0300A0E1 		bl	__adddf3
 7076 685c 0410A0E1 		mov	r3, r0
 7077 6860 FEFFFFEB 		mov	r4, r1
 7078 6864 0050A0E1 		mov	r9, r3
 7079 6868 0160A0E1 		mov	sl, r4
 7080 686c 6C331FE5 		ldr	r3, .L36
 7081 6870 0C3093E5 		ldr	r3, [r3, #12]	@ float
 7082 6874 0300A0E1 		mov	r0, r3
 7083 6878 FEFFFFEB 		bl	__extendsfdf2
 7084 687c 0030A0E1 		mov	r3, r0
 7085 6880 0140A0E1 		mov	r4, r1
 7086 6884 0300A0E1 		mov	r0, r3
 7087 6888 0410A0E1 		mov	r1, r4
 7088 688c FEFFFFEB 		bl	cos
 7089 6890 0030A0E1 		mov	r5, r0
 7090 6894 0140A0E1 		mov	r6, r1
 7091 6898 0500A0E1 		ldr	r3, .L36
 7092 689c 0610A0E1 		ldr	r3, [r3, #12]	@ float
 7093 68a0 0320A0E1 		mov	r0, r3
 7094 68a4 0430A0E1 		bl	__extendsfdf2
 7095 68a8 FEFFFFEB 		mov	r3, r0
 7096 68ac 0030A0E1 		mov	r4, r1
 7097 68b0 0140A0E1 		mov	r0, r3
 7098 68b4 0350A0E1 		mov	r1, r4
 7099 68b8 0460A0E1 		bl	cos
 7100 68bc BC331FE5 		mov	r3, r0
 7101 68c0 143093E5 		mov	r4, r1
 7102 68c4 0300A0E1 		mov	r0, r5
 7103 68c8 FEFFFFEB 		mov	r1, r6
 7104 68cc 0030A0E1 		mov	r2, r3
 7105 68d0 0140A0E1 		mov	r3, r4
 7106 68d4 0300A0E1 		bl	__muldf3
 7107 68d8 0410A0E1 		mov	r3, r0
 7108 68dc FEFFFFEB 		mov	r4, r1
 7109 68e0 0030A0E1 		mov	r5, r3
 7110 68e4 0140A0E1 		mov	r6, r4
 7111 68e8 0500A0E1 		ldr	r3, .L36
 7112 68ec 0610A0E1 		ldr	r3, [r3, #16]	@ float
 7113 68f0 0320A0E1 		mov	r0, r3
 7114 68f4 0430A0E1 		bl	__extendsfdf2
 7115 68f8 FEFFFFEB 		mov	r3, r0
 7116 68fc 0030A0E1 		mov	r4, r1
 7117 6900 0140A0E1 		mov	r0, r3
 7118 6904 0350A0E1 		mov	r1, r4
 7119 6908 0460A0E1 		bl	sin
 7120 690c 0C341FE5 		mov	r3, r0
 7121 6910 143093E5 		mov	r4, r1
 7122 6914 0300A0E1 		mov	r0, r5
 7123 6918 FEFFFFEB 		mov	r1, r6
 7124 691c 0030A0E1 		mov	r2, r3
 7125 6920 0140A0E1 		mov	r3, r4
 7126 6924 0300A0E1 		bl	__muldf3
 7127 6928 0410A0E1 		mov	r3, r0
 7128 692c FEFFFFEB 		mov	r4, r1
 7129 6930 0030A0E1 		mov	r5, r3
 7130 6934 0140A0E1 		mov	r6, r4
 7131 6938 0500A0E1 		ldr	r3, .L36
 7132 693c 0610A0E1 		ldr	r3, [r3, #16]	@ float
 7133 6940 0320A0E1 		mov	r0, r3
 7134 6944 0430A0E1 		bl	__extendsfdf2
 7135 6948 FEFFFFEB 		mov	r3, r0
 7136 694c 0030A0E1 		mov	r4, r1
 7137 6950 0140A0E1 		mov	r0, r3
 7138 6954 0350A0E1 		mov	r1, r4
 7139 6958 0460A0E1 		bl	sin
 7140 695c 5C341FE5 		mov	r3, r0
 7141 6960 103093E5 		mov	r4, r1
 7142 6964 0300A0E1 		mov	r0, r5
 7143 6968 FEFFFFEB 		mov	r1, r6
 7144 696c 0030A0E1 		mov	r2, r3
 7145 6970 0140A0E1 		mov	r3, r4
 7146 6974 0300A0E1 		bl	__muldf3
 7147 6978 0410A0E1 		mov	r3, r0
 7148 697c FEFFFFEB 		mov	r4, r1
 7149 6980 0030A0E1 		mov	r5, r3
 7150 6984 0140A0E1 		mov	r6, r4
 7151 6988 0500A0E1 		ldr	r3, .L36
 7152 698c 0610A0E1 		ldr	r3, [r3, #20]	@ float
 7153 6990 0320A0E1 		mov	r0, r3
 7154 6994 0430A0E1 		bl	__extendsfdf2
 7155 6998 FEFFFFEB 		mov	r3, r0
 7156 699c 0030A0E1 		mov	r4, r1
 7157 69a0 0140A0E1 		mov	r0, r3
 7158 69a4 0350A0E1 		mov	r1, r4
 7159 69a8 0460A0E1 		bl	sin
 7160 69ac AC341FE5 		mov	r3, r0
 7161 69b0 103093E5 		mov	r4, r1
 7162 69b4 0300A0E1 		mov	r0, r5
 7163 69b8 FEFFFFEB 		mov	r1, r6
 7164 69bc 0030A0E1 		mov	r2, r3
 7165 69c0 0140A0E1 		mov	r3, r4
 7166 69c4 0300A0E1 		bl	__muldf3
 7167 69c8 0410A0E1 		mov	r3, r0
 7168 69cc FEFFFFEB 		mov	r4, r1
 7169 69d0 0030A0E1 		mov	r5, r3
 7170 69d4 0140A0E1 		mov	r6, r4
 7171 69d8 0500A0E1 		ldr	r3, .L36
 7172 69dc 0610A0E1 		ldr	r3, [r3, #20]	@ float
 7173 69e0 0320A0E1 		mov	r0, r3
 7174 69e4 0430A0E1 		bl	__extendsfdf2
 7175 69e8 FEFFFFEB 		mov	r3, r0
 7176 69ec 0030A0E1 		mov	r4, r1
 7177 69f0 0140A0E1 		mov	r0, r3
 7178 69f4 0900A0E1 		mov	r1, r4
 7179 69f8 0A10A0E1 		bl	sin
 7180 69fc 0320A0E1 		mov	r3, r0
 7181 6a00 0430A0E1 		mov	r4, r1
 7182 6a04 FEFFFFEB 		mov	r0, r5
 7183 6a08 0030A0E1 		mov	r1, r6
 7184 6a0c 0140A0E1 		mov	r2, r3
 7185 6a10 0390A0E1 		mov	r3, r4
 7186 6a14 04A0A0E1 		bl	__muldf3
 7187 6a18 18351FE5 		mov	r3, r0
 7188 6a1c 0C3093E5 		mov	r4, r1
 7189 6a20 0300A0E1 		mov	r0, r9
 7190 6a24 FEFFFFEB 		mov	r1, sl
 7191 6a28 0030A0E1 		mov	r2, r3
 7192 6a2c 0140A0E1 		mov	r3, r4
 7193 6a30 0300A0E1 		bl	__adddf3
 7194 6a34 0410A0E1 		mov	r3, r0
 7195 6a38 FEFFFFEB 		mov	r4, r1
 7196 6a3c 0050A0E1 		mov	r9, r3
 7197 6a40 0160A0E1 		mov	sl, r4
 7198 6a44 44351FE5 		ldr	r3, .L36
 7199 6a48 0C3093E5 		ldr	r3, [r3, #16]	@ float
 7200 6a4c 0300A0E1 		mov	r0, r3
 7201 6a50 FEFFFFEB 		bl	__extendsfdf2
 7202 6a54 0030A0E1 		mov	r3, r0
 7203 6a58 0140A0E1 		mov	r4, r1
 7204 6a5c 0300A0E1 		mov	r0, r3
 7205 6a60 0410A0E1 		mov	r1, r4
 7206 6a64 FEFFFFEB 		bl	cos
 7207 6a68 0030A0E1 		mov	r5, r0
 7208 6a6c 0140A0E1 		mov	r6, r1
 7209 6a70 0500A0E1 		ldr	r3, .L36
 7210 6a74 0610A0E1 		ldr	r3, [r3, #16]	@ float
 7211 6a78 0320A0E1 		mov	r0, r3
 7212 6a7c 0430A0E1 		bl	__extendsfdf2
 7213 6a80 FEFFFFEB 		mov	r3, r0
 7214 6a84 0030A0E1 		mov	r4, r1
 7215 6a88 0140A0E1 		mov	r0, r3
 7216 6a8c 0350A0E1 		mov	r1, r4
 7217 6a90 0460A0E1 		bl	cos
 7218 6a94 94351FE5 		mov	r3, r0
 7219 6a98 103093E5 		mov	r4, r1
 7220 6a9c 0300A0E1 		mov	r0, r5
 7221 6aa0 FEFFFFEB 		mov	r1, r6
 7222 6aa4 0030A0E1 		mov	r2, r3
 7223 6aa8 0140A0E1 		mov	r3, r4
 7224 6aac 0300A0E1 		bl	__muldf3
 7225 6ab0 0410A0E1 		mov	r3, r0
 7226 6ab4 FEFFFFEB 		mov	r4, r1
 7227 6ab8 0030A0E1 		mov	r5, r3
 7228 6abc 0140A0E1 		mov	r6, r4
 7229 6ac0 0500A0E1 		ldr	r3, .L36
 7230 6ac4 0610A0E1 		ldr	r3, [r3, #20]	@ float
 7231 6ac8 0320A0E1 		mov	r0, r3
 7232 6acc 0430A0E1 		bl	__extendsfdf2
 7233 6ad0 FEFFFFEB 		mov	r3, r0
 7234 6ad4 0030A0E1 		mov	r4, r1
 7235 6ad8 0140A0E1 		mov	r0, r3
 7236 6adc 0350A0E1 		mov	r1, r4
 7237 6ae0 0460A0E1 		bl	cos
 7238 6ae4 E4351FE5 		mov	r3, r0
 7239 6ae8 103093E5 		mov	r4, r1
 7240 6aec 0300A0E1 		mov	r0, r5
 7241 6af0 FEFFFFEB 		mov	r1, r6
 7242 6af4 0030A0E1 		mov	r2, r3
 7243 6af8 0140A0E1 		mov	r3, r4
 7244 6afc 0300A0E1 		bl	__muldf3
 7245 6b00 0410A0E1 		mov	r3, r0
 7246 6b04 FEFFFFEB 		mov	r4, r1
 7247 6b08 0030A0E1 		mov	r5, r3
 7248 6b0c 0140A0E1 		mov	r6, r4
 7249 6b10 0500A0E1 		ldr	r3, .L36
 7250 6b14 0610A0E1 		ldr	r3, [r3, #20]	@ float
 7251 6b18 0320A0E1 		mov	r0, r3
 7252 6b1c 0430A0E1 		bl	__extendsfdf2
 7253 6b20 FEFFFFEB 		mov	r3, r0
 7254 6b24 0030A0E1 		mov	r4, r1
 7255 6b28 0140A0E1 		mov	r0, r3
 7256 6b2c 0350A0E1 		mov	r1, r4
 7257 6b30 0460A0E1 		bl	cos
 7258 6b34 34361FE5 		mov	r3, r0
 7259 6b38 143093E5 		mov	r4, r1
 7260 6b3c 0300A0E1 		mov	r0, r5
 7261 6b40 FEFFFFEB 		mov	r1, r6
 7262 6b44 0030A0E1 		mov	r2, r3
 7263 6b48 0140A0E1 		mov	r3, r4
 7264 6b4c 0300A0E1 		bl	__muldf3
 7265 6b50 0410A0E1 		mov	r3, r0
 7266 6b54 FEFFFFEB 		mov	r4, r1
 7267 6b58 0030A0E1 		mov	r5, r3
 7268 6b5c 0140A0E1 		mov	r6, r4
 7269 6b60 0500A0E1 		ldr	r3, .L36
 7270 6b64 0610A0E1 		ldr	r3, [r3, #12]	@ float
 7271 6b68 0320A0E1 		mov	r0, r3
 7272 6b6c 0430A0E1 		bl	__extendsfdf2
 7273 6b70 FEFFFFEB 		mov	r3, r0
 7274 6b74 0030A0E1 		mov	r4, r1
 7275 6b78 0140A0E1 		mov	r0, r3
 7276 6b7c 0350A0E1 		mov	r1, r4
 7277 6b80 0460A0E1 		bl	sin
 7278 6b84 84361FE5 		mov	r3, r0
 7279 6b88 143093E5 		mov	r4, r1
 7280 6b8c 0300A0E1 		mov	r0, r5
 7281 6b90 FEFFFFEB 		mov	r1, r6
 7282 6b94 0030A0E1 		mov	r2, r3
 7283 6b98 0140A0E1 		mov	r3, r4
 7284 6b9c 0300A0E1 		bl	__muldf3
 7285 6ba0 0410A0E1 		mov	r3, r0
 7286 6ba4 FEFFFFEB 		mov	r4, r1
 7287 6ba8 0030A0E1 		mov	r5, r3
 7288 6bac 0140A0E1 		mov	r6, r4
 7289 6bb0 0500A0E1 		ldr	r3, .L36
 7290 6bb4 0610A0E1 		ldr	r3, [r3, #12]	@ float
 7291 6bb8 0320A0E1 		mov	r0, r3
 7292 6bbc 0430A0E1 		bl	__extendsfdf2
 7293 6bc0 FEFFFFEB 		mov	r3, r0
 7294 6bc4 0030A0E1 		mov	r4, r1
 7295 6bc8 0140A0E1 		mov	r0, r3
 7296 6bcc 0900A0E1 		mov	r1, r4
 7297 6bd0 0A10A0E1 		bl	sin
 7298 6bd4 0320A0E1 		mov	r3, r0
 7299 6bd8 0430A0E1 		mov	r4, r1
 7300 6bdc FEFFFFEB 		mov	r0, r5
 7301 6be0 0030A0E1 		mov	r1, r6
 7302 6be4 0140A0E1 		mov	r2, r3
 7303 6be8 0390A0E1 		mov	r3, r4
 7304 6bec 04A0A0E1 		bl	__muldf3
 7305 6bf0 F0361FE5 		mov	r3, r0
 7306 6bf4 103093E5 		mov	r4, r1
 7307 6bf8 0300A0E1 		mov	r0, r9
 7308 6bfc FEFFFFEB 		mov	r1, sl
 7309 6c00 0030A0E1 		mov	r2, r3
 7310 6c04 0140A0E1 		mov	r3, r4
 7311 6c08 0300A0E1 		bl	__adddf3
 7312 6c0c 0410A0E1 		mov	r3, r0
 7313 6c10 FEFFFFEB 		mov	r4, r1
 7314 6c14 0050A0E1 		mov	r9, r3
 7315 6c18 0160A0E1 		mov	sl, r4
 7316 6c1c 1C371FE5 		ldr	r3, .L36
 7317 6c20 103093E5 		ldr	r3, [r3, #16]	@ float
 7318 6c24 0300A0E1 		mov	r0, r3
 7319 6c28 FEFFFFEB 		bl	__extendsfdf2
 7320 6c2c 0030A0E1 		mov	r3, r0
 7321 6c30 0140A0E1 		mov	r4, r1
 7322 6c34 0300A0E1 		mov	r0, r3
 7323 6c38 0410A0E1 		mov	r1, r4
 7324 6c3c FEFFFFEB 		bl	cos
 7325 6c40 0030A0E1 		mov	r5, r0
 7326 6c44 0140A0E1 		mov	r6, r1
 7327 6c48 0500A0E1 		ldr	r3, .L36
 7328 6c4c 0610A0E1 		ldr	r3, [r3, #16]	@ float
 7329 6c50 0320A0E1 		mov	r0, r3
 7330 6c54 0430A0E1 		bl	__extendsfdf2
 7331 6c58 FEFFFFEB 		mov	r3, r0
 7332 6c5c 0030A0E1 		mov	r4, r1
 7333 6c60 0140A0E1 		mov	r0, r3
 7334 6c64 0350A0E1 		mov	r1, r4
 7335 6c68 0460A0E1 		bl	cos
 7336 6c6c 6C371FE5 		mov	r3, r0
 7337 6c70 143093E5 		mov	r4, r1
 7338 6c74 0300A0E1 		mov	r0, r5
 7339 6c78 FEFFFFEB 		mov	r1, r6
 7340 6c7c 0030A0E1 		mov	r2, r3
 7341 6c80 0140A0E1 		mov	r3, r4
 7342 6c84 0300A0E1 		bl	__muldf3
 7343 6c88 0410A0E1 		mov	r3, r0
 7344 6c8c FEFFFFEB 		mov	r4, r1
 7345 6c90 0030A0E1 		mov	r5, r3
 7346 6c94 0140A0E1 		mov	r6, r4
 7347 6c98 0500A0E1 		ldr	r3, .L36
 7348 6c9c 0610A0E1 		ldr	r3, [r3, #12]	@ float
 7349 6ca0 0320A0E1 		mov	r0, r3
 7350 6ca4 0430A0E1 		bl	__extendsfdf2
 7351 6ca8 FEFFFFEB 		mov	r3, r0
 7352 6cac 0030A0E1 		mov	r4, r1
 7353 6cb0 0140A0E1 		mov	r0, r3
 7354 6cb4 0350A0E1 		mov	r1, r4
 7355 6cb8 0460A0E1 		bl	sin
 7356 6cbc BC371FE5 		mov	r3, r0
 7357 6cc0 143093E5 		mov	r4, r1
 7358 6cc4 0300A0E1 		mov	r0, r5
 7359 6cc8 FEFFFFEB 		mov	r1, r6
 7360 6ccc 0030A0E1 		mov	r2, r3
 7361 6cd0 0140A0E1 		mov	r3, r4
 7362 6cd4 0300A0E1 		bl	__muldf3
 7363 6cd8 0410A0E1 		mov	r3, r0
 7364 6cdc FEFFFFEB 		mov	r4, r1
 7365 6ce0 0030A0E1 		mov	r5, r3
 7366 6ce4 0140A0E1 		mov	r6, r4
 7367 6ce8 0500A0E1 		ldr	r3, .L36
 7368 6cec 0610A0E1 		ldr	r3, [r3, #12]	@ float
 7369 6cf0 0320A0E1 		mov	r0, r3
 7370 6cf4 0430A0E1 		bl	__extendsfdf2
 7371 6cf8 FEFFFFEB 		mov	r3, r0
 7372 6cfc 0030A0E1 		mov	r4, r1
 7373 6d00 0140A0E1 		mov	r0, r3
 7374 6d04 0350A0E1 		mov	r1, r4
 7375 6d08 0460A0E1 		bl	sin
 7376 6d0c 0C381FE5 		mov	r3, r0
 7377 6d10 0C3093E5 		mov	r4, r1
 7378 6d14 0300A0E1 		mov	r0, r5
 7379 6d18 FEFFFFEB 		mov	r1, r6
 7380 6d1c 0030A0E1 		mov	r2, r3
 7381 6d20 0140A0E1 		mov	r3, r4
 7382 6d24 0300A0E1 		bl	__muldf3
 7383 6d28 0410A0E1 		mov	r3, r0
 7384 6d2c FEFFFFEB 		mov	r4, r1
 7385 6d30 0030A0E1 		mov	r5, r3
 7386 6d34 0140A0E1 		mov	r6, r4
 7387 6d38 0500A0E1 		ldr	r3, .L36
 7388 6d3c 0610A0E1 		ldr	r3, [r3, #20]	@ float
 7389 6d40 0320A0E1 		mov	r0, r3
 7390 6d44 0430A0E1 		bl	__extendsfdf2
 7391 6d48 FEFFFFEB 		mov	r3, r0
 7392 6d4c 0030A0E1 		mov	r4, r1
 7393 6d50 0140A0E1 		mov	r0, r3
 7394 6d54 0350A0E1 		mov	r1, r4
 7395 6d58 0460A0E1 		bl	sin
 7396 6d5c 5C381FE5 		mov	r3, r0
 7397 6d60 0C3093E5 		mov	r4, r1
 7398 6d64 0300A0E1 		mov	r0, r5
 7399 6d68 FEFFFFEB 		mov	r1, r6
 7400 6d6c 0030A0E1 		mov	r2, r3
 7401 6d70 0140A0E1 		mov	r3, r4
 7402 6d74 0300A0E1 		bl	__muldf3
 7403 6d78 0410A0E1 		mov	r3, r0
 7404 6d7c FEFFFFEB 		mov	r4, r1
 7405 6d80 0030A0E1 		mov	r5, r3
 7406 6d84 0140A0E1 		mov	r6, r4
 7407 6d88 0500A0E1 		ldr	r3, .L36
 7408 6d8c 0610A0E1 		ldr	r3, [r3, #20]	@ float
 7409 6d90 0320A0E1 		mov	r0, r3
 7410 6d94 0430A0E1 		bl	__extendsfdf2
 7411 6d98 FEFFFFEB 		mov	r3, r0
 7412 6d9c 0030A0E1 		mov	r4, r1
 7413 6da0 0140A0E1 		mov	r0, r3
 7414 6da4 0900A0E1 		mov	r1, r4
 7415 6da8 0A10A0E1 		bl	sin
 7416 6dac 0320A0E1 		mov	r3, r0
 7417 6db0 0430A0E1 		mov	r4, r1
 7418 6db4 FEFFFFEB 		mov	r0, r5
 7419 6db8 0030A0E1 		mov	r1, r6
 7420 6dbc 0140A0E1 		mov	r2, r3
 7421 6dc0 0390A0E1 		mov	r3, r4
 7422 6dc4 04A0A0E1 		bl	__muldf3
 7423 6dc8 C8381FE5 		mov	r3, r0
 7424 6dcc 103093E5 		mov	r4, r1
 7425 6dd0 0300A0E1 		mov	r0, r9
 7426 6dd4 FEFFFFEB 		mov	r1, sl
 7427 6dd8 0030A0E1 		mov	r2, r3
 7428 6ddc 0140A0E1 		mov	r3, r4
 7429 6de0 0300A0E1 		bl	__adddf3
 7430 6de4 0410A0E1 		mov	r3, r0
 7431 6de8 FEFFFFEB 		mov	r4, r1
 7432 6dec 0050A0E1 		mov	r9, r3
 7433 6df0 0160A0E1 		mov	sl, r4
 7434 6df4 F4381FE5 		ldr	r3, .L36
 7435 6df8 103093E5 		ldr	r3, [r3, #20]	@ float
 7436 6dfc 0300A0E1 		mov	r0, r3
 7437 6e00 FEFFFFEB 		bl	__extendsfdf2
 7438 6e04 0030A0E1 		mov	r3, r0
 7439 6e08 0140A0E1 		mov	r4, r1
 7440 6e0c 0300A0E1 		mov	r0, r3
 7441 6e10 0410A0E1 		mov	r1, r4
 7442 6e14 FEFFFFEB 		bl	cos
 7443 6e18 0030A0E1 		mov	r5, r0
 7444 6e1c 0140A0E1 		mov	r6, r1
 7445 6e20 0500A0E1 		ldr	r3, .L36
 7446 6e24 0610A0E1 		ldr	r3, [r3, #20]	@ float
 7447 6e28 0320A0E1 		mov	r0, r3
 7448 6e2c 0430A0E1 		bl	__extendsfdf2
 7449 6e30 FEFFFFEB 		mov	r3, r0
 7450 6e34 0030A0E1 		mov	r4, r1
 7451 6e38 0140A0E1 		mov	r0, r3
 7452 6e3c 0350A0E1 		mov	r1, r4
 7453 6e40 0460A0E1 		bl	cos
 7454 6e44 44391FE5 		mov	r3, r0
 7455 6e48 0C3093E5 		mov	r4, r1
 7456 6e4c 0300A0E1 		mov	r0, r5
 7457 6e50 FEFFFFEB 		mov	r1, r6
 7458 6e54 0030A0E1 		mov	r2, r3
 7459 6e58 0140A0E1 		mov	r3, r4
 7460 6e5c 0300A0E1 		bl	__muldf3
 7461 6e60 0410A0E1 		mov	r3, r0
 7462 6e64 FEFFFFEB 		mov	r4, r1
 7463 6e68 0030A0E1 		mov	r5, r3
 7464 6e6c 0140A0E1 		mov	r6, r4
 7465 6e70 0500A0E1 		ldr	r3, .L36
 7466 6e74 0610A0E1 		ldr	r3, [r3, #12]	@ float
 7467 6e78 0320A0E1 		mov	r0, r3
 7468 6e7c 0430A0E1 		bl	__extendsfdf2
 7469 6e80 FEFFFFEB 		mov	r3, r0
 7470 6e84 0030A0E1 		mov	r4, r1
 7471 6e88 0140A0E1 		mov	r0, r3
 7472 6e8c 0350A0E1 		mov	r1, r4
 7473 6e90 0460A0E1 		bl	sin
 7474 6e94 94391FE5 		mov	r3, r0
 7475 6e98 0C3093E5 		mov	r4, r1
 7476 6e9c 0300A0E1 		mov	r0, r5
 7477 6ea0 FEFFFFEB 		mov	r1, r6
 7478 6ea4 0030A0E1 		mov	r2, r3
 7479 6ea8 0140A0E1 		mov	r3, r4
 7480 6eac 0300A0E1 		bl	__muldf3
 7481 6eb0 0410A0E1 		mov	r3, r0
 7482 6eb4 FEFFFFEB 		mov	r4, r1
 7483 6eb8 0030A0E1 		mov	r5, r3
 7484 6ebc 0140A0E1 		mov	r6, r4
 7485 6ec0 0500A0E1 		ldr	r3, .L36
 7486 6ec4 0610A0E1 		ldr	r3, [r3, #12]	@ float
 7487 6ec8 0320A0E1 		mov	r0, r3
 7488 6ecc 0430A0E1 		bl	__extendsfdf2
 7489 6ed0 FEFFFFEB 		mov	r3, r0
 7490 6ed4 0030A0E1 		mov	r4, r1
 7491 6ed8 0140A0E1 		mov	r0, r3
 7492 6edc 0350A0E1 		mov	r1, r4
 7493 6ee0 0460A0E1 		bl	sin
 7494 6ee4 E4391FE5 		mov	r3, r0
 7495 6ee8 143093E5 		mov	r4, r1
 7496 6eec 0300A0E1 		mov	r0, r5
 7497 6ef0 FEFFFFEB 		mov	r1, r6
 7498 6ef4 0030A0E1 		mov	r2, r3
 7499 6ef8 0140A0E1 		mov	r3, r4
 7500 6efc 0300A0E1 		bl	__muldf3
 7501 6f00 0410A0E1 		mov	r3, r0
 7502 6f04 FEFFFFEB 		mov	r4, r1
 7503 6f08 0030A0E1 		mov	r5, r3
 7504 6f0c 0140A0E1 		mov	r6, r4
 7505 6f10 0500A0E1 		ldr	r3, .L36
 7506 6f14 0610A0E1 		ldr	r3, [r3, #16]	@ float
 7507 6f18 0320A0E1 		mov	r0, r3
 7508 6f1c 0430A0E1 		bl	__extendsfdf2
 7509 6f20 FEFFFFEB 		mov	r3, r0
 7510 6f24 0030A0E1 		mov	r4, r1
 7511 6f28 0140A0E1 		mov	r0, r3
 7512 6f2c 0350A0E1 		mov	r1, r4
 7513 6f30 0460A0E1 		bl	sin
 7514 6f34 343A1FE5 		mov	r3, r0
 7515 6f38 143093E5 		mov	r4, r1
 7516 6f3c 0300A0E1 		mov	r0, r5
 7517 6f40 FEFFFFEB 		mov	r1, r6
 7518 6f44 0030A0E1 		mov	r2, r3
 7519 6f48 0140A0E1 		mov	r3, r4
 7520 6f4c 0300A0E1 		bl	__muldf3
 7521 6f50 0410A0E1 		mov	r3, r0
 7522 6f54 FEFFFFEB 		mov	r4, r1
 7523 6f58 0030A0E1 		mov	r5, r3
 7524 6f5c 0140A0E1 		mov	r6, r4
 7525 6f60 0500A0E1 		ldr	r3, .L36
 7526 6f64 0610A0E1 		ldr	r3, [r3, #16]	@ float
 7527 6f68 0320A0E1 		mov	r0, r3
 7528 6f6c 0430A0E1 		bl	__extendsfdf2
 7529 6f70 FEFFFFEB 		mov	r3, r0
 7530 6f74 0030A0E1 		mov	r4, r1
 7531 6f78 0140A0E1 		mov	r0, r3
 7532 6f7c 0900A0E1 		mov	r1, r4
 7533 6f80 0A10A0E1 		bl	sin
 7534 6f84 0320A0E1 		mov	r3, r0
 7535 6f88 0430A0E1 		mov	r4, r1
 7536 6f8c FEFFFFEB 		mov	r0, r5
 7537 6f90 0030A0E1 		mov	r1, r6
 7538 6f94 0140A0E1 		mov	r2, r3
 7539 6f98 0390A0E1 		mov	r3, r4
 7540 6f9c 04A0A0E1 		bl	__muldf3
 7541 6fa0 A03A1FE5 		mov	r3, r0
 7542 6fa4 143093E5 		mov	r4, r1
 7543 6fa8 0300A0E1 		mov	r0, r9
 7544 6fac FEFFFFEB 		mov	r1, sl
 7545 6fb0 0030A0E1 		mov	r2, r3
 7546 6fb4 0140A0E1 		mov	r3, r4
 7547 6fb8 0300A0E1 		bl	__adddf3
 7548 6fbc 0410A0E1 		mov	r3, r0
 7549 6fc0 FEFFFFEB 		mov	r4, r1
 7550 6fc4 0050A0E1 		mov	r9, r3
 7551 6fc8 0160A0E1 		mov	sl, r4
 7552 6fcc CC3A1FE5 		ldr	r3, .L36
 7553 6fd0 143093E5 		ldr	r3, [r3, #12]	@ float
 7554 6fd4 0300A0E1 		mov	r0, r3
 7555 6fd8 FEFFFFEB 		bl	__extendsfdf2
 7556 6fdc 0030A0E1 		mov	r3, r0
 7557 6fe0 0140A0E1 		mov	r4, r1
 7558 6fe4 0300A0E1 		mov	r0, r3
 7559 6fe8 0410A0E1 		mov	r1, r4
 7560 6fec FEFFFFEB 		bl	sin
 7561 6ff0 0030A0E1 		mov	r5, r0
 7562 6ff4 0140A0E1 		mov	r6, r1
 7563 6ff8 0500A0E1 		ldr	r3, .L36
 7564 6ffc 0610A0E1 		ldr	r3, [r3, #12]	@ float
 7565 7000 0320A0E1 		mov	r0, r3
 7566 7004 0430A0E1 		bl	__extendsfdf2
 7567 7008 FEFFFFEB 		mov	r3, r0
 7568 700c 0030A0E1 		mov	r4, r1
 7569 7010 0140A0E1 		mov	r0, r3
 7570 7014 0350A0E1 		mov	r1, r4
 7571 7018 0460A0E1 		bl	sin
 7572 701c 1C3B1FE5 		mov	r3, r0
 7573 7020 0C3093E5 		mov	r4, r1
 7574 7024 0300A0E1 		mov	r0, r5
 7575 7028 FEFFFFEB 		mov	r1, r6
 7576 702c 0030A0E1 		mov	r2, r3
 7577 7030 0140A0E1 		mov	r3, r4
 7578 7034 0300A0E1 		bl	__muldf3
 7579 7038 0410A0E1 		mov	r3, r0
 7580 703c FEFFFFEB 		mov	r4, r1
 7581 7040 0030A0E1 		mov	r5, r3
 7582 7044 0140A0E1 		mov	r6, r4
 7583 7048 0500A0E1 		ldr	r3, .L36
 7584 704c 0610A0E1 		ldr	r3, [r3, #16]	@ float
 7585 7050 0320A0E1 		mov	r0, r3
 7586 7054 0430A0E1 		bl	__extendsfdf2
 7587 7058 FEFFFFEB 		mov	r3, r0
 7588 705c 0030A0E1 		mov	r4, r1
 7589 7060 0140A0E1 		mov	r0, r3
 7590 7064 0350A0E1 		mov	r1, r4
 7591 7068 0460A0E1 		bl	sin
 7592 706c 6C3B1FE5 		mov	r3, r0
 7593 7070 0C3093E5 		mov	r4, r1
 7594 7074 0300A0E1 		mov	r0, r5
 7595 7078 FEFFFFEB 		mov	r1, r6
 7596 707c 0030A0E1 		mov	r2, r3
 7597 7080 0140A0E1 		mov	r3, r4
 7598 7084 0300A0E1 		bl	__muldf3
 7599 7088 0410A0E1 		mov	r3, r0
 7600 708c FEFFFFEB 		mov	r4, r1
 7601 7090 0030A0E1 		mov	r5, r3
 7602 7094 0140A0E1 		mov	r6, r4
 7603 7098 0500A0E1 		ldr	r3, .L36
 7604 709c 0610A0E1 		ldr	r3, [r3, #16]	@ float
 7605 70a0 0320A0E1 		mov	r0, r3
 7606 70a4 0430A0E1 		bl	__extendsfdf2
 7607 70a8 FEFFFFEB 		mov	r3, r0
 7608 70ac 0030A0E1 		mov	r4, r1
 7609 70b0 0140A0E1 		mov	r0, r3
 7610 70b4 0350A0E1 		mov	r1, r4
 7611 70b8 0460A0E1 		bl	sin
 7612 70bc BC3B1FE5 		mov	r3, r0
 7613 70c0 103093E5 		mov	r4, r1
 7614 70c4 0300A0E1 		mov	r0, r5
 7615 70c8 FEFFFFEB 		mov	r1, r6
 7616 70cc 0030A0E1 		mov	r2, r3
 7617 70d0 0140A0E1 		mov	r3, r4
 7618 70d4 0300A0E1 		bl	__muldf3
 7619 70d8 0410A0E1 		mov	r3, r0
 7620 70dc FEFFFFEB 		mov	r4, r1
 7621 70e0 0030A0E1 		mov	r5, r3
 7622 70e4 0140A0E1 		mov	r6, r4
 7623 70e8 0500A0E1 		ldr	r3, .L36
 7624 70ec 0610A0E1 		ldr	r3, [r3, #20]	@ float
 7625 70f0 0320A0E1 		mov	r0, r3
 7626 70f4 0430A0E1 		bl	__extendsfdf2
 7627 70f8 FEFFFFEB 		mov	r3, r0
 7628 70fc 0030A0E1 		mov	r4, r1
 7629 7100 0140A0E1 		mov	r0, r3
 7630 7104 0350A0E1 		mov	r1, r4
 7631 7108 0460A0E1 		bl	sin
 7632 710c 0C3C1FE5 		mov	r3, r0
 7633 7110 103093E5 		mov	r4, r1
 7634 7114 0300A0E1 		mov	r0, r5
 7635 7118 FEFFFFEB 		mov	r1, r6
 7636 711c 0030A0E1 		mov	r2, r3
 7637 7120 0140A0E1 		mov	r3, r4
 7638 7124 0300A0E1 		bl	__muldf3
 7639 7128 0410A0E1 		mov	r3, r0
 7640 712c FEFFFFEB 		mov	r4, r1
 7641 7130 0030A0E1 		mov	r5, r3
 7642 7134 0140A0E1 		mov	r6, r4
 7643 7138 0500A0E1 		ldr	r3, .L36
 7644 713c 0610A0E1 		ldr	r3, [r3, #20]	@ float
 7645 7140 0320A0E1 		mov	r0, r3
 7646 7144 0430A0E1 		bl	__extendsfdf2
 7647 7148 FEFFFFEB 		mov	r3, r0
 7648 714c 0030A0E1 		mov	r4, r1
 7649 7150 0140A0E1 		mov	r0, r3
 7650 7154 0900A0E1 		mov	r1, r4
 7651 7158 0A10A0E1 		bl	sin
 7652 715c 0320A0E1 		mov	r3, r0
 7653 7160 0430A0E1 		mov	r4, r1
 7654 7164 FEFFFFEB 		mov	r0, r5
 7655 7168 0030A0E1 		mov	r1, r6
 7656 716c 0140A0E1 		mov	r2, r3
 7657 7170 0390A0E1 		mov	r3, r4
 7658 7174 04A0A0E1 		bl	__muldf3
 7659 7178 783C1FE5 		mov	r3, r0
 7660 717c 0C3093E5 		mov	r4, r1
 7661 7180 0300A0E1 		mov	r0, r9
 7662 7184 FEFFFFEB 		mov	r1, sl
 7663 7188 0030A0E1 		mov	r2, r3
 7664 718c 0140A0E1 		mov	r3, r4
 7665 7190 0300A0E1 		bl	__adddf3
 7666 7194 0410A0E1 		mov	r3, r0
 7667 7198 FEFFFFEB 		mov	r4, r1
 7668 719c 0050A0E1 		mov	r0, r7
 7669 71a0 0160A0E1 		mov	r1, r8
 7670 71a4 A43C1FE5 		mov	r2, r3
 7671 71a8 0C3093E5 		mov	r3, r4
 7672 71ac 0300A0E1 		bl	__divdf3
 7673 71b0 FEFFFFEB 		mov	r3, r0
 7674 71b4 0030A0E1 		mov	r4, r1
 7675 71b8 0140A0E1 		mov	r0, r3
 7676 71bc 0300A0E1 		mov	r1, r4
 7677 71c0 0410A0E1 		bl	__truncdfsf2
 7678 71c4 FEFFFFEB 		mov	r3, r0
 7679 71c8 0030A0E1 		str	r3, [fp, #-132]	@ float
 7680 71cc 0140A0E1 		.loc 1 275 0
 7681 71d0 0500A0E1 		ldr	r3, .L36+4
 7682 71d4 0610A0E1 		sub	ip, fp, #128
 7683 71d8 0320A0E1 		ldmia	r3, {r0, r1, r2}
 7684 71dc 0430A0E1 		stmia	ip, {r0, r1, r2}
 7685 71e0 FEFFFFEB 		.loc 1 276 0
 7686 71e4 0030A0E1 		sub	ip, fp, #164
 7687 71e8 0140A0E1 		sub	r3, fp, #116
 7688 71ec 0350A0E1 		str	r3, [sp, #0]
 7689 71f0 0460A0E1 		sub	r3, fp, #128
 7690 71f4 F43C1FE5 		str	r3, [sp, #4]
 7691 71f8 103093E5 		mov	r0, #3
 7692 71fc 0300A0E1 		mov	r1, #3
 7693 7200 FEFFFFEB 		mov	r2, #1
 7694 7204 0030A0E1 		mov	r3, ip
 7695 7208 0140A0E1 		bl	matrix_multiply
 7696 720c 0300A0E1 		.loc 1 277 0
 7697 7210 0410A0E1 		ldr	r3, .L36+16
 7698 7214 FEFFFFEB 		ldr	r2, [r3, #0]	@ float
 7699 7218 0030A0E1 		ldr	r3, .L36+20
 7700 721c 0140A0E1 		ldr	r3, [r3, #0]	@ float
 7701 7220 0500A0E1 		mov	r0, r2
 7702 7224 0610A0E1 		mov	r1, r3
 7703 7228 0320A0E1 		bl	__divsf3
 7704 722c 0430A0E1 		mov	r3, r0
 7705 7230 FEFFFFEB 		mov	r0, r3
 7706 7234 0030A0E1 		bl	__extendsfdf2
 7707 7238 0140A0E1 		mov	r5, r0
 7708 723c 0350A0E1 		mov	r6, r1
 7709 7240 0460A0E1 		ldr	r3, [fp, #-128]	@ float
 7710 7244 443D1FE5 		ldr	r2, [fp, #-128]	@ float
 7711 7248 103093E5 		mov	r0, r3
 7712 724c 0300A0E1 		mov	r1, r2
 7713 7250 FEFFFFEB 		bl	__mulsf3
 7714 7254 0030A0E1 		mov	r3, r0
 7715 7258 0140A0E1 		mov	r4, r3
 7716 725c 0300A0E1 		ldr	r3, [fp, #-124]	@ float
 7717 7260 0410A0E1 		ldr	r2, [fp, #-124]	@ float
 7718 7264 FEFFFFEB 		mov	r0, r3
 7719 7268 0030A0E1 		mov	r1, r2
 7720 726c 0140A0E1 		bl	__mulsf3
 7721 7270 0500A0E1 		mov	r3, r0
 7722 7274 0610A0E1 		mov	r0, r4
 7723 7278 0320A0E1 		mov	r1, r3
 7724 727c 0430A0E1 		bl	__addsf3
 7725 7280 FEFFFFEB 		mov	r3, r0
 7726 7284 0030A0E1 		mov	r4, r3
 7727 7288 0140A0E1 		ldr	r3, [fp, #-120]	@ float
 7728 728c 0350A0E1 		ldr	r2, [fp, #-120]	@ float
 7729 7290 0460A0E1 		mov	r0, r3
 7730 7294 943D1FE5 		mov	r1, r2
 7731 7298 143093E5 		bl	__mulsf3
 7732 729c 0300A0E1 		mov	r3, r0
 7733 72a0 FEFFFFEB 		mov	r0, r4
 7734 72a4 0030A0E1 		mov	r1, r3
 7735 72a8 0140A0E1 		bl	__addsf3
 7736 72ac 0300A0E1 		mov	r3, r0
 7737 72b0 0410A0E1 		mov	r0, r3
 7738 72b4 FEFFFFEB 		bl	__extendsfdf2
 7739 72b8 0030A0E1 		mov	r3, r0
 7740 72bc 0140A0E1 		mov	r4, r1
 7741 72c0 0500A0E1 		mov	r0, r3
 7742 72c4 0610A0E1 		mov	r1, r4
 7743 72c8 0320A0E1 		bl	sqrt
 7744 72cc 0430A0E1 		mov	r3, r0
 7745 72d0 FEFFFFEB 		mov	r4, r1
 7746 72d4 0030A0E1 		mov	r0, r5
 7747 72d8 0140A0E1 		mov	r1, r6
 7748 72dc 0350A0E1 		mov	r2, r3
 7749 72e0 0460A0E1 		mov	r3, r4
 7750 72e4 E43D1FE5 		bl	__muldf3
 7751 72e8 143093E5 		mov	r3, r0
 7752 72ec 0300A0E1 		mov	r4, r1
 7753 72f0 FEFFFFEB 		mov	r0, r3
 7754 72f4 0030A0E1 		mov	r1, r4
 7755 72f8 0140A0E1 		bl	__truncdfsf2
 7756 72fc 0300A0E1 		mov	r2, r0
 7757 7300 0410A0E1 		ldr	r3, .L36+12
 7758 7304 FEFFFFEB 		str	r2, [r3, #0]	@ float
 7759 7308 0030A0E1 		.loc 1 280 0
 7760 730c 0140A0E1 		sub	ip, fp, #164
 7761 7310 0500A0E1 		sub	r3, fp, #116
 7762 7314 0610A0E1 		str	r3, [sp, #0]
 7763 7318 0320A0E1 		ldr	r3, .L36+8
 7764 731c 0430A0E1 		str	r3, [sp, #4]
 7765 7320 FEFFFFEB 		mov	r0, #3
 7766 7324 0030A0E1 		mov	r1, #3
 7767 7328 0140A0E1 		mov	r2, #1
 7768 732c 0900A0E1 		mov	r3, ip
 7769 7330 0A10A0E1 		bl	matrix_multiply
 7770 7334 0320A0E1 		.loc 1 281 0
 7771 7338 0430A0E1 		ldr	r3, .L36+8
 7772 733c FEFFFFEB 		ldr	r2, [r3, #0]	@ float
 7773 7340 0030A0E1 		ldr	r3, .L36+12
 7774 7344 0140A0E1 		ldr	r3, [r3, #0]	@ float
 7775 7348 0700A0E1 		mov	r0, r2
 7776 734c 0810A0E1 		mov	r1, r3
 7777 7350 0320A0E1 		bl	__mulsf3
 7778 7354 0430A0E1 		mov	r3, r0
 7779 7358 FEFFFFEB 		mov	r2, r3
 7780 735c 0030A0E1 		ldr	r3, .L36+16
 7781 7360 0140A0E1 		ldr	r3, [r3, #0]	@ float
 7782 7364 0300A0E1 		mov	r0, r2
 7783 7368 0410A0E1 		mov	r1, r3
 7784 736c FEFFFFEB 		bl	__mulsf3
 7785 7370 0030A0E1 		mov	r3, r0
 7786 7374 84300BE5 		mov	r2, r3
 274:lab.c         **** 
 275:lab.c         **** 	float tmp_result[3] = {0,0,0};
 7787              	, [r3, #0]	@ float
 7788 7378 743E1FE5 		mov	r0, r2
 7789 737c 80C04BE2 		mov	r1, r3
 7790 7380 070093E8 		bl	__mulsf3
 7791 7384 07008CE8 		mov	r3, r0
 276:lab.c         **** 	matrix_multiply(3,3,1,Rinv,a_desired,tmp_result);
 7792              	r2, r3
 7793 7388 A4C04BE2 		ldr	r3, .L39+8
 7794 738c 74304BE2 		ldr	r3, [r3, #0]	@ float
 7795 7390 00308DE5 		mov	r0, r2
 7796 7394 80304BE2 		mov	r1, r3
 7797 7398 04308DE5 		bl	__mulsf3
 7798 739c 0300A0E3 		mov	r3, r0
 7799 73a0 0310A0E3 		mov	r2, r3
 7800 73a4 0120A0E3 		ldr	r3, .L39+12
 7801 73a8 0C30A0E1 		ldr	r3, [r3, #0]	@ float
 7802 73ac FEFFFFEB 		mov	r0, r2
 277:lab.c         **** 	fsum_des = mass/nz_eq * sqrt(tmp_result[0]*tmp_result[0] + tmp_result[1]*tmp_result[1] + tmp_resul
 7803              	
 7804 73b0 A03E1FE5 		bl	__divsf3
 7805 73b4 002093E5 		mov	r3, r0
 7806 73b8 A43E1FE5 		mov	r2, r3
 7807 73bc 003093E5 		ldr	r3, .L39
 7808 73c0 0200A0E1 		str	r2, [r3, #4]	@ float
 7809 73c4 0310A0E1 		.loc 1 283 0
 7810 73c8 FEFFFFEB 		ldr	r3, .L39
 7811 73cc 0030A0E1 		ldr	r2, [r3, #8]	@ float
 7812 73d0 0300A0E1 		ldr	r3, .L39+4
 7813 73d4 FEFFFFEB 		ldr	r3, [r3, #0]	@ float
 7814 73d8 0050A0E1 		mov	r0, r2
 7815 73dc 0160A0E1 		mov	r1, r3
 7816 73e0 80301BE5 		bl	__mulsf3
 7817 73e4 80201BE5 		mov	r3, r0
 7818 73e8 0300A0E1 		mov	r2, r3
 7819 73ec 0210A0E1 		ldr	r3, .L39+8
 7820 73f0 FEFFFFEB 		ldr	r3, [r3, #0]	@ float
 7821 73f4 0030A0E1 		mov	r0, r2
 7822 73f8 0340A0E1 		mov	r1, r3
 7823 73fc 7C301BE5 		bl	__mulsf3
 7824 7400 7C201BE5 		mov	r3, r0
 7825 7404 0300A0E1 		mov	r2, r3
 7826 7408 0210A0E1 		ldr	r3, .L39+12
 7827 740c FEFFFFEB 		ldr	r3, [r3, #0]	@ float
 7828 7410 0030A0E1 		mov	r0, r2
 7829 7414 0400A0E1 		mov	r1, r3
 7830 7418 0310A0E1 		bl	__divsf3
 7831 741c FEFFFFEB 		mov	r3, r0
 7832 7420 0030A0E1 		mov	r2, r3
 7833 7424 0340A0E1 		ldr	r3, .L39
 7834 7428 78301BE5 		str	r2, [r3, #8]	@ float
 7835 742c 78201BE5 	.L25:
 7836 7430 0300A0E1 	.LBE2:
 7837 7434 0210A0E1 		.loc 1 291 0
 7838 7438 FEFFFFEB 		ldr	r3, .L39
 7839 743c 0030A0E1 		ldr	r2, [r3, #0]	@ float
 7840 7440 0400A0E1 		ldr	r3, .L39+16
 7841 7444 0310A0E1 		str	r2, [r3, #8]	@ float
 7842 7448 FEFFFFEB 		.loc 1 292 0
 7843 744c 0030A0E1 		ldr	r3, .L39
 7844 7450 0300A0E1 		ldr	r2, [r3, #4]	@ float
 7845 7454 FEFFFFEB 		ldr	r3, .L39+16
 7846 7458 0030A0E1 		str	r2, [r3, #12]	@ float
 7847 745c 0140A0E1 		.loc 1 295 0
 7848 7460 0300A0E1 		ldr	r3, .L39+20
 7849 7464 0410A0E1 		ldr	r2, [r3, #36]	@ float
 7850 7468 FEFFFFEB 		ldr	r3, .L39+20
 7851 746c 0030A0E1 		ldr	r1, [r3, #40]	@ float
 7852 7470 0140A0E1 		ldr	r3, .L39+20
 7853 7474 0500A0E1 		ldr	r3, [r3, #44]	@ float
 7854 7478 0610A0E1 		str	r2, [fp, #-68]	@ float
 7855 747c 0320A0E1 		str	r1, [fp, #-64]	@ float
 7856 7480 0430A0E1 		str	r3, [fp, #-60]	@ float
 7857 7484 FEFFFFEB 		.loc 1 296 0
 7858 7488 0030A0E1 		ldr	r3, [fp, #-68]	@ float
 7859 748c 0140A0E1 		ldr	r2, [fp, #-68]	@ float
 7860 7490 0300A0E1 		mov	r0, r3
 7861 7494 0410A0E1 		mov	r1, r2
 7862 7498 FEFFFFEB 		bl	__mulsf3
 7863 749c 0020A0E1 		mov	r3, r0
 7864 74a0 943F1FE5 		mov	r4, r3
 7865 74a4 002083E5 		ldr	r3, [fp, #-64]	@ float
 278:lab.c         **** 
 279:lab.c         **** 
 280:lab.c         **** 	matrix_multiply(3,3,1,Rinv,a_desired,n_des);
 7866              	f3
 7867 74a8 A4C04BE2 		mov	r3, r0
 7868 74ac 74304BE2 		mov	r0, r4
 7869 74b0 00308DE5 		mov	r1, r3
 7870 74b4 AC3F1FE5 		bl	__addsf3
 7871 74b8 04308DE5 		mov	r3, r0
 7872 74bc 0300A0E3 		mov	r4, r3
 7873 74c0 0310A0E3 		ldr	r3, [fp, #-60]	@ float
 7874 74c4 0120A0E3 		ldr	r2, [fp, #-60]	@ float
 7875 74c8 0C30A0E1 		mov	r0, r3
 7876 74cc FEFFFFEB 		mov	r1, r2
 281:lab.c         **** 	n_des[0] = n_des[0] * fsum_des*mass/nz_eq;
 7877              	3
 7878 74d0 C83F1FE5 		mov	r3, r0
 7879 74d4 002093E5 		mov	r0, r4
 7880 74d8 CC3F1FE5 		mov	r1, r3
 7881 74dc 003093E5 		bl	__addsf3
 7882 74e0 0200A0E1 		mov	r3, r0
 7883 74e4 0310A0E1 		mov	r0, r3
 7884 74e8 FEFFFFEB 		bl	__extendsfdf2
 7885 74ec 0030A0E1 		mov	r3, r0
 7886 74f0 0320A0E1 		mov	r4, r1
 7887 74f4 E43F1FE5 		mov	r0, r3
 7888 74f8 003093E5 		mov	r1, r4
 7889 74fc 0200A0E1 		bl	sqrt
 7890 7500 0310A0E1 		mov	r3, r0
 7891 7504 FEFFFFEB 		mov	r4, r1
 7892 7508 0030A0E1 		mov	r0, r3
 7893 750c 0320A0E1 		mov	r1, r4
 7894 7510 FC3F1FE5 		bl	__truncdfsf2
 7895 7514 003093E5 		mov	r3, r0
 7896 7518 0200A0E1 		str	r3, [fp, #-56]	@ float
 7897 751c 0310A0E1 		.loc 1 297 0
 7898 7520 FEFFFFEB 		ldr	r3, .L39+20
 7899 7524 0030A0E1 		ldr	r3, [r3, #36]	@ float
 7900 7528 0320A0E1 		mov	r0, r3
 7901 752c 38349FE5 		ldr	r1, [fp, #-56]	@ float
 7902 7530 002083E5 		bl	__divsf3
 282:lab.c         **** 	n_des[1] = n_des[1] * fsum_des*mass/nz_eq;
 7903              	dr	r3, .L39+20
 7904 7534 30349FE5 		ldr	r3, [r3, #40]	@ float
 7905 7538 042093E5 		mov	r0, r3
 7906 753c 2C349FE5 		ldr	r1, [fp, #-56]	@ float
 7907 7540 003093E5 		bl	__divsf3
 7908 7544 0200A0E1 		mov	r3, r0
 7909 7548 0310A0E1 		mov	r4, r3
 7910 754c FEFFFFEB 		ldr	r3, .L39+20
 7911 7550 0030A0E1 		ldr	r3, [r3, #44]	@ float
 7912 7554 0320A0E1 		mov	r0, r3
 7913 7558 14349FE5 		ldr	r1, [fp, #-56]	@ float
 7914 755c 003093E5 		bl	__divsf3
 7915 7560 0200A0E1 		mov	r3, r0
 7916 7564 0310A0E1 		str	r5, [fp, #-80]	@ float
 7917 7568 FEFFFFEB 		str	r4, [fp, #-76]	@ float
 7918 756c 0030A0E1 		str	r3, [fp, #-72]	@ float
 7919 7570 0320A0E1 		.loc 1 298 0
 7920 7574 FC339FE5 		ldr	r2, [fp, #-68]	@ float
 7921 7578 003093E5 		ldr	r3, .L39+16
 7922 757c 0200A0E1 		ldr	r3, [r3, #0]	@ float
 7923 7580 0310A0E1 		mov	r0, r2
 7924 7584 FEFFFFEB 		mov	r1, r3
 7925 7588 0030A0E1 		bl	__subsf3
 7926 758c 0320A0E1 		mov	r3, r0
 7927 7590 D4339FE5 		mov	r4, r3
 7928 7594 042083E5 		ldr	r2, [fp, #-64]	@ float
 283:lab.c         **** 	n_des[2] = n_des[2] * fsum_des*mass/nz_eq;
 7929              	[r3, #4]	@ float
 7930 7598 CC339FE5 		mov	r0, r2
 7931 759c 082093E5 		mov	r1, r3
 7932 75a0 C8339FE5 		bl	__subsf3
 7933 75a4 003093E5 		mov	r3, r0
 7934 75a8 0200A0E1 		mov	r5, r3
 7935 75ac 0310A0E1 		ldr	r2, [fp, #-80]	@ float
 7936 75b0 FEFFFFEB 		ldr	r3, .L39+16
 7937 75b4 0030A0E1 		ldr	r3, [r3, #8]	@ float
 7938 75b8 0320A0E1 		mov	r0, r2
 7939 75bc B0339FE5 		mov	r1, r3
 7940 75c0 003093E5 		bl	__subsf3
 7941 75c4 0200A0E1 		mov	r3, r0
 7942 75c8 0310A0E1 		mov	r6, r3
 7943 75cc FEFFFFEB 		ldr	r2, [fp, #-76]	@ float
 7944 75d0 0030A0E1 		ldr	r3, .L39+16
 7945 75d4 0320A0E1 		ldr	r3, [r3, #12]	@ float
 7946 75d8 98339FE5 		mov	r0, r2
 7947 75dc 003093E5 		mov	r1, r3
 7948 75e0 0200A0E1 		bl	__subsf3
 7949 75e4 0310A0E1 		mov	r3, r0
 7950 75e8 FEFFFFEB 		str	r4, [fp, #-96]	@ float
 7951 75ec 0030A0E1 		str	r5, [fp, #-92]	@ float
 7952 75f0 0320A0E1 		str	r6, [fp, #-88]	@ float
 7953 75f4 70339FE5 		str	r3, [fp, #-84]	@ float
 7954 75f8 082083E5 		.loc 1 300 0
 7955              		sub	r3, fp, #96
 7956              		str	r3, [sp, #0]
 284:lab.c         **** }
 285:lab.c         **** 
 286:lab.c         **** 	/////////////////////////////////
 287:lab.c         **** 	// Begin inner loop to match the target n_des and fsum_des.
 288:lab.c         **** 	//
 289:lab.c         **** 	//
 290:lab.c         **** 	/////////////////////////////////
 291:lab.c         **** 	se[2] = n_des[0];
 7957              	sp, #4]
 7958 75fc 68339FE5 		mov	r0, #2
 7959 7600 002093E5 		mov	r1, #4
 7960 7604 70339FE5 		mov	r2, #1
 7961 7608 082083E5 		ldr	r3, .L39+24
 292:lab.c         **** 	se[3] = n_des[1];
 7962              	atrix_multiply
 7963 760c 58339FE5 		.loc 1 301 0
 7964 7610 042093E5 		ldr	r3, .L39+28
 7965 7614 60339FE5 		ldr	r3, [r3, #0]	@ float
 7966 7618 0C2083E5 		ldr	r2, [fp, #-104]	@ float
 293:lab.c         **** 
 294:lab.c         **** 
 295:lab.c         **** 	float wB[3] = {xd[9], xd[10], xd[11]};
 7967              	r0, r3
 7968 761c 5C339FE5 		mov	r1, r2
 7969 7620 242093E5 		bl	__subsf3
 7970 7624 54339FE5 		mov	r3, r0
 7971 7628 281093E5 		str	r3, [fp, #-104]	@ float
 7972 762c 4C339FE5 		.loc 1 302 0
 7973 7630 2C3093E5 		ldr	r3, .L39+28
 7974 7634 44200BE5 		ldr	r3, [r3, #4]	@ float
 7975 7638 40100BE5 		ldr	r2, [fp, #-100]	@ float
 7976 763c 3C300BE5 		mov	r0, r3
 296:lab.c         **** 	float wBnorm = sqrt(wB[0]*wB[0] + wB[1]*wB[1] + wB[2]*wB[2]);
 7977              	2
 7978 7640 44301BE5 		bl	__subsf3
 7979 7644 44201BE5 		mov	r3, r0
 7980 7648 0300A0E1 		str	r3, [fp, #-100]	@ float
 7981 764c 0210A0E1 		.loc 1 303 0
 7982 7650 FEFFFFEB 		ldr	r3, [fp, #-100]	@ float
 7983 7654 0030A0E1 		str	r3, [fp, #-52]	@ float
 7984 7658 0340A0E1 		.loc 1 304 0
 7985 765c 40301BE5 		ldr	r2, [fp, #-104]	@ float
 7986 7660 40201BE5 		ldr	r3, .L39+4
 7987 7664 0300A0E1 		ldr	r3, [r3, #0]	@ float
 7988 7668 0210A0E1 		mov	r0, r2
 7989 766c FEFFFFEB 		mov	r1, r3
 7990 7670 0030A0E1 		bl	__addsf3
 7991 7674 0400A0E1 		mov	r3, r0
 7992 7678 0310A0E1 		mov	r0, r3
 7993 767c FEFFFFEB 		ldr	r1, [fp, #-52]	@ float
 7994 7680 0030A0E1 		bl	__subsf3
 7995 7684 0340A0E1 		mov	r3, r0
 7996 7688 3C301BE5 		mov	r0, r3
 7997 768c 3C201BE5 		ldr	r1, .L39+32	@ float
 7998 7690 0300A0E1 		bl	__mulsf3
 7999 7694 0210A0E1 		mov	r3, r0
 8000 7698 FEFFFFEB 		str	r3, [fp, #-48]	@ float
 8001 769c 0030A0E1 		.loc 1 305 0
 8002 76a0 0400A0E1 		ldr	r3, .L39+4
 8003 76a4 0310A0E1 		ldr	r3, [r3, #0]	@ float
 8004 76a8 FEFFFFEB 		mov	r0, r3
 8005 76ac 0030A0E1 		ldr	r1, [fp, #-48]	@ float
 8006 76b0 0300A0E1 		bl	__subsf3
 8007 76b4 FEFFFFEB 		mov	r3, r0
 8008 76b8 0030A0E1 		mov	r0, r3
 8009 76bc 0140A0E1 		ldr	r1, [fp, #-52]	@ float
 8010 76c0 0300A0E1 		bl	__subsf3
 8011 76c4 0410A0E1 		mov	r3, r0
 8012 76c8 FEFFFFEB 		str	r3, [fp, #-44]	@ float
 8013 76cc 0030A0E1 		.loc 1 307 0
 8014 76d0 0140A0E1 		ldr	r3, .L39+36
 8015 76d4 0300A0E1 		ldr	r3, [r3, #0]	@ float
 8016 76d8 0410A0E1 		ldr	r0, [fp, #-44]	@ float
 8017 76dc FEFFFFEB 		mov	r1, r3
 8018 76e0 0030A0E1 		bl	__divsf3
 8019 76e4 38300BE5 		mov	r3, r0
 297:lab.c         **** 	float n[3] = {xd[9]/wBnorm, xd[10]/wBnorm, xd[11]/wBnorm};
 8020              	#8]	@ float
 8021 76e8 90329FE5 		.loc 1 308 0
 8022 76ec 243093E5 		ldr	r3, .L39+36
 8023 76f0 0300A0E1 		ldr	r3, [r3, #0]	@ float
 8024 76f4 38101BE5 		ldr	r0, [fp, #-52]	@ float
 8025 76f8 FEFFFFEB 		mov	r1, r3
 8026 76fc 0030A0E1 		bl	__divsf3
 8027 7700 0350A0E1 		mov	r3, r0
 8028 7704 74329FE5 		mov	r2, r3
 8029 7708 283093E5 		ldr	r3, .L39+40
 8030 770c 0300A0E1 		str	r2, [r3, #8]	@ float
 8031 7710 38101BE5 		.loc 1 309 0
 8032 7714 FEFFFFEB 		ldr	r3, .L39+36
 8033 7718 0030A0E1 		ldr	r3, [r3, #0]	@ float
 8034 771c 0340A0E1 		ldr	r0, [fp, #-48]	@ float
 8035 7720 58329FE5 		mov	r1, r3
 8036 7724 2C3093E5 		bl	__divsf3
 8037 7728 0300A0E1 		mov	r3, r0
 8038 772c 38101BE5 		mov	r2, r3
 8039 7730 FEFFFFEB 		ldr	r3, .L39+40
 8040 7734 0030A0E1 		str	r2, [r3, #8]	@ float
 8041 7738 50500BE5 		.loc 1 310 0
 8042 773c 4C400BE5 		ldr	r2, .L39+40
 8043 7740 48300BE5 		ldr	r3, .L39+32	@ float
 298:lab.c         **** 	float si[4] = {wB[0]-se[0], wB[1]-se[1], n[0]-se[2], n[1]-se[3]};
 8044              	at
 8045 7744 44201BE5 		.loc 1 316 0
 8046 7748 2C329FE5 		ldr	r3, .L39+40
 8047 774c 003093E5 		ldr	r2, [r3, #0]	@ float
 8048 7750 0200A0E1 		ldr	r3, .L39+44
 8049 7754 0310A0E1 		str	r2, [r3, #0]	@ float
 8050 7758 FEFFFFEB 		.loc 1 317 0
 8051 775c 0030A0E1 		ldr	r3, .L39+40
 8052 7760 0340A0E1 		ldr	r2, [r3, #4]	@ float
 8053 7764 40201BE5 		ldr	r3, .L39+44
 8054 7768 0C329FE5 		str	r2, [r3, #4]	@ float
 8055 776c 043093E5 		.loc 1 318 0
 8056 7770 0200A0E1 		ldr	r3, .L39+40
 8057 7774 0310A0E1 		ldr	r2, [r3, #8]	@ float
 8058 7778 FEFFFFEB 		ldr	r3, .L39+44
 8059 777c 0030A0E1 		str	r2, [r3, #8]	@ float
 8060 7780 0350A0E1 		.loc 1 319 0
 8061 7784 50201BE5 		ldr	r3, .L39+40
 8062 7788 EC319FE5 		ldr	r2, [r3, #12]	@ float
 8063 778c 083093E5 		ldr	r3, .L39+44
 8064 7790 0200A0E1 		str	r2, [r3, #12]	@ float
 8065 7794 0310A0E1 		.loc 1 322 0
 8066 7798 FEFFFFEB 		sub	sp, fp, #40
 8067 779c 0030A0E1 		ldmfd	sp, {r4, r5, r6, r7, r8, r9, sl, fp, sp, lr}
 8068 77a0 0360A0E1 		bx	lr
 8069 77a4 4C201BE5 	.L40:
 8070 77a8 CC319FE5 		.align	2
 8071 77ac 0C3093E5 	.L39:
 8072 77b0 0200A0E1 		.word	n_des
 8073 77b4 0310A0E1 		.word	fsum_des
 8074 77b8 FEFFFFEB 		.word	mass
 8075 77bc 0030A0E1 		.word	nz_eq
 8076 77c0 60400BE5 		.word	se
 8077 77c4 5C500BE5 		.word	xd
 8078 77c8 58600BE5 		.word	K_i
 8079 77cc 54300BE5 		.word	ue
 299:lab.c         **** 	float u_desired[2];
 300:lab.c         **** 	matrix_multiply(2,4,1,K_i,si,u_desired);
 8080              	rd	u
 8081 77d0 60304BE2 	.LFE4:
 8083 77d8 68304BE2 		.global	__gtsf2
 8084 77dc 04308DE5 		.global	__ltsf2
 8085 77e0 0200A0E3 		.global	__fixunssfsi
 8086 77e4 0410A0E3 		.align	2
 8087 77e8 0120A0E3 		.global	convert_input_to_motor_commands
 8089 77f0 FEFFFFEB 	convert_input_to_motor_commands:
 301:lab.c         **** 	u_desired[0] = -u_desired[0] + ue[0];
 8090              	oc 1 328 0
 8091 77f4 8C319FE5 		@ Function supports interworking.
 8092 77f8 003093E5 		@ args = 0, pretend = 0, frame = 20
 8093 77fc 68201BE5 		@ frame_needed = 1, uses_anonymous_args = 0
 8094 7800 0300A0E1 		mov	ip, sp
 8095 7804 0210A0E1 	.LCFI11:
 8096 7808 FEFFFFEB 		stmfd	sp!, {r4, r5, r6, fp, ip, lr, pc}
 8097 780c 0030A0E1 	.LCFI12:
 8098 7810 68300BE5 		sub	fp, ip, #4
 302:lab.c         **** 	u_desired[1] = -u_desired[1] + ue[1];
 8099              		sub	sp, sp, #20
 8100 7814 6C319FE5 	.LCFI14:
 8101 7818 043093E5 		.loc 1 330 0
 8102 781c 64201BE5 		ldr	r2, .L60+16
 8103 7820 0300A0E1 		mov	r3, #0
 8104 7824 0210A0E1 		strb	r3, [r2, #0]
 8105 7828 FEFFFFEB 		.loc 1 336 0
 8106 782c 0030A0E1 		ldr	r2, .L60+16
 8107 7830 64300BE5 		mov	r3, #1
 303:lab.c         **** 	float f2 = u_desired[1];
 8108              	 [r2, #1]
 8109 7834 64301BE5 		.loc 1 342 0
 8110 7838 34300BE5 		ldr	r3, .L60+20
 304:lab.c         **** 	float f3 = 1/2 * (fsum_des + u_desired[0] - f2);
 8111              	r	r3, [r3, #0]	@ float
 8112 783c 68201BE5 		mov	r0, r3
 8113 7840 28319FE5 		bl	__extendsfdf2
 8114 7844 003093E5 		mov	r3, r0
 8115 7848 0200A0E1 		mov	r4, r1
 8116 784c 0310A0E1 		mov	r0, r3
 8117 7850 FEFFFFEB 		mov	r1, r4
 8118 7854 0030A0E1 		mov	r2, r3
 8119 7858 0300A0E1 		mov	r3, r4
 8120 785c 34101BE5 		bl	__adddf3
 8121 7860 FEFFFFEB 		mov	r3, r0
 8122 7864 0030A0E1 		mov	r4, r1
 8123 7868 0300A0E1 		mov	r5, r3
 8124 786c 18119FE5 		mov	r6, r4
 8125 7870 FEFFFFEB 		ldr	r3, .L60+24
 8126 7874 0030A0E1 		ldr	r3, [r3, #0]	@ float
 8127 7878 30300BE5 		mov	r0, r3
 305:lab.c         **** 	float f1 = fsum_des - f3 - f2;
 8128              	
 8129 787c EC309FE5 		mov	r3, r0
 8130 7880 003093E5 		mov	r4, r1
 8131 7884 0300A0E1 		mov	r0, r5
 8132 7888 30101BE5 		mov	r1, r6
 8133 788c FEFFFFEB 		mov	r2, r3
 8134 7890 0030A0E1 		mov	r3, r4
 8135 7894 0300A0E1 		bl	__muldf3
 8136 7898 34101BE5 		mov	r3, r0
 8137 789c FEFFFFEB 		mov	r4, r1
 8138 78a0 0030A0E1 		mov	r0, #1069547520
 8139 78a4 2C300BE5 		add	r0, r0, #3145728
 306:lab.c         **** 
 307:lab.c         **** 	cnt_u[2] = f1/kF;
 8140              	
 8141 78a8 E0309FE5 		mov	r2, r3
 8142 78ac 003093E5 		mov	r3, r4
 8143 78b0 2C001BE5 		bl	__divdf3
 8144 78b4 0310A0E1 		mov	r3, r0
 8145 78b8 FEFFFFEB 		mov	r4, r1
 8146 78bc 0030A0E1 		mov	r0, r3
 8147 78c0 0320A0E1 		mov	r1, r4
 8148 78c4 C8309FE5 		bl	__truncdfsf2
 8149 78c8 082083E5 		mov	r3, r0
 308:lab.c         **** 	cnt_u[2] = f2/kF;
 8150              	[fp, #-40]	@ float
 8151 78cc BC309FE5 		.loc 1 343 0
 8152 78d0 003093E5 		ldr	r3, .L60+24
 8153 78d4 34001BE5 		ldr	r3, [r3, #0]	@ float
 8154 78d8 0310A0E1 		mov	r0, r3
 8155 78dc FEFFFFEB 		bl	__extendsfdf2
 8156 78e0 0030A0E1 		mov	r3, r0
 8157 78e4 0320A0E1 		mov	r4, r1
 8158 78e8 A4309FE5 		mov	r0, r3
 8159 78ec 082083E5 		mov	r1, r4
 309:lab.c         **** 	cnt_u[2] = f3/kF;
 8160              	1073741824
 8161 78f0 98309FE5 		add	r2, r2, #1048576
 8162 78f4 003093E5 		mov	r3, #0
 8163 78f8 30001BE5 		bl	__muldf3
 8164 78fc 0310A0E1 		mov	r3, r0
 8165 7900 FEFFFFEB 		mov	r4, r1
 8166 7904 0030A0E1 		mov	r0, #1069547520
 8167 7908 0320A0E1 		add	r0, r0, #3145728
 8168 790c 80309FE5 		mov	r1, #0
 8169 7910 082083E5 		mov	r2, r3
 310:lab.c         **** 	cnt_u[3] = 0;
 8170              	4
 8171 7914 78209FE5 		bl	__divdf3
 8172 7918 6C309FE5 		mov	r3, r0
 8173 791c 0C3082E5 		mov	r4, r1
 311:lab.c         **** 
 312:lab.c         **** 	////////////////////////
 313:lab.c         ****     // DO NOT MODIFY
 314:lab.c         ****     //
 315:lab.c         **** 	// Store result
 316:lab.c         **** 	u.u1 = cnt_u[0];
 8174              		r0, r3
 8175 7920 6C309FE5 		mov	r1, r4
 8176 7924 002093E5 		bl	__truncdfsf2
 8177 7928 68309FE5 		mov	r3, r0
 8178 792c 002083E5 		str	r3, [fp, #-36]	@ float
 317:lab.c         **** 	u.u2 = cnt_u[1];
 8179              	 1 344 0
 8180 7930 5C309FE5 		ldr	r3, .L60+28
 8181 7934 042093E5 		ldr	r3, [r3, #0]	@ float
 8182 7938 58309FE5 		mov	r0, r3
 8183 793c 042083E5 		bl	__extendsfdf2
 318:lab.c         **** 	u.u3 = cnt_u[2];
 8184              	r3, r0
 8185 7940 4C309FE5 		mov	r4, r1
 8186 7944 082093E5 		mov	r0, r3
 8187 7948 48309FE5 		mov	r1, r4
 8188 794c 082083E5 		mov	r2, #1073741824
 319:lab.c         **** 	u.u4 = cnt_u[3];
 8189              	r2, r2, #1048576
 8190 7950 3C309FE5 		mov	r3, #0
 8191 7954 0C2093E5 		bl	__muldf3
 8192 7958 38309FE5 		mov	r3, r0
 8193 795c 0C2083E5 		mov	r4, r1
 320:lab.c         ****     //
 321:lab.c         ****     ////////////////////////
 322:lab.c         **** }
 8194              	r0, #1069547520
 8195 7960 28D04BE2 		add	r0, r0, #3145728
 8196 7964 F06F9DE8 		mov	r1, #0
 8197 7968 1EFF2FE1 		mov	r2, r3
 8198              		mov	r3, r4
 8199              		bl	__divdf3
 8200              		mov	r3, r0
 8201 796c 00000000 		mov	r4, r1
 8202 7970 00000000 		mov	r0, r3
 8203 7974 00000000 		mov	r1, r4
 8204 7978 00000000 		bl	__truncdfsf2
 8205 797c 00000000 		mov	r3, r0
 8206 7980 00000000 		str	r3, [fp, #-32]	@ float
 8207 7984 00000000 		.loc 1 367 0
 8208 7988 00000000 		mov	r3, #0
 8209 798c 00000000 		str	r3, [fp, #-28]
 8210 7990 00000000 		b	.L42
 8211 7994 00000000 	.L43:
 8212 7998 00000000 		.loc 1 368 0
 8213              		ldr	r2, [fp, #-28]
 8214              		ldr	r3, .L60+32
 8215              		ldr	r2, [r3, r2, asl #2]	@ float
 8216              		ldr	r3, .L60+36
 8217              		ldr	r3, [r3, #0]	@ float
 8218              		mov	r0, r2
 8219              		mov	r1, r3
 8220              		bl	__gtsf2
 8221              		mov	r3, r0
 8222              		cmp	r3, #0
 323:lab.c         **** /*------------ End Lab 3 ------------*/
 324:lab.c         **** 
 325:lab.c         **** /*------------ End Controller ------------*/
 326:lab.c         **** 
 327:lab.c         **** /*---------------- Command ---------------*/
 328:lab.c         **** void convert_input_to_motor_commands() {
 8223              	 1 369 0
 8224              		ldr	r1, [fp, #-28]
 8225              		ldr	r3, .L60+36
 8226              		ldr	r2, [r3, #0]	@ float
 8227 799c 0DC0A0E1 		ldr	r3, .L60+32
 8228              		str	r2, [r3, r1, asl #2]	@ float
 8229 79a0 70D82DE9 		b	.L47
 8230              	.L44:
 8231 79a4 04B04CE2 		.loc 1 371 0
 8232              		ldr	r2, [fp, #-28]
 8233 79a8 14D04DE2 		ldr	r3, .L60+32
 8234              		ldr	r2, [r3, r2, asl #2]	@ float
 329:lab.c         **** 	/////////////// Controller Settings ////////////
 330:lab.c         **** 	WO_SDK.ctrl_mode=0x00;  //0x00: direct individual motor control (individual commands for motors 0.
 8235              	0+40
 8236 79ac 3C249FE5 		ldr	r3, [r3, #0]	@ float
 8237 79b0 0030A0E3 		mov	r0, r2
 8238 79b4 0030C2E5 		mov	r1, r3
 331:lab.c         **** 				//0x01: direct motor control using standard output mapping: commands are interpreted as pitch, 
 332:lab.c         **** 				//      and thrust inputs; no attitude controller active
 333:lab.c         **** 				//0x02: attitude and throttle control: commands are input for standard attitude controller
 334:lab.c         **** 				//0x03: GPS waypoint control
 335:lab.c         **** 
 336:lab.c         **** 	WO_SDK.ctrl_enabled=1;	//0: disable control by HL processor
 8239              	__ltsf2
 8240 79b8 30249FE5 		mov	r3, r0
 8241 79bc 0130A0E3 		cmp	r3, #0
 8242 79c0 0130C2E5 		blt	.L49
 337:lab.c         **** 				//1: enable control by HL processor
 338:lab.c         **** 	////////////////////////////////////////////////
 339:lab.c         **** 
 340:lab.c         **** 	//////// Translate commanded torques and thrust into rotor speed and commands ////////////
 341:lab.c         **** 	// NOTE METHOD BELOW ASSUMES THAT CG IS IN THE SAME PLANE AS THE ROTORS
 342:lab.c         **** 	float twolkF = 1.0/(2.0*l*kF);
 8243              	L47
 8244 79c4 28349FE5 	.L49:
 8245 79c8 003093E5 		.loc 1 372 0
 8246 79cc 0300A0E1 		ldr	r1, [fp, #-28]
 8247 79d0 FEFFFFEB 		ldr	r3, .L60+40
 8248 79d4 0030A0E1 		ldr	r2, [r3, #0]	@ float
 8249 79d8 0140A0E1 		ldr	r3, .L60+32
 8250 79dc 0300A0E1 		str	r2, [r3, r1, asl #2]	@ float
 8251 79e0 0410A0E1 	.L47:
 8252 79e4 0320A0E1 		.loc 1 374 0
 8253 79e8 0430A0E1 		ldr	r5, [fp, #-28]
 8254 79ec FEFFFFEB 		ldr	r2, [fp, #-28]
 8255 79f0 0030A0E1 		ldr	r3, .L60+32
 8256 79f4 0140A0E1 		ldr	r3, [r3, r2, asl #2]	@ float
 8257 79f8 0350A0E1 		mov	r0, r3
 8258 79fc 0460A0E1 		bl	__extendsfdf2
 8259 7a00 F0339FE5 		mov	r3, r0
 8260 7a04 003093E5 		mov	r4, r1
 8261 7a08 0300A0E1 		mov	r0, r3
 8262 7a0c FEFFFFEB 		mov	r1, r4
 8263 7a10 0030A0E1 		bl	sqrt
 8264 7a14 0140A0E1 		mov	r3, r0
 8265 7a18 0500A0E1 		mov	r4, r1
 8266 7a1c 0610A0E1 		mov	r0, r3
 8267 7a20 0320A0E1 		mov	r1, r4
 8268 7a24 0430A0E1 		bl	__truncdfsf2
 8269 7a28 FEFFFFEB 		mov	r2, r0
 8270 7a2c 0030A0E1 		ldr	r3, .L60+44
 8271 7a30 0140A0E1 		str	r2, [r3, r5, asl #2]	@ float
 8272 7a34 FF05A0E3 		.loc 1 377 0
 8273 7a38 030680E2 		ldr	r5, [fp, #-28]
 8274 7a3c 0010A0E3 		ldr	r2, [fp, #-28]
 8275 7a40 0320A0E1 		ldr	r3, .L60+44
 8276 7a44 0430A0E1 		ldr	r3, [r3, r2, asl #2]	@ float
 8277 7a48 FEFFFFEB 		mov	r0, r3
 8278 7a4c 0030A0E1 		bl	__extendsfdf2
 8279 7a50 0140A0E1 		mov	r3, r0
 8280 7a54 0300A0E1 		mov	r4, r1
 8281 7a58 0410A0E1 		mov	r0, r3
 8282 7a5c FEFFFFEB 		mov	r1, r4
 8283 7a60 0030A0E1 		adr	r2, .L60
 8284 7a64 28300BE5 		ldmia	r2, {r2-r3}
 343:lab.c         **** 	float fourkF = 1.0/(4.0*kF);
 8285              	r0, r3
 8286 7a68 88339FE5 		mov	r1, r4
 8287 7a6c 003093E5 		adr	r2, .L60+8
 8288 7a70 0300A0E1 		ldmia	r2, {r2-r3}
 8289 7a74 FEFFFFEB 		bl	__subdf3
 8290 7a78 0030A0E1 		mov	r3, r0
 8291 7a7c 0140A0E1 		mov	r4, r1
 8292 7a80 0300A0E1 		mov	r0, r3
 8293 7a84 0410A0E1 		mov	r1, r4
 8294 7a88 0121A0E3 		bl	__truncdfsf2
 8295 7a8c 012682E2 		mov	r2, r0
 8296 7a90 0030A0E3 		ldr	r3, .L60+48
 8297 7a94 FEFFFFEB 		str	r2, [r3, r5, asl #2]	@ float
 8298 7a98 0030A0E1 		.loc 1 384 0
 8299 7a9c 0140A0E1 		ldr	r2, [fp, #-28]
 8300 7aa0 FF05A0E3 		ldr	r3, .L60+48
 8301 7aa4 030680E2 		ldr	r2, [r3, r2, asl #2]	@ float
 8302 7aa8 0010A0E3 		mov	r3, #0
 8303 7aac 0320A0E1 		strb	r3, [fp, #-44]
 8304 7ab0 0430A0E1 		mov	r0, r2
 8305 7ab4 FEFFFFEB 		ldr	r1, .L60+52	@ float
 8306 7ab8 0030A0E1 		bl	__ltsf2
 8307 7abc 0140A0E1 		mov	r3, r0
 8308 7ac0 0300A0E1 		cmp	r3, #0
 8309 7ac4 0410A0E1 		blt	.L51
 8310 7ac8 FEFFFFEB 		b	.L50
 8311 7acc 0030A0E1 	.L51:
 8312 7ad0 24300BE5 		mov	r3, #1
 344:lab.c         **** 	float fourkM = 1.0/(4.0*kM);
 8313              	ldrb	r2, [fp, #-44]
 8314 7ad4 20339FE5 		and	r3, r2, #255
 8315 7ad8 003093E5 		eor	r3, r3, #1
 8316 7adc 0300A0E1 		and	r3, r3, #255
 8317 7ae0 FEFFFFEB 		cmp	r3, #0
 8318 7ae4 0030A0E1 		bne	.L52
 8319 7ae8 0140A0E1 		ldr	r3, [fp, #-28]
 8320 7aec 0300A0E1 		cmp	r3, #4
 8321 7af0 0410A0E1 		beq	.L52
 8322 7af4 0121A0E3 		.loc 1 385 0
 8323 7af8 012682E2 		ldr	r1, [fp, #-28]
 8324 7afc 0030A0E3 		ldr	r2, .L60+48
 8325 7b00 FEFFFFEB 		ldr	r3, .L60+52	@ float
 8326 7b04 0030A0E1 		str	r3, [r2, r1, asl #2]	@ float
 8327 7b08 0140A0E1 		.loc 1 384 0
 8328 7b0c FF05A0E3 		b	.L55
 8329 7b10 030680E2 	.L52:
 8330 7b14 0010A0E3 		.loc 1 387 0
 8331 7b18 0320A0E1 		ldr	r2, [fp, #-28]
 8332 7b1c 0430A0E1 		ldr	r3, .L60+48
 8333 7b20 FEFFFFEB 		ldr	r3, [r3, r2, asl #2]	@ float
 8334 7b24 0030A0E1 		mov	r0, r3
 8335 7b28 0140A0E1 		ldr	r1, .L60+56	@ float
 8336 7b2c 0300A0E1 		bl	__gtsf2
 8337 7b30 0410A0E1 		mov	r3, r0
 8338 7b34 FEFFFFEB 		cmp	r3, #0
 8339 7b38 0030A0E1 		bgt	.L57
 8340 7b3c 20300BE5 		b	.L55
 345:lab.c         **** 
 346:lab.c         **** 	/*
 347:lab.c         **** 	Winv[0] = 0;
 348:lab.c         **** 	Winv[1] = twolkF;
 349:lab.c         **** 	Winv[2] = -fourkM;
 350:lab.c         **** 	Winv[3] = fourkF;
 351:lab.c         **** 	Winv[1*4+0] = -twolkF;
 352:lab.c         **** 	Winv[1*4+1] = 0;
 353:lab.c         **** 	Winv[1*4+2] = fourkM;
 354:lab.c         **** 	Winv[1*4+3] = fourkF;
 355:lab.c         **** 	Winv[2*4+0] = 0;
 356:lab.c         **** 	Winv[2*4+1] = -twolkF;
 357:lab.c         **** 	Winv[2*4+2] = -fourkM;
 358:lab.c         **** 	Winv[2*4+3] = fourkF;
 359:lab.c         **** 	Winv[3*4+0] = twolkF;
 360:lab.c         **** 	Winv[3*4+1] = 0;
 361:lab.c         **** 	Winv[3*4+2] = fourkM;
 362:lab.c         **** 	Winv[3*4+3] = fourkF;
 363:lab.c         **** 
 364:lab.c         **** 	matrix_multiply(4,4,1,Winv,cnt_u,omega_cmd2);
 365:lab.c         **** 	 */
 366:lab.c         **** 	int i;
 367:lab.c         **** 	for (i=0; i<4; i++) {
 8341              	 [fp, #-28]
 8342 7b40 0030A0E3 		ldr	r2, .L60+48
 8343 7b44 1C300BE5 		ldr	r3, .L60+56	@ float
 8344 7b48 7E0000EA 		str	r3, [r2, r1, asl #2]	@ float
 8345              	.L55:
 368:lab.c         **** 		if (omega_cmd2[i] > MAXPHI2) {
 8346              	 1 367 0
 8347 7b4c 1C201BE5 		ldr	r3, [fp, #-28]
 8348 7b50 A8329FE5 		add	r3, r3, #1
 8349 7b54 022193E7 		str	r3, [fp, #-28]
 8350 7b58 A4329FE5 	.L42:
 8351 7b5c 003093E5 		ldr	r3, [fp, #-28]
 8352 7b60 0200A0E1 		cmp	r3, #3
 8353 7b64 0310A0E1 		ble	.L43
 8354 7b68 FEFFFFEB 		.loc 1 394 0
 8355 7b6c 0030A0E1 		ldr	r3, .L60+48
 8356 7b70 000053E3 		ldr	r3, [r3, #0]	@ float
 8357 7b74 000000CA 		mov	r0, r3
 8358 7b78 050000EA 		bl	__fixunssfsi
 8359              		mov	r3, r0
 369:lab.c         **** 			omega_cmd2[i] = MAXPHI2;
 8360              	255
 8361 7b7c 1C101BE5 		ldr	r2, .L60+60
 8362 7b80 7C329FE5 		strb	r3, [r2, #0]
 8363 7b84 002093E5 		.loc 1 395 0
 8364 7b88 70329FE5 		ldr	r3, .L60+48
 8365 7b8c 012183E7 		ldr	r3, [r3, #4]	@ float
 8366 7b90 100000EA 		mov	r0, r3
 8367              		bl	__fixunssfsi
 370:lab.c         **** 		}
 371:lab.c         **** 		else if (omega_cmd2[i] < MINPHI2) {
 8368              	 r0
 8369 7b94 1C201BE5 		and	r3, r3, #255
 8370 7b98 60329FE5 		ldr	r2, .L60+60
 8371 7b9c 022193E7 		strb	r3, [r2, #3]
 8372 7ba0 60329FE5 		.loc 1 396 0
 8373 7ba4 003093E5 		ldr	r3, .L60+48
 8374 7ba8 0200A0E1 		ldr	r3, [r3, #8]	@ float
 8375 7bac 0310A0E1 		mov	r0, r3
 8376 7bb0 FEFFFFEB 		bl	__fixunssfsi
 8377 7bb4 0030A0E1 		mov	r3, r0
 8378 7bb8 000053E3 		and	r3, r3, #255
 8379 7bbc 000000BA 		ldr	r2, .L60+60
 8380 7bc0 040000EA 		strb	r3, [r2, #1]
 8381              		.loc 1 397 0
 372:lab.c         **** 			omega_cmd2[i] = MINPHI2;
 8382              	48
 8383 7bc4 1C101BE5 		ldr	r3, [r3, #12]	@ float
 8384 7bc8 38329FE5 		mov	r0, r3
 8385 7bcc 002093E5 		bl	__fixunssfsi
 8386 7bd0 28329FE5 		mov	r3, r0
 8387 7bd4 012183E7 		and	r3, r3, #255
 8388              		ldr	r2, .L60+60
 373:lab.c         **** 		}
 374:lab.c         **** 		omega_cmd[i] = sqrt(omega_cmd2[i]);
 8389              	3, [r2, #2]
 8390 7bd8 1C501BE5 		.loc 1 399 0
 8391 7bdc 1C201BE5 		sub	sp, fp, #24
 8392 7be0 18329FE5 		ldmfd	sp, {r4, r5, r6, fp, sp, lr}
 8393 7be4 023193E7 		bx	lr
 8394 7be8 0300A0E1 	.L61:
 8395 7bec FEFFFFEB 		.align	2
 8396 7bf0 0030A0E1 	.L60:
 8397 7bf4 0140A0E1 		.word	1070499056
 8398 7bf8 0300A0E1 		.word	-1792478831
 8399 7bfc 0410A0E1 		.word	1077534565
 8400 7c00 FEFFFFEB 		.word	2001935796
 8401 7c04 0030A0E1 		.word	WO_SDK
 8402 7c08 0140A0E1 		.word	l
 8403 7c0c 0300A0E1 		.word	kF
 8404 7c10 0410A0E1 		.word	kM
 8405 7c14 FEFFFFEB 		.word	omega_cmd2
 8406 7c18 0020A0E1 		.word	MAXPHI2
 8407 7c1c E8319FE5 		.word	MINPHI2
 8408 7c20 052183E7 		.word	omega_cmd
 375:lab.c         **** 		// Translate Desired Rotor Speed into Motor Commands
 376:lab.c         **** 		// NOTE: THIS IS FOR THE PELICAN
 377:lab.c         **** 		cmd[i] = 0.238432*omega_cmd[i] - 25.872642;	// Verify
 8409              	65353216
 8410 7c24 1C501BE5 		.word	1128792064
 8411 7c28 1C201BE5 		.word	WO_Direct_Individual_Motor_Control
 8412 7c2c D8319FE5 	.LFE5:
 8414 7c34 0300A0E1 		.comm	GPS_timeout,4,4
 8415 7c38 FEFFFFEB 		.comm	SYSTEM_initialized,1,1
 8416 7c3c 0030A0E1 		.comm	imusensor,68,4
 8417 7c40 0140A0E1 		.comm	mocap,44,4
 8418 7c44 0300A0E1 		.comm	takeoff2,4,4
 8419 7c48 0410A0E1 		.comm	initialize,4,4
 8420 7c4c 632F8FE2 		.comm	velocityEstHolder,4,4
 8421 7c50 0C0092E8 		.comm	VelEstX,4,4
 8422 7c54 FEFFFFEB 		.comm	VelEstY,4,4
 8423 7c58 0030A0E1 		.comm	VelEstZ,4,4
 8424 7c5c 0140A0E1 		.comm	previousXMeas,4,4
 8425 7c60 0300A0E1 		.comm	previousYMeas,4,4
 8426 7c64 0410A0E1 		.comm	previousZMeas,4,4
 8427 7c68 5E2F8FE2 		.comm	errorcum,12,4
 8428 7c6c 0C0092E8 		.comm	IntegralHolder,4,4
 8429 7c70 FEFFFFEB 		.comm	u,16,4
 8430 7c74 0030A0E1 		.comm	goalposyaw,16,4
 8431 7c78 0140A0E1 		.comm	cnt_u,16,4
 8432 7c7c 0300A0E1 		.comm	o_desired,12,4
 8433 7c80 0410A0E1 		.comm	yaw_desired,4,4
 8434 7c84 FEFFFFEB 		.comm	xd,48,4
 8435 7c88 0020A0E1 		.comm	fsum_des,4,4
 8436 7c8c 7C319FE5 		.comm	n_des,12,4
 8437 7c90 052183E7 		.comm	Winv,64,4
 378:lab.c         **** 
 379:lab.c         **** 		// Below is a safety measure. We want to make sure the motor
 380:lab.c         **** 		// commands are never 0 so that the motors will always keep
 381:lab.c         **** 		// spinning. Also makes sure that motor commands stay within range.
 382:lab.c         **** 		// NOTE: THIS SHOULD BE UNNECESSARY. I IMPLEMENTED THIS AS AN EXTRA
 383:lab.c         **** 		// SAFETY MEASURE
 384:lab.c         **** 		if (cmd[i] < 1.0 && i != 4) {
 8438              		omega_cmd,16,4
 8439 7c94 1C201BE5 		.comm	cmd,16,4
 8440 7c98 70319FE5 		.section	.debug_frame,"",%progbits
 8441 7c9c 022193E7 	.Lframe0:
 8442 7ca0 0030A0E3 		.4byte	.LECIE0-.LSCIE0
 8443 7ca4 2C304BE5 	.LSCIE0:
 8444 7ca8 0200A0E1 		.4byte	0xffffffff
 8445 7cac 60119FE5 		.byte	0x1
 8446 7cb0 FEFFFFEB 		.ascii	"\000"
 8447 7cb4 0030A0E1 		.uleb128 0x1
 8448 7cb8 000053E3 		.sleb128 -4
 8449 7cbc 000000BA 		.byte	0xe
 8450 7cc0 010000EA 		.byte	0xc
 8451              		.uleb128 0xd
 8452 7cc4 0130A0E3 		.uleb128 0x0
 8453 7cc8 2C304BE5 		.align	2
 8454              	.LECIE0:
 8455 7ccc 2C205BE5 	.LSFDE0:
 8456 7cd0 FF3002E2 		.4byte	.LEFDE0-.LASFDE0
 8457 7cd4 013023E2 	.LASFDE0:
 8458 7cd8 FF3003E2 		.4byte	.Lframe0
 8459 7cdc 000053E3 		.4byte	.LFB2
 8460 7ce0 0700001A 		.4byte	.LFE2-.LFB2
 8461 7ce4 1C301BE5 		.byte	0x4
 8462 7ce8 040053E3 		.4byte	.LCFI0-.LFB2
 8463 7cec 0400000A 		.byte	0xd
 385:lab.c         **** 			cmd[i] = 1.0;
 8464              	.4byte	.LCFI1-.LCFI0
 8465 7cf0 1C101BE5 		.byte	0x8e
 8466 7cf4 14219FE5 		.uleb128 0x2
 8467 7cf8 14319FE5 		.byte	0x8d
 8468 7cfc 013182E7 		.uleb128 0x3
 8469              		.byte	0x8b
 8470 7d00 0D0000EA 		.uleb128 0x4
 8471              		.byte	0x4
 386:lab.c         **** 		}
 387:lab.c         **** 		else if (cmd[i] > 200.0) {
 8472              	.LCFI2-.LCFI1
 8473 7d04 1C201BE5 		.byte	0xc
 8474 7d08 00319FE5 		.uleb128 0xb
 8475 7d0c 023193E7 		.uleb128 0x4
 8476 7d10 0300A0E1 		.align	2
 8477 7d14 FC109FE5 	.LEFDE0:
 8478 7d18 FEFFFFEB 	.LSFDE2:
 8479 7d1c 0030A0E1 		.4byte	.LEFDE2-.LASFDE2
 8480 7d20 000053E3 	.LASFDE2:
 8481 7d24 000000CA 		.4byte	.Lframe0
 8482 7d28 030000EA 		.4byte	.LFB3
 8483              		.4byte	.LFE3-.LFB3
 388:lab.c         **** 			cmd[i] = 200.0;
 8484              	.4byte	.LCFI3-.LFB3
 8485 7d2c 1C101BE5 		.byte	0xd
 8486 7d30 D8209FE5 		.uleb128 0xc
 8487 7d34 DC309FE5 		.byte	0x4
 8488 7d38 013182E7 		.4byte	.LCFI4-.LCFI3
 8489              		.byte	0x8e
 8490              		.uleb128 0x2
 8491 7d3c 1C301BE5 		.byte	0x8d
 8492 7d40 013083E2 		.uleb128 0x3
 8493 7d44 1C300BE5 		.byte	0x8b
 8494              		.uleb128 0x4
 8495 7d48 1C301BE5 		.byte	0x84
 8496 7d4c 030053E3 		.uleb128 0x5
 8497 7d50 7DFFFFDA 		.byte	0x4
 389:lab.c         **** 		}
 390:lab.c         **** 	}
 391:lab.c         **** 	/////////////////////////////////////////////////////////////////////////////////////////////
 392:lab.c         **** 
 393:lab.c         **** 	/////// Send Motor Commands ///////////
 394:lab.c         **** 	WO_Direct_Individual_Motor_Control.motor[0] = cmd[0];
 8498              	-.LCFI4
 8499 7d54 B4309FE5 		.byte	0xc
 8500 7d58 003093E5 		.uleb128 0xb
 8501 7d5c 0300A0E1 		.uleb128 0x4
 8502 7d60 FEFFFFEB 		.align	2
 8503 7d64 0030A0E1 	.LEFDE2:
 8504 7d68 FF3003E2 	.LSFDE4:
 8505 7d6c A8209FE5 		.4byte	.LEFDE4-.LASFDE4
 8506 7d70 0030C2E5 	.LASFDE4:
 395:lab.c         **** 	WO_Direct_Individual_Motor_Control.motor[3] = cmd[1];
 8507              	Lframe0
 8508 7d74 94309FE5 		.4byte	.LFB4
 8509 7d78 043093E5 		.4byte	.LFE4-.LFB4
 8510 7d7c 0300A0E1 		.byte	0x4
 8511 7d80 FEFFFFEB 		.4byte	.LCFI7-.LFB4
 8512 7d84 0030A0E1 		.byte	0xd
 8513 7d88 FF3003E2 		.uleb128 0xc
 8514 7d8c 88209FE5 		.byte	0x4
 8515 7d90 0330C2E5 		.4byte	.LCFI8-.LCFI7
 396:lab.c         **** 	WO_Direct_Individual_Motor_Control.motor[1] = cmd[2];
 8516              	8e
 8517 7d94 74309FE5 		.uleb128 0x2
 8518 7d98 083093E5 		.byte	0x8d
 8519 7d9c 0300A0E1 		.uleb128 0x3
 8520 7da0 FEFFFFEB 		.byte	0x8b
 8521 7da4 0030A0E1 		.uleb128 0x4
 8522 7da8 FF3003E2 		.byte	0x8a
 8523 7dac 68209FE5 		.uleb128 0x5
 8524 7db0 0130C2E5 		.byte	0x89
 397:lab.c         **** 	WO_Direct_Individual_Motor_Control.motor[2] = cmd[3];
 8525              	 0x6
 8526 7db4 54309FE5 		.byte	0x88
 8527 7db8 0C3093E5 		.uleb128 0x7
 8528 7dbc 0300A0E1 		.byte	0x87
 8529 7dc0 FEFFFFEB 		.uleb128 0x8
 8530 7dc4 0030A0E1 		.byte	0x86
 8531 7dc8 FF3003E2 		.uleb128 0x9
 8532 7dcc 48209FE5 		.byte	0x85
 8533 7dd0 0230C2E5 		.uleb128 0xa
 398:lab.c         **** 	///////////////////////////////////////
 399:lab.c         **** }
 8534              	84
 8535 7dd4 18D04BE2 		.uleb128 0xb
 8536 7dd8 70689DE8 		.byte	0x4
 8537 7ddc 1EFF2FE1 		.4byte	.LCFI9-.LCFI8
 8538              		.byte	0xc
 8539              		.uleb128 0xb
 8540              		.uleb128 0x4
 8541 7de0 F084CE3F 		.align	2
 8542 7de4 91F12895 	.LEFDE4:
 8543 7de8 65DF3940 	.LSFDE6:
 8544 7dec B41D5377 		.4byte	.LEFDE6-.LASFDE6
 8545 7df0 00000000 	.LASFDE6:
 8546 7df4 00000000 		.4byte	.Lframe0
 8547 7df8 00000000 		.4byte	.LFB5
 8548 7dfc 00000000 		.4byte	.LFE5-.LFB5
 8549 7e00 00000000 		.byte	0x4
 8550 7e04 00000000 		.4byte	.LCFI11-.LFB5
 8551 7e08 00000000 		.byte	0xd
 8552 7e0c 00000000 		.uleb128 0xc
 8553 7e10 00000000 		.byte	0x4
 8554 7e14 0000803F 		.4byte	.LCFI12-.LCFI11
 8555 7e18 00004843 		.byte	0x8e
 8556 7e1c 00000000 		.uleb128 0x2
 8557              		.byte	0x8d
 8558              		.uleb128 0x3
 8559              		.byte	0x8b
 8560              		.uleb128 0x4
 8561              		.byte	0x86
 8562              		.uleb128 0x5
 8563              		.byte	0x85
 8564              		.uleb128 0x6
 8565              		.byte	0x84
 8566              		.uleb128 0x7
 8567              		.byte	0x4
 8568              		.4byte	.LCFI13-.LCFI12
 8569              		.byte	0xc
 8570              		.uleb128 0xb
 8571              		.uleb128 0x4
 8572              		.align	2
 8573              	.LEFDE6:
 8574              		.file 2 "main.h"
 8575              		.file 3 "lab.h"
 8576              		.file 4 "c:\\asctec_arm_sdk\\winarm\\bin\\../lib/gcc/arm-elf/4.1.1/../../../../arm-elf/include/std
 8577              		.file 5 "sdk.h"
 8578              		.text
 8579              	.Letext0:
 8580              		.section	.debug_loc,"",%progbits
 8581              	.Ldebug_loc0:
 8582              	.LLST0:
 8583              		.4byte	.LFB2-.Ltext0
 8584              		.4byte	.LCFI0-.Ltext0
 8585              		.2byte	0x1
 8728              		.uleb128 0x4
DEFINED SYMBOLS
                            *ABS*:00000000 lab.c
C:\Users\atnguye2\AppData\Local\Temp/ccAtdaaa.s:15     .data:00000000 mass
C:\Users\atnguye2\AppData\Local\Temp/ccAtdaaa.s:16     .data:00000000 $d
C:\Users\atnguye2\AppData\Local\Temp/ccAtdaaa.s:21     .data:00000004 kF
C:\Users\atnguye2\AppData\Local\Temp/ccAtdaaa.s:27     .data:00000008 kM
C:\Users\atnguye2\AppData\Local\Temp/ccAtdaaa.s:33     .data:0000000c l
C:\Users\atnguye2\AppData\Local\Temp/ccAtdaaa.s:39     .data:00000010 MAXPHI2
C:\Users\atnguye2\AppData\Local\Temp/ccAtdaaa.s:45     .data:00000014 MINPHI2
C:\Users\atnguye2\AppData\Local\Temp/ccAtdaaa.s:51     .data:00000018 K_d
C:\Users\atnguye2\AppData\Local\Temp/ccAtdaaa.s:57     .data:0000001c K_p
C:\Users\atnguye2\AppData\Local\Temp/ccAtdaaa.s:63     .data:00000020 K_i
C:\Users\atnguye2\AppData\Local\Temp/ccAtdaaa.s:77     .bss:00000000 v_desired
C:\Users\atnguye2\AppData\Local\Temp/ccAtdaaa.s:84     .data:00000040 g
C:\Users\atnguye2\AppData\Local\Temp/ccAtdaaa.s:91     .bss:0000000c outter_count
C:\Users\atnguye2\AppData\Local\Temp/ccAtdaaa.s:98     .data:00000044 epsilon_eq
C:\Users\atnguye2\AppData\Local\Temp/ccAtdaaa.s:104    .data:00000048 nx_eq
C:\Users\atnguye2\AppData\Local\Temp/ccAtdaaa.s:111    .bss:00000010 ny_eq
C:\Users\atnguye2\AppData\Local\Temp/ccAtdaaa.s:118    .data:0000004c nz_eq
C:\Users\atnguye2\AppData\Local\Temp/ccAtdaaa.s:124    .data:00000050 p_eq
C:\Users\atnguye2\AppData\Local\Temp/ccAtdaaa.s:131    .bss:00000014 q_eq
C:\Users\atnguye2\AppData\Local\Temp/ccAtdaaa.s:138    .data:00000054 r_eq
C:\Users\atnguye2\AppData\Local\Temp/ccAtdaaa.s:145    .bss:00000018 pd_eq
C:\Users\atnguye2\AppData\Local\Temp/ccAtdaaa.s:151    .bss:0000001c qd_eq
C:\Users\atnguye2\AppData\Local\Temp/ccAtdaaa.s:157    .bss:00000020 rd_eq
C:\Users\atnguye2\AppData\Local\Temp/ccAtdaaa.s:164    .data:00000058 w1_eq
C:\Users\atnguye2\AppData\Local\Temp/ccAtdaaa.s:170    .data:0000005c w2_eq
C:\Users\atnguye2\AppData\Local\Temp/ccAtdaaa.s:176    .data:00000060 w3_eq
C:\Users\atnguye2\AppData\Local\Temp/ccAtdaaa.s:183    .bss:00000024 w4_eq
C:\Users\atnguye2\AppData\Local\Temp/ccAtdaaa.s:190    .data:00000064 se
C:\Users\atnguye2\AppData\Local\Temp/ccAtdaaa.s:199    .data:00000074 ue
C:\Users\atnguye2\AppData\Local\Temp/ccAtdaaa.s:206    .text:00000000 lab
C:\Users\atnguye2\AppData\Local\Temp/ccAtdaaa.s:213    .text:00000000 $a
C:\Users\atnguye2\AppData\Local\Temp/ccAtdaaa.s:288    .text:00000070 do_sensor_fusion
C:\Users\atnguye2\AppData\Local\Temp/ccAtdaaa.s:601    .text:00000428 lab3
C:\Users\atnguye2\AppData\Local\Temp/ccAtdaaa.s:8221   .text:0000799c convert_input_to_motor_commands
C:\Users\atnguye2\AppData\Local\Temp/ccAtdaaa.s:252    .text:00000064 $d
                            *COM*:00000010 goalposyaw
                            *COM*:0000000c o_desired
                            *COM*:00000004 yaw_desired
C:\Users\atnguye2\AppData\Local\Temp/ccAtdaaa.s:262    .bss:00000028 LED1toggle
C:\Users\atnguye2\AppData\Local\Temp/ccAtdaaa.s:268    .bss:0000002c LED1count
C:\Users\atnguye2\AppData\Local\Temp/ccAtdaaa.s:274    .bss:00000030 numCMDs
C:\Users\atnguye2\AppData\Local\Temp/ccAtdaaa.s:294    .text:00000070 $a
C:\Users\atnguye2\AppData\Local\Temp/ccAtdaaa.s:559    .text:000003f8 $d
                            *COM*:0000002c mocap
                            *COM*:00000004 previousXMeas
                            *COM*:00000004 previousYMeas
                            *COM*:00000004 previousZMeas
                            *COM*:00000004 initialize
C:\Users\atnguye2\AppData\Local\Temp/ccAtdaaa.s:578    .bss:00000034 LED0timeCount
C:\Users\atnguye2\AppData\Local\Temp/ccAtdaaa.s:584    .bss:00000038 LED0toggle
C:\Users\atnguye2\AppData\Local\Temp/ccAtdaaa.s:590    .rodata:00000000 C.23.3776
C:\Users\atnguye2\AppData\Local\Temp/ccAtdaaa.s:607    .text:00000428 $a
C:\Users\atnguye2\AppData\Local\Temp/ccAtdaaa.s:641    .text:00000480 $d
                            *COM*:00000044 imusensor
                            *COM*:00000030 xd
C:\Users\atnguye2\AppData\Local\Temp/ccAtdaaa.s:654    .text:000004ac $a
C:\Users\atnguye2\AppData\Local\Temp/ccAtdaaa.s:2739   .text:000024d0 $d
C:\Users\atnguye2\AppData\Local\Temp/ccAtdaaa.s:2741   .text:000024d4 $a
C:\Users\atnguye2\AppData\Local\Temp/ccAtdaaa.s:4811   .text:00004514 $d
C:\Users\atnguye2\AppData\Local\Temp/ccAtdaaa.s:4814   .text:0000451c $a
C:\Users\atnguye2\AppData\Local\Temp/ccAtdaaa.s:6862   .text:00006508 $d
                            *COM*:0000000c n_des
                            *COM*:00000004 fsum_des
C:\Users\atnguye2\AppData\Local\Temp/ccAtdaaa.s:6869   .text:00006520 $a
C:\Users\atnguye2\AppData\Local\Temp/ccAtdaaa.s:8201   .text:0000796c $d
                            *COM*:00000010 cnt_u
                            *COM*:00000010 u
C:\Users\atnguye2\AppData\Local\Temp/ccAtdaaa.s:8227   .text:0000799c $a
C:\Users\atnguye2\AppData\Local\Temp/ccAtdaaa.s:8541   .text:00007de0 $d
                            *COM*:00000010 omega_cmd2
                            *COM*:00000010 omega_cmd
                            *COM*:00000010 cmd
                            *COM*:00000004 GPS_timeout
                            *COM*:00000001 SYSTEM_initialized
                            *COM*:00000004 takeoff2
                            *COM*:00000004 velocityEstHolder
                            *COM*:00000004 VelEstX
                            *COM*:00000004 VelEstY
                            *COM*:00000004 VelEstZ
                            *COM*:0000000c errorcum
                            *COM*:00000004 IntegralHolder
                            *COM*:00000040 Winv

UNDEFINED SYMBOLS
__nesf2
__floatsidf
__adddf3
__fixdfsi
__subsf3
__extendsfdf2
__divdf3
__truncdfsf2
LED
__mulsf3
__muldf3
__subdf3
__divsf3
__addsf3
cos
sin
matrix_multiply
sqrt
__gtsf2
__ltsf2
__fixunssfsi
WO_SDK
WO_Direct_Individual_Motor_Control
